	.file	"compile_options.cpp"
	.text
	.globl	main                            # -- Begin function main
	.p2align	4
	.type	main,@function
main:                                   # @main
.Lfunc_begin0:
	.cfi_startproc
	.cfi_personality 3, __gxx_personality_v0
	.cfi_lsda 3, .Lexception0
# %bb.0:                                # %entry
	pushq	%rbp
	.cfi_def_cfa_offset 16
	.cfi_offset %rbp, -16
	movq	%rsp, %rbp
	.cfi_def_cfa_register %rbp
	subq	$528, %rsp                      # imm = 0x210
	movl	$0, -4(%rbp)
	leaq	-56(%rbp), %rdi
	movq	%rdi, -408(%rbp)                # 8-byte Spill
	movl	$4, %esi
	callq	_ZN4sycl3_V15rangeILi1EEC2ILi1EEENSt9enable_ifIXeqT_Li1EEmE4typeE
	leaq	-88(%rbp), %rdi
	movq	%rdi, -400(%rbp)                # 8-byte Spill
	callq	_ZN4sycl3_V113property_listC2IJEvEEDpT_
	movl	$.L.str, %esi
	movl	$.L.str.1, %edx
	leaq	-120(%rbp), %rdi
	movl	$23, %ecx
	movl	$27, %r8d
	callq	_ZN4sycl3_V16detail13code_location7currentEPKcS4_jj
	movq	-408(%rbp), %rsi                # 8-byte Reload
	movq	-400(%rbp), %rdx                # 8-byte Reload
.Ltmp0:                                 # EH_LABEL
	movups	-120(%rbp), %xmm0
	movups	-104(%rbp), %xmm1
	movq	%rsp, %rax
	movups	%xmm1, 16(%rax)
	movups	%xmm0, (%rax)
	leaq	-48(%rbp), %rdi
	callq	_ZN4sycl3_V16bufferImLi1ENS0_6detail17aligned_allocatorImEEvEC2ERKNS0_5rangeILi1EEERKNS0_13property_listENS2_13code_locationE
.Ltmp1:                                 # EH_LABEL
	jmp	.LBB0_1
.LBB0_1:                                # %invoke.cont
	leaq	-88(%rbp), %rdi
	callq	_ZN4sycl3_V113property_listD2Ev
.Ltmp3:                                 # EH_LABEL
	leaq	-184(%rbp), %rdi
	callq	_ZN4sycl3_V113property_listC2IJEvEEDpT_
.Ltmp4:                                 # EH_LABEL
	jmp	.LBB0_2
.LBB0_2:                                # %invoke.cont4
.Ltmp6:                                 # EH_LABEL
	leaq	-152(%rbp), %rdi
	leaq	-184(%rbp), %rsi
	callq	_ZN4sycl3_V15queueC2ERKNS0_13property_listE
.Ltmp7:                                 # EH_LABEL
	jmp	.LBB0_3
.LBB0_3:                                # %invoke.cont6
	leaq	-184(%rbp), %rdi
	callq	_ZN4sycl3_V113property_listD2Ev
	leaq	-48(%rbp), %rdi
	callq	_ZNK4sycl3_V16bufferImLi1ENS0_6detail17aligned_allocatorImEEvE4sizeEv
	movq	%rax, %rsi
.Ltmp9:                                 # EH_LABEL
	leaq	-192(%rbp), %rdi
	callq	_ZN4sycl3_V15rangeILi1EEC2ILi1EEENSt9enable_ifIXeqT_Li1EEmE4typeE
.Ltmp10:                                # EH_LABEL
	jmp	.LBB0_4
.LBB0_4:                                # %invoke.cont8
	leaq	-48(%rbp), %rax
	movq	%rax, -224(%rbp)
	leaq	-192(%rbp), %rax
	movq	%rax, -216(%rbp)
	movl	$.L.str, %esi
	movl	$.L.str.1, %edx
	leaq	-256(%rbp), %rdi
	movq	%rdi, -416(%rbp)                # 8-byte Spill
	movl	$29, %ecx
	movl	$9, %r8d
	callq	_ZN4sycl3_V16detail13code_location7currentEPKcS4_jj
	movq	-416(%rbp), %r8                 # 8-byte Reload
	movq	-224(%rbp), %rdx
	movq	-216(%rbp), %rcx
.Ltmp11:                                # EH_LABEL
	leaq	-208(%rbp), %rdi
	leaq	-152(%rbp), %rsi
	callq	_ZN4sycl3_V15queue6submitIZ4mainEUlRNS0_7handlerEE_EENSt9enable_ifIXsr3stdE16is_invocable_r_vIvT_S4_EENS0_5eventEE4typeES7_RKNS0_6detail13code_locationE
.Ltmp12:                                # EH_LABEL
	jmp	.LBB0_5
.LBB0_5:                                # %invoke.cont13
	leaq	-208(%rbp), %rdi
	callq	_ZN4sycl3_V15eventD2Ev
.Ltmp13:                                # EH_LABEL
	leaq	-328(%rbp), %rdi
	callq	_ZN4sycl3_V113property_listC2IJEvEEDpT_
.Ltmp14:                                # EH_LABEL
	jmp	.LBB0_6
.LBB0_6:                                # %invoke.cont16
	movl	$.L.str, %esi
	movl	$.L.str.1, %edx
	leaq	-360(%rbp), %rdi
	movl	$36, %ecx
	movl	$23, %r8d
	callq	_ZN4sycl3_V16detail13code_location7currentEPKcS4_jj
.Ltmp16:                                # EH_LABEL
	movups	-360(%rbp), %xmm0
	movups	-344(%rbp), %xmm1
	movq	%rsp, %rax
	movups	%xmm1, 16(%rax)
	movups	%xmm0, (%rax)
	leaq	-288(%rbp), %rdi
	leaq	-48(%rbp), %rsi
	leaq	-328(%rbp), %rdx
	callq	_ZN4sycl3_V113host_accessorImLi1ELNS0_6access4modeE1024EEC2ImLi1ENS0_6detail17aligned_allocatorImEEvEERNS0_6bufferIT_XT0_ET1_NSt9enable_ifIXaagtT0_Li0EleT0_Li3EEvE4typeEEENS0_10mode_tag_tILS3_1024EEERKNS0_13property_listENS6_13code_locationE
.Ltmp17:                                # EH_LABEL
	jmp	.LBB0_7
.LBB0_7:                                # %invoke.cont19
	leaq	-328(%rbp), %rdi
	callq	_ZN4sycl3_V113property_listD2Ev
	movb	$0, -361(%rbp)
	movq	$0, -376(%rbp)
.LBB0_8:                                # %for.cond
                                        # =>This Inner Loop Header: Depth=1
	movq	-376(%rbp), %rax
	movq	%rax, -424(%rbp)                # 8-byte Spill
	leaq	-48(%rbp), %rdi
	callq	_ZNK4sycl3_V16bufferImLi1ENS0_6detail17aligned_allocatorImEEvE4sizeEv
	movq	%rax, %rcx
	movq	-424(%rbp), %rax                # 8-byte Reload
	cmpq	%rcx, %rax
	jae	.LBB0_30
# %bb.9:                                # %for.body
                                        #   in Loop: Header=BB0_8 Depth=1
	movq	-376(%rbp), %rsi
.Ltmp19:                                # EH_LABEL
	leaq	-384(%rbp), %rdi
	callq	_ZN4sycl3_V12idILi1EEC2ILi1EEENSt9enable_ifIXeqT_Li1EEmE4typeE
.Ltmp20:                                # EH_LABEL
	jmp	.LBB0_10
.LBB0_10:                               # %invoke.cont23
                                        #   in Loop: Header=BB0_8 Depth=1
	movq	-384(%rbp), %rsi
.Ltmp21:                                # EH_LABEL
	leaq	-288(%rbp), %rdi
	callq	_ZNK4sycl3_V18accessorImLi1ELNS0_6access4modeE1024ELNS2_6targetE2018ELNS2_11placeholderE0ENS0_3ext6oneapi22accessor_property_listIJEEEEixILi1EvEERKmNS0_2idILi1EEE
.Ltmp22:                                # EH_LABEL
	movq	%rax, -432(%rbp)                # 8-byte Spill
	jmp	.LBB0_11
.LBB0_11:                               # %invoke.cont25
                                        #   in Loop: Header=BB0_8 Depth=1
	movq	-432(%rbp), %rax                # 8-byte Reload
	movq	(%rax), %rax
	cmpq	-376(%rbp), %rax
	je	.LBB0_28
# %bb.12:                               # %if.then
                                        #   in Loop: Header=BB0_8 Depth=1
.Ltmp23:                                # EH_LABEL
	movl	$_ZSt4cout, %edi
	movl	$.L.str.2, %esi
	callq	_ZStlsISt11char_traitsIcEERSt13basic_ostreamIcT_ES5_PKc
.Ltmp24:                                # EH_LABEL
	movq	%rax, -440(%rbp)                # 8-byte Spill
	jmp	.LBB0_13
.LBB0_13:                               # %invoke.cont28
                                        #   in Loop: Header=BB0_8 Depth=1
	movq	-440(%rbp), %rdi                # 8-byte Reload
	movq	-376(%rbp), %rsi
.Ltmp25:                                # EH_LABEL
	callq	_ZNSolsEm
.Ltmp26:                                # EH_LABEL
	movq	%rax, -448(%rbp)                # 8-byte Spill
	jmp	.LBB0_14
.LBB0_14:                               # %invoke.cont30
                                        #   in Loop: Header=BB0_8 Depth=1
.Ltmp27:                                # EH_LABEL
	movq	-448(%rbp), %rdi                # 8-byte Reload
	movl	$.L.str.3, %esi
	callq	_ZStlsISt11char_traitsIcEERSt13basic_ostreamIcT_ES5_PKc
.Ltmp28:                                # EH_LABEL
	movq	%rax, -456(%rbp)                # 8-byte Spill
	jmp	.LBB0_15
.LBB0_15:                               # %invoke.cont32
                                        #   in Loop: Header=BB0_8 Depth=1
	movq	-456(%rbp), %rdi                # 8-byte Reload
	movq	-376(%rbp), %rsi
.Ltmp29:                                # EH_LABEL
	callq	_ZNSolsEm
.Ltmp30:                                # EH_LABEL
	movq	%rax, -464(%rbp)                # 8-byte Spill
	jmp	.LBB0_16
.LBB0_16:                               # %invoke.cont34
                                        #   in Loop: Header=BB0_8 Depth=1
.Ltmp31:                                # EH_LABEL
	movq	-464(%rbp), %rdi                # 8-byte Reload
	movl	$.L.str.4, %esi
	callq	_ZStlsISt11char_traitsIcEERSt13basic_ostreamIcT_ES5_PKc
.Ltmp32:                                # EH_LABEL
	movq	%rax, -472(%rbp)                # 8-byte Spill
	jmp	.LBB0_17
.LBB0_17:                               # %invoke.cont36
                                        #   in Loop: Header=BB0_8 Depth=1
	movq	-376(%rbp), %rsi
.Ltmp33:                                # EH_LABEL
	leaq	-392(%rbp), %rdi
	callq	_ZN4sycl3_V12idILi1EEC2ILi1EEENSt9enable_ifIXeqT_Li1EEmE4typeE
.Ltmp34:                                # EH_LABEL
	jmp	.LBB0_18
.LBB0_18:                               # %invoke.cont39
                                        #   in Loop: Header=BB0_8 Depth=1
	movq	-392(%rbp), %rsi
.Ltmp35:                                # EH_LABEL
	leaq	-288(%rbp), %rdi
	callq	_ZNK4sycl3_V18accessorImLi1ELNS0_6access4modeE1024ELNS2_6targetE2018ELNS2_11placeholderE0ENS0_3ext6oneapi22accessor_property_listIJEEEEixILi1EvEERKmNS0_2idILi1EEE
.Ltmp36:                                # EH_LABEL
	movq	%rax, -480(%rbp)                # 8-byte Spill
	jmp	.LBB0_19
.LBB0_19:                               # %invoke.cont42
                                        #   in Loop: Header=BB0_8 Depth=1
	movq	-472(%rbp), %rdi                # 8-byte Reload
	movq	-480(%rbp), %rax                # 8-byte Reload
	movq	(%rax), %rsi
.Ltmp37:                                # EH_LABEL
	callq	_ZNSolsEm
.Ltmp38:                                # EH_LABEL
	movq	%rax, -488(%rbp)                # 8-byte Spill
	jmp	.LBB0_20
.LBB0_20:                               # %invoke.cont44
                                        #   in Loop: Header=BB0_8 Depth=1
.Ltmp39:                                # EH_LABEL
	movq	-488(%rbp), %rdi                # 8-byte Reload
	movl	$_ZSt4endlIcSt11char_traitsIcEERSt13basic_ostreamIT_T0_ES6_, %esi
	callq	_ZNSolsEPFRSoS_E
.Ltmp40:                                # EH_LABEL
	jmp	.LBB0_21
.LBB0_21:                               # %invoke.cont46
                                        #   in Loop: Header=BB0_8 Depth=1
	movb	$1, -361(%rbp)
	jmp	.LBB0_28
.LBB0_22:                               # %lpad
.Ltmp2:                                 # EH_LABEL
	movq	%rax, %rcx
	movl	%edx, %eax
	movq	%rcx, -128(%rbp)
	movl	%eax, -132(%rbp)
	leaq	-88(%rbp), %rdi
	callq	_ZN4sycl3_V113property_listD2Ev
	jmp	.LBB0_33
.LBB0_23:                               # %lpad3
.Ltmp5:                                 # EH_LABEL
	movq	%rax, %rcx
	movl	%edx, %eax
	movq	%rcx, -128(%rbp)
	movl	%eax, -132(%rbp)
	jmp	.LBB0_32
.LBB0_24:                               # %lpad5
.Ltmp8:                                 # EH_LABEL
	movq	%rax, %rcx
	movl	%edx, %eax
	movq	%rcx, -128(%rbp)
	movl	%eax, -132(%rbp)
	leaq	-184(%rbp), %rdi
	callq	_ZN4sycl3_V113property_listD2Ev
	jmp	.LBB0_32
.LBB0_25:                               # %lpad7
.Ltmp15:                                # EH_LABEL
	movq	%rax, %rcx
	movl	%edx, %eax
	movq	%rcx, -128(%rbp)
	movl	%eax, -132(%rbp)
	jmp	.LBB0_31
.LBB0_26:                               # %lpad18
.Ltmp18:                                # EH_LABEL
	movq	%rax, %rcx
	movl	%edx, %eax
	movq	%rcx, -128(%rbp)
	movl	%eax, -132(%rbp)
	leaq	-328(%rbp), %rdi
	callq	_ZN4sycl3_V113property_listD2Ev
	jmp	.LBB0_31
.LBB0_27:                               # %lpad22
.Ltmp41:                                # EH_LABEL
	movq	%rax, %rcx
	movl	%edx, %eax
	movq	%rcx, -128(%rbp)
	movl	%eax, -132(%rbp)
	leaq	-288(%rbp), %rdi
	callq	_ZN4sycl3_V113host_accessorImLi1ELNS0_6access4modeE1024EED2Ev
	jmp	.LBB0_31
.LBB0_28:                               # %if.end
                                        #   in Loop: Header=BB0_8 Depth=1
	jmp	.LBB0_29
.LBB0_29:                               # %for.inc
                                        #   in Loop: Header=BB0_8 Depth=1
	movq	-376(%rbp), %rax
	addq	$1, %rax
	movq	%rax, -376(%rbp)
	jmp	.LBB0_8
.LBB0_30:                               # %for.end
	movb	-361(%rbp), %al
	andb	$1, %al
	movzbl	%al, %eax
	movl	%eax, -4(%rbp)
	leaq	-288(%rbp), %rdi
	callq	_ZN4sycl3_V113host_accessorImLi1ELNS0_6access4modeE1024EED2Ev
	leaq	-152(%rbp), %rdi
	callq	_ZN4sycl3_V15queueD2Ev
	leaq	-48(%rbp), %rdi
	callq	_ZN4sycl3_V16bufferImLi1ENS0_6detail17aligned_allocatorImEEvED2Ev
	movl	-4(%rbp), %eax
	addq	$528, %rsp                      # imm = 0x210
	popq	%rbp
	.cfi_def_cfa %rsp, 8
	retq
.LBB0_31:                               # %ehcleanup
	.cfi_def_cfa %rbp, 16
	leaq	-152(%rbp), %rdi
	callq	_ZN4sycl3_V15queueD2Ev
.LBB0_32:                               # %ehcleanup48
	leaq	-48(%rbp), %rdi
	callq	_ZN4sycl3_V16bufferImLi1ENS0_6detail17aligned_allocatorImEEvED2Ev
.LBB0_33:                               # %eh.resume
	movq	-128(%rbp), %rdi
	callq	_Unwind_Resume@PLT
.Lfunc_end0:
	.size	main, .Lfunc_end0-main
	.cfi_endproc
	.section	.gcc_except_table,"a",@progbits
	.p2align	2, 0x0
GCC_except_table0:
.Lexception0:
	.byte	255                             # @LPStart Encoding = omit
	.byte	255                             # @TType Encoding = omit
	.byte	1                               # Call site Encoding = uleb128
	.uleb128 .Lcst_end0-.Lcst_begin0
.Lcst_begin0:
	.uleb128 .Lfunc_begin0-.Lfunc_begin0    # >> Call Site 1 <<
	.uleb128 .Ltmp0-.Lfunc_begin0           #   Call between .Lfunc_begin0 and .Ltmp0
	.byte	0                               #     has no landing pad
	.byte	0                               #   On action: cleanup
	.uleb128 .Ltmp0-.Lfunc_begin0           # >> Call Site 2 <<
	.uleb128 .Ltmp1-.Ltmp0                  #   Call between .Ltmp0 and .Ltmp1
	.uleb128 .Ltmp2-.Lfunc_begin0           #     jumps to .Ltmp2
	.byte	0                               #   On action: cleanup
	.uleb128 .Ltmp3-.Lfunc_begin0           # >> Call Site 3 <<
	.uleb128 .Ltmp4-.Ltmp3                  #   Call between .Ltmp3 and .Ltmp4
	.uleb128 .Ltmp5-.Lfunc_begin0           #     jumps to .Ltmp5
	.byte	0                               #   On action: cleanup
	.uleb128 .Ltmp6-.Lfunc_begin0           # >> Call Site 4 <<
	.uleb128 .Ltmp7-.Ltmp6                  #   Call between .Ltmp6 and .Ltmp7
	.uleb128 .Ltmp8-.Lfunc_begin0           #     jumps to .Ltmp8
	.byte	0                               #   On action: cleanup
	.uleb128 .Ltmp9-.Lfunc_begin0           # >> Call Site 5 <<
	.uleb128 .Ltmp14-.Ltmp9                 #   Call between .Ltmp9 and .Ltmp14
	.uleb128 .Ltmp15-.Lfunc_begin0          #     jumps to .Ltmp15
	.byte	0                               #   On action: cleanup
	.uleb128 .Ltmp16-.Lfunc_begin0          # >> Call Site 6 <<
	.uleb128 .Ltmp17-.Ltmp16                #   Call between .Ltmp16 and .Ltmp17
	.uleb128 .Ltmp18-.Lfunc_begin0          #     jumps to .Ltmp18
	.byte	0                               #   On action: cleanup
	.uleb128 .Ltmp19-.Lfunc_begin0          # >> Call Site 7 <<
	.uleb128 .Ltmp40-.Ltmp19                #   Call between .Ltmp19 and .Ltmp40
	.uleb128 .Ltmp41-.Lfunc_begin0          #     jumps to .Ltmp41
	.byte	0                               #   On action: cleanup
	.uleb128 .Ltmp40-.Lfunc_begin0          # >> Call Site 8 <<
	.uleb128 .Lfunc_end0-.Ltmp40            #   Call between .Ltmp40 and .Lfunc_end0
	.byte	0                               #     has no landing pad
	.byte	0                               #   On action: cleanup
.Lcst_end0:
	.p2align	2, 0x0
                                        # -- End function
	.section	.text._ZN4sycl3_V15rangeILi1EEC2ILi1EEENSt9enable_ifIXeqT_Li1EEmE4typeE,"axG",@progbits,_ZN4sycl3_V15rangeILi1EEC2ILi1EEENSt9enable_ifIXeqT_Li1EEmE4typeE,comdat
	.weak	_ZN4sycl3_V15rangeILi1EEC2ILi1EEENSt9enable_ifIXeqT_Li1EEmE4typeE # -- Begin function _ZN4sycl3_V15rangeILi1EEC2ILi1EEENSt9enable_ifIXeqT_Li1EEmE4typeE
	.p2align	4
	.type	_ZN4sycl3_V15rangeILi1EEC2ILi1EEENSt9enable_ifIXeqT_Li1EEmE4typeE,@function
_ZN4sycl3_V15rangeILi1EEC2ILi1EEENSt9enable_ifIXeqT_Li1EEmE4typeE: # @_ZN4sycl3_V15rangeILi1EEC2ILi1EEENSt9enable_ifIXeqT_Li1EEmE4typeE
	.cfi_startproc
# %bb.0:                                # %entry
	pushq	%rbp
	.cfi_def_cfa_offset 16
	.cfi_offset %rbp, -16
	movq	%rsp, %rbp
	.cfi_def_cfa_register %rbp
	subq	$16, %rsp
	movq	%rdi, -8(%rbp)
	movq	%rsi, -16(%rbp)
	movq	-8(%rbp), %rdi
	movq	-16(%rbp), %rsi
	callq	_ZN4sycl3_V16detail5arrayILi1EEC2ILi1EEENSt9enable_ifIXeqT_Li1EEmE4typeE
	addq	$16, %rsp
	popq	%rbp
	.cfi_def_cfa %rsp, 8
	retq
.Lfunc_end1:
	.size	_ZN4sycl3_V15rangeILi1EEC2ILi1EEENSt9enable_ifIXeqT_Li1EEmE4typeE, .Lfunc_end1-_ZN4sycl3_V15rangeILi1EEC2ILi1EEENSt9enable_ifIXeqT_Li1EEmE4typeE
	.cfi_endproc
                                        # -- End function
	.section	.text._ZN4sycl3_V113property_listC2IJEvEEDpT_,"axG",@progbits,_ZN4sycl3_V113property_listC2IJEvEEDpT_,comdat
	.weak	_ZN4sycl3_V113property_listC2IJEvEEDpT_ # -- Begin function _ZN4sycl3_V113property_listC2IJEvEEDpT_
	.p2align	4
	.type	_ZN4sycl3_V113property_listC2IJEvEEDpT_,@function
_ZN4sycl3_V113property_listC2IJEvEEDpT_: # @_ZN4sycl3_V113property_listC2IJEvEEDpT_
.Lfunc_begin1:
	.cfi_startproc
	.cfi_personality 3, __gxx_personality_v0
	.cfi_lsda 3, .Lexception1
# %bb.0:                                # %entry
	pushq	%rbp
	.cfi_def_cfa_offset 16
	.cfi_offset %rbp, -16
	movq	%rsp, %rbp
	.cfi_def_cfa_register %rbp
	subq	$48, %rsp
	movq	%rdi, -8(%rbp)
	movq	-8(%rbp), %rax
	movq	%rax, -40(%rbp)                 # 8-byte Spill
	xorl	%eax, %eax
	movl	%eax, %esi
	leaq	-16(%rbp), %rdi
	callq	_ZNSt6bitsetILm32EEC2Ey
	movq	-40(%rbp), %rdi                 # 8-byte Reload
	movq	-16(%rbp), %rsi
	callq	_ZN4sycl3_V16detail16PropertyListBaseC2ESt6bitsetILm32EE
	movq	-40(%rbp), %rdi                 # 8-byte Reload
.Ltmp42:                                # EH_LABEL
	callq	_ZN4sycl3_V16detail16PropertyListBase10ctorHelperEv
.Ltmp43:                                # EH_LABEL
	jmp	.LBB2_1
.LBB2_1:                                # %invoke.cont
	addq	$48, %rsp
	popq	%rbp
	.cfi_def_cfa %rsp, 8
	retq
.LBB2_2:                                # %lpad
	.cfi_def_cfa %rbp, 16
.Ltmp44:                                # EH_LABEL
	movq	-40(%rbp), %rdi                 # 8-byte Reload
	movq	%rax, %rcx
	movl	%edx, %eax
	movq	%rcx, -24(%rbp)
	movl	%eax, -28(%rbp)
	callq	_ZN4sycl3_V16detail16PropertyListBaseD2Ev
# %bb.3:                                # %eh.resume
	movq	-24(%rbp), %rdi
	callq	_Unwind_Resume@PLT
.Lfunc_end2:
	.size	_ZN4sycl3_V113property_listC2IJEvEEDpT_, .Lfunc_end2-_ZN4sycl3_V113property_listC2IJEvEEDpT_
	.cfi_endproc
	.section	.gcc_except_table._ZN4sycl3_V113property_listC2IJEvEEDpT_,"aG",@progbits,_ZN4sycl3_V113property_listC2IJEvEEDpT_,comdat
	.p2align	2, 0x0
GCC_except_table2:
.Lexception1:
	.byte	255                             # @LPStart Encoding = omit
	.byte	255                             # @TType Encoding = omit
	.byte	1                               # Call site Encoding = uleb128
	.uleb128 .Lcst_end1-.Lcst_begin1
.Lcst_begin1:
	.uleb128 .Ltmp42-.Lfunc_begin1          # >> Call Site 1 <<
	.uleb128 .Ltmp43-.Ltmp42                #   Call between .Ltmp42 and .Ltmp43
	.uleb128 .Ltmp44-.Lfunc_begin1          #     jumps to .Ltmp44
	.byte	0                               #   On action: cleanup
	.uleb128 .Ltmp43-.Lfunc_begin1          # >> Call Site 2 <<
	.uleb128 .Lfunc_end2-.Ltmp43            #   Call between .Ltmp43 and .Lfunc_end2
	.byte	0                               #     has no landing pad
	.byte	0                               #   On action: cleanup
.Lcst_end1:
	.p2align	2, 0x0
                                        # -- End function
	.section	.text._ZN4sycl3_V16detail13code_location7currentEPKcS4_jj,"axG",@progbits,_ZN4sycl3_V16detail13code_location7currentEPKcS4_jj,comdat
	.weak	_ZN4sycl3_V16detail13code_location7currentEPKcS4_jj # -- Begin function _ZN4sycl3_V16detail13code_location7currentEPKcS4_jj
	.p2align	4
	.type	_ZN4sycl3_V16detail13code_location7currentEPKcS4_jj,@function
_ZN4sycl3_V16detail13code_location7currentEPKcS4_jj: # @_ZN4sycl3_V16detail13code_location7currentEPKcS4_jj
	.cfi_startproc
# %bb.0:                                # %entry
	pushq	%rbp
	.cfi_def_cfa_offset 16
	.cfi_offset %rbp, -16
	movq	%rsp, %rbp
	.cfi_def_cfa_register %rbp
	subq	$32, %rsp
	movq	%rdi, %rax
	movq	%rax, -32(%rbp)                 # 8-byte Spill
	movq	%rsi, -8(%rbp)
	movq	%rdx, -16(%rbp)
	movl	%ecx, -20(%rbp)
	movl	%r8d, -24(%rbp)
	movq	-8(%rbp), %rsi
	movq	-16(%rbp), %rdx
	movl	-20(%rbp), %ecx
	movl	-24(%rbp), %r8d
	callq	_ZN4sycl3_V16detail13code_locationC2EPKcS4_jj
	movq	-32(%rbp), %rax                 # 8-byte Reload
	addq	$32, %rsp
	popq	%rbp
	.cfi_def_cfa %rsp, 8
	retq
.Lfunc_end3:
	.size	_ZN4sycl3_V16detail13code_location7currentEPKcS4_jj, .Lfunc_end3-_ZN4sycl3_V16detail13code_location7currentEPKcS4_jj
	.cfi_endproc
                                        # -- End function
	.section	.text._ZN4sycl3_V16bufferImLi1ENS0_6detail17aligned_allocatorImEEvEC2ERKNS0_5rangeILi1EEERKNS0_13property_listENS2_13code_locationE,"axG",@progbits,_ZN4sycl3_V16bufferImLi1ENS0_6detail17aligned_allocatorImEEvEC2ERKNS0_5rangeILi1EEERKNS0_13property_listENS2_13code_locationE,comdat
	.weak	_ZN4sycl3_V16bufferImLi1ENS0_6detail17aligned_allocatorImEEvEC2ERKNS0_5rangeILi1EEERKNS0_13property_listENS2_13code_locationE # -- Begin function _ZN4sycl3_V16bufferImLi1ENS0_6detail17aligned_allocatorImEEvEC2ERKNS0_5rangeILi1EEERKNS0_13property_listENS2_13code_locationE
	.p2align	4
	.type	_ZN4sycl3_V16bufferImLi1ENS0_6detail17aligned_allocatorImEEvEC2ERKNS0_5rangeILi1EEERKNS0_13property_listENS2_13code_locationE,@function
_ZN4sycl3_V16bufferImLi1ENS0_6detail17aligned_allocatorImEEvEC2ERKNS0_5rangeILi1EEERKNS0_13property_listENS2_13code_locationE: # @_ZN4sycl3_V16bufferImLi1ENS0_6detail17aligned_allocatorImEEvEC2ERKNS0_5rangeILi1EEERKNS0_13property_listENS2_13code_locationE
.Lfunc_begin2:
	.cfi_startproc
	.cfi_personality 3, __gxx_personality_v0
	.cfi_lsda 3, .Lexception2
# %bb.0:                                # %entry
	pushq	%rbp
	.cfi_def_cfa_offset 16
	.cfi_offset %rbp, -16
	movq	%rsp, %rbp
	.cfi_def_cfa_register %rbp
	subq	$176, %rsp
	leaq	16(%rbp), %rax
	movq	%rax, -136(%rbp)                # 8-byte Spill
	movq	%rdi, -16(%rbp)
	movq	%rsi, -24(%rbp)
	movq	%rdx, -32(%rbp)
	movq	-16(%rbp), %rax
	movq	%rax, -120(%rbp)                # 8-byte Spill
	movq	-24(%rbp), %rdi
	callq	_ZNK4sycl3_V15rangeILi1EE4sizeEv
	shlq	$3, %rax
	movq	%rax, -112(%rbp)                # 8-byte Spill
	movq	-32(%rbp), %rax
	movq	%rax, -104(%rbp)                # 8-byte Spill
	leaq	-48(%rbp), %rdi
	movq	%rdi, -128(%rbp)                # 8-byte Spill
	callq	_ZSt11make_uniqueIN4sycl3_V16detail25SYCLMemObjAllocatorHolderINS2_17aligned_allocatorImEEmEEJEENSt8__detail9_MakeUniqIT_E15__single_objectEDpOT0_
	movq	-128(%rbp), %rsi                # 8-byte Reload
	leaq	-40(%rbp), %rdi
	movq	%rdi, -96(%rbp)                 # 8-byte Spill
	callq	_ZNSt10unique_ptrIN4sycl3_V16detail19SYCLMemObjAllocatorESt14default_deleteIS3_EEC2INS2_25SYCLMemObjAllocatorHolderINS2_17aligned_allocatorImEEmEES4_ISB_EvEEOS_IT_T0_E
	movq	-120(%rbp), %rdi                # 8-byte Reload
	movq	-112(%rbp), %rsi                # 8-byte Reload
	movq	-104(%rbp), %rcx                # 8-byte Reload
	movq	-96(%rbp), %r8                  # 8-byte Reload
.Ltmp45:                                # EH_LABEL
	movl	$8, %edx
	callq	_ZN4sycl3_V16detail12buffer_plainC2EmmRKNS0_13property_listESt10unique_ptrINS1_19SYCLMemObjAllocatorESt14default_deleteIS7_EE
.Ltmp46:                                # EH_LABEL
	jmp	.LBB4_1
.LBB4_1:                                # %invoke.cont
	leaq	-40(%rbp), %rdi
	callq	_ZNSt10unique_ptrIN4sycl3_V16detail19SYCLMemObjAllocatorESt14default_deleteIS3_EED2Ev
	leaq	-48(%rbp), %rdi
	callq	_ZNSt10unique_ptrIN4sycl3_V16detail25SYCLMemObjAllocatorHolderINS2_17aligned_allocatorImEEmEESt14default_deleteIS6_EED2Ev
	movq	-120(%rbp), %rdi                # 8-byte Reload
	movq	%rdi, %rax
	addq	$16, %rax
	movq	%rax, -152(%rbp)                # 8-byte Spill
	movq	-24(%rbp), %rax
	movq	(%rax), %rax
	movq	%rax, 16(%rdi)
	movq	$0, 24(%rdi)
	movb	$0, 32(%rdi)
	callq	_ZNKSt12__shared_ptrIN4sycl3_V16detail11buffer_implELN9__gnu_cxx12_Lock_policyE2EE3getEv
	movq	%rax, -160(%rbp)                # 8-byte Spill
	movl	$_ZTIm, %edi
	callq	_ZNKSt9type_info4nameEv
	movq	-152(%rbp), %rsi                # 8-byte Reload
	movq	%rax, -144(%rbp)                # 8-byte Spill
.Ltmp48:                                # EH_LABEL
	leaq	-88(%rbp), %rdi
	callq	_ZN4sycl3_V16detail12rangeToArrayERKNS0_5rangeILi1EEE
.Ltmp49:                                # EH_LABEL
	jmp	.LBB4_2
.LBB4_2:                                # %invoke.cont7
	movq	-144(%rbp), %r8                 # 8-byte Reload
	movq	-160(%rbp), %rdx                # 8-byte Reload
	movq	-136(%rbp), %rsi                # 8-byte Reload
	movq	-120(%rbp), %rdi                # 8-byte Reload
	leaq	-88(%rbp), %rax
	movq	%rax, -8(%rbp)
	movq	-8(%rbp), %rcx
.Ltmp50:                                # EH_LABEL
	movq	%rsp, %rax
	movq	%rcx, 8(%rax)
	movl	$8, (%rax)
	xorl	%eax, %eax
	movl	%eax, %ecx
	movl	$1, %r9d
	callq	_ZN4sycl3_V16detail12buffer_plain23constructorNotificationERKNS1_13code_locationEPvPKvS8_jjPm
.Ltmp51:                                # EH_LABEL
	jmp	.LBB4_3
.LBB4_3:                                # %invoke.cont9
	addq	$176, %rsp
	popq	%rbp
	.cfi_def_cfa %rsp, 8
	retq
.LBB4_4:                                # %lpad
	.cfi_def_cfa %rbp, 16
.Ltmp47:                                # EH_LABEL
	movq	%rax, %rcx
	movl	%edx, %eax
	movq	%rcx, -56(%rbp)
	movl	%eax, -60(%rbp)
	leaq	-40(%rbp), %rdi
	callq	_ZNSt10unique_ptrIN4sycl3_V16detail19SYCLMemObjAllocatorESt14default_deleteIS3_EED2Ev
	leaq	-48(%rbp), %rdi
	callq	_ZNSt10unique_ptrIN4sycl3_V16detail25SYCLMemObjAllocatorHolderINS2_17aligned_allocatorImEEmEESt14default_deleteIS6_EED2Ev
	jmp	.LBB4_6
.LBB4_5:                                # %lpad6
.Ltmp52:                                # EH_LABEL
	movq	-120(%rbp), %rdi                # 8-byte Reload
	movq	%rax, %rcx
	movl	%edx, %eax
	movq	%rcx, -56(%rbp)
	movl	%eax, -60(%rbp)
	callq	_ZN4sycl3_V16detail12buffer_plainD2Ev
.LBB4_6:                                # %eh.resume
	movq	-56(%rbp), %rdi
	callq	_Unwind_Resume@PLT
.Lfunc_end4:
	.size	_ZN4sycl3_V16bufferImLi1ENS0_6detail17aligned_allocatorImEEvEC2ERKNS0_5rangeILi1EEERKNS0_13property_listENS2_13code_locationE, .Lfunc_end4-_ZN4sycl3_V16bufferImLi1ENS0_6detail17aligned_allocatorImEEvEC2ERKNS0_5rangeILi1EEERKNS0_13property_listENS2_13code_locationE
	.cfi_endproc
	.section	.gcc_except_table._ZN4sycl3_V16bufferImLi1ENS0_6detail17aligned_allocatorImEEvEC2ERKNS0_5rangeILi1EEERKNS0_13property_listENS2_13code_locationE,"aG",@progbits,_ZN4sycl3_V16bufferImLi1ENS0_6detail17aligned_allocatorImEEvEC2ERKNS0_5rangeILi1EEERKNS0_13property_listENS2_13code_locationE,comdat
	.p2align	2, 0x0
GCC_except_table4:
.Lexception2:
	.byte	255                             # @LPStart Encoding = omit
	.byte	255                             # @TType Encoding = omit
	.byte	1                               # Call site Encoding = uleb128
	.uleb128 .Lcst_end2-.Lcst_begin2
.Lcst_begin2:
	.uleb128 .Lfunc_begin2-.Lfunc_begin2    # >> Call Site 1 <<
	.uleb128 .Ltmp45-.Lfunc_begin2          #   Call between .Lfunc_begin2 and .Ltmp45
	.byte	0                               #     has no landing pad
	.byte	0                               #   On action: cleanup
	.uleb128 .Ltmp45-.Lfunc_begin2          # >> Call Site 2 <<
	.uleb128 .Ltmp46-.Ltmp45                #   Call between .Ltmp45 and .Ltmp46
	.uleb128 .Ltmp47-.Lfunc_begin2          #     jumps to .Ltmp47
	.byte	0                               #   On action: cleanup
	.uleb128 .Ltmp48-.Lfunc_begin2          # >> Call Site 3 <<
	.uleb128 .Ltmp51-.Ltmp48                #   Call between .Ltmp48 and .Ltmp51
	.uleb128 .Ltmp52-.Lfunc_begin2          #     jumps to .Ltmp52
	.byte	0                               #   On action: cleanup
	.uleb128 .Ltmp51-.Lfunc_begin2          # >> Call Site 4 <<
	.uleb128 .Lfunc_end4-.Ltmp51            #   Call between .Ltmp51 and .Lfunc_end4
	.byte	0                               #     has no landing pad
	.byte	0                               #   On action: cleanup
.Lcst_end2:
	.p2align	2, 0x0
                                        # -- End function
	.section	.text._ZN4sycl3_V113property_listD2Ev,"axG",@progbits,_ZN4sycl3_V113property_listD2Ev,comdat
	.weak	_ZN4sycl3_V113property_listD2Ev # -- Begin function _ZN4sycl3_V113property_listD2Ev
	.p2align	4
	.type	_ZN4sycl3_V113property_listD2Ev,@function
_ZN4sycl3_V113property_listD2Ev:        # @_ZN4sycl3_V113property_listD2Ev
	.cfi_startproc
# %bb.0:                                # %entry
	pushq	%rbp
	.cfi_def_cfa_offset 16
	.cfi_offset %rbp, -16
	movq	%rsp, %rbp
	.cfi_def_cfa_register %rbp
	subq	$16, %rsp
	movq	%rdi, -8(%rbp)
	movq	-8(%rbp), %rdi
	callq	_ZN4sycl3_V16detail16PropertyListBaseD2Ev
	addq	$16, %rsp
	popq	%rbp
	.cfi_def_cfa %rsp, 8
	retq
.Lfunc_end5:
	.size	_ZN4sycl3_V113property_listD2Ev, .Lfunc_end5-_ZN4sycl3_V113property_listD2Ev
	.cfi_endproc
                                        # -- End function
	.section	.text._ZN4sycl3_V15queueC2ERKNS0_13property_listE,"axG",@progbits,_ZN4sycl3_V15queueC2ERKNS0_13property_listE,comdat
	.weak	_ZN4sycl3_V15queueC2ERKNS0_13property_listE # -- Begin function _ZN4sycl3_V15queueC2ERKNS0_13property_listE
	.p2align	4
	.type	_ZN4sycl3_V15queueC2ERKNS0_13property_listE,@function
_ZN4sycl3_V15queueC2ERKNS0_13property_listE: # @_ZN4sycl3_V15queueC2ERKNS0_13property_listE
.Lfunc_begin3:
	.cfi_startproc
	.cfi_personality 3, __gxx_personality_v0
	.cfi_lsda 3, .Lexception3
# %bb.0:                                # %entry
	pushq	%rbp
	.cfi_def_cfa_offset 16
	.cfi_offset %rbp, -16
	movq	%rsp, %rbp
	.cfi_def_cfa_register %rbp
	subq	$80, %rsp
	movq	%rdi, -8(%rbp)
	movq	%rsi, -16(%rbp)
	movq	-8(%rbp), %rax
	movq	%rax, -80(%rbp)                 # 8-byte Spill
	movl	$_ZN4sycl3_V16detail19defaultAsyncHandlerENS0_14exception_listE, %esi
	leaq	-48(%rbp), %rdi
	movq	%rdi, -72(%rbp)                 # 8-byte Spill
	callq	_ZNSt8functionIFvN4sycl3_V114exception_listEEEC2IRS3_vEEOT_
	movq	-80(%rbp), %rdi                 # 8-byte Reload
	movq	-72(%rbp), %rdx                 # 8-byte Reload
	movq	-16(%rbp), %rcx
.Ltmp53:                                # EH_LABEL
	movl	$_ZN4sycl3_V118default_selector_vERKNS0_6deviceE, %esi
	callq	_ZN4sycl3_V15queueC2IFiRKNS0_6deviceEEvEERKT_RKSt8functionIFvNS0_14exception_listEEERKNS0_13property_listE
.Ltmp54:                                # EH_LABEL
	jmp	.LBB6_1
.LBB6_1:                                # %invoke.cont
	leaq	-48(%rbp), %rdi
	callq	_ZNSt8functionIFvN4sycl3_V114exception_listEEED2Ev
	addq	$80, %rsp
	popq	%rbp
	.cfi_def_cfa %rsp, 8
	retq
.LBB6_2:                                # %lpad
	.cfi_def_cfa %rbp, 16
.Ltmp55:                                # EH_LABEL
	movq	%rax, %rcx
	movl	%edx, %eax
	movq	%rcx, -56(%rbp)
	movl	%eax, -60(%rbp)
	leaq	-48(%rbp), %rdi
	callq	_ZNSt8functionIFvN4sycl3_V114exception_listEEED2Ev
# %bb.3:                                # %eh.resume
	movq	-56(%rbp), %rdi
	callq	_Unwind_Resume@PLT
.Lfunc_end6:
	.size	_ZN4sycl3_V15queueC2ERKNS0_13property_listE, .Lfunc_end6-_ZN4sycl3_V15queueC2ERKNS0_13property_listE
	.cfi_endproc
	.section	.gcc_except_table._ZN4sycl3_V15queueC2ERKNS0_13property_listE,"aG",@progbits,_ZN4sycl3_V15queueC2ERKNS0_13property_listE,comdat
	.p2align	2, 0x0
GCC_except_table6:
.Lexception3:
	.byte	255                             # @LPStart Encoding = omit
	.byte	255                             # @TType Encoding = omit
	.byte	1                               # Call site Encoding = uleb128
	.uleb128 .Lcst_end3-.Lcst_begin3
.Lcst_begin3:
	.uleb128 .Ltmp53-.Lfunc_begin3          # >> Call Site 1 <<
	.uleb128 .Ltmp54-.Ltmp53                #   Call between .Ltmp53 and .Ltmp54
	.uleb128 .Ltmp55-.Lfunc_begin3          #     jumps to .Ltmp55
	.byte	0                               #   On action: cleanup
	.uleb128 .Ltmp54-.Lfunc_begin3          # >> Call Site 2 <<
	.uleb128 .Lfunc_end6-.Ltmp54            #   Call between .Ltmp54 and .Lfunc_end6
	.byte	0                               #     has no landing pad
	.byte	0                               #   On action: cleanup
.Lcst_end3:
	.p2align	2, 0x0
                                        # -- End function
	.section	.text._ZNK4sycl3_V16bufferImLi1ENS0_6detail17aligned_allocatorImEEvE4sizeEv,"axG",@progbits,_ZNK4sycl3_V16bufferImLi1ENS0_6detail17aligned_allocatorImEEvE4sizeEv,comdat
	.weak	_ZNK4sycl3_V16bufferImLi1ENS0_6detail17aligned_allocatorImEEvE4sizeEv # -- Begin function _ZNK4sycl3_V16bufferImLi1ENS0_6detail17aligned_allocatorImEEvE4sizeEv
	.p2align	4
	.type	_ZNK4sycl3_V16bufferImLi1ENS0_6detail17aligned_allocatorImEEvE4sizeEv,@function
_ZNK4sycl3_V16bufferImLi1ENS0_6detail17aligned_allocatorImEEvE4sizeEv: # @_ZNK4sycl3_V16bufferImLi1ENS0_6detail17aligned_allocatorImEEvE4sizeEv
	.cfi_startproc
# %bb.0:                                # %entry
	pushq	%rbp
	.cfi_def_cfa_offset 16
	.cfi_offset %rbp, -16
	movq	%rsp, %rbp
	.cfi_def_cfa_register %rbp
	subq	$16, %rsp
	movq	%rdi, -8(%rbp)
	movq	-8(%rbp), %rdi
	addq	$16, %rdi
	callq	_ZNK4sycl3_V15rangeILi1EE4sizeEv
	addq	$16, %rsp
	popq	%rbp
	.cfi_def_cfa %rsp, 8
	retq
.Lfunc_end7:
	.size	_ZNK4sycl3_V16bufferImLi1ENS0_6detail17aligned_allocatorImEEvE4sizeEv, .Lfunc_end7-_ZNK4sycl3_V16bufferImLi1ENS0_6detail17aligned_allocatorImEEvE4sizeEv
	.cfi_endproc
                                        # -- End function
	.text
	.p2align	4                               # -- Begin function _ZN4sycl3_V15queue6submitIZ4mainEUlRNS0_7handlerEE_EENSt9enable_ifIXsr3stdE16is_invocable_r_vIvT_S4_EENS0_5eventEE4typeES7_RKNS0_6detail13code_locationE
	.type	_ZN4sycl3_V15queue6submitIZ4mainEUlRNS0_7handlerEE_EENSt9enable_ifIXsr3stdE16is_invocable_r_vIvT_S4_EENS0_5eventEE4typeES7_RKNS0_6detail13code_locationE,@function
_ZN4sycl3_V15queue6submitIZ4mainEUlRNS0_7handlerEE_EENSt9enable_ifIXsr3stdE16is_invocable_r_vIvT_S4_EENS0_5eventEE4typeES7_RKNS0_6detail13code_locationE: # @_ZN4sycl3_V15queue6submitIZ4mainEUlRNS0_7handlerEE_EENSt9enable_ifIXsr3stdE16is_invocable_r_vIvT_S4_EENS0_5eventEE4typeES7_RKNS0_6detail13code_locationE
	.cfi_startproc
# %bb.0:                                # %entry
	pushq	%rbp
	.cfi_def_cfa_offset 16
	.cfi_offset %rbp, -16
	movq	%rsp, %rbp
	.cfi_def_cfa_register %rbp
	subq	$96, %rsp
	movq	%rdi, -88(%rbp)                 # 8-byte Spill
	movq	%rdi, %rax
	movq	%rax, -72(%rbp)                 # 8-byte Spill
	movq	%rdi, -8(%rbp)
	movq	%rdx, -24(%rbp)
	movq	%rcx, -16(%rbp)
	movq	%rsi, -32(%rbp)
	movq	%r8, -40(%rbp)
	movq	-32(%rbp), %rax
	movq	%rax, -80(%rbp)                 # 8-byte Spill
	leaq	-64(%rbp), %rdi
	leaq	-24(%rbp), %rsi
	callq	_ZN4sycl3_V16detail19type_erased_cgfo_tyC2IRZ4mainEUlRNS0_7handlerEE_EEOT_
	movq	-88(%rbp), %rdi                 # 8-byte Reload
	movq	-80(%rbp), %rsi                 # 8-byte Reload
	movq	-40(%rbp), %rcx
	leaq	-64(%rbp), %rdx
	callq	_ZNK4sycl3_V15queue17submit_with_eventINS0_3ext6oneapi12experimental10propertiesINS5_6detail20properties_type_listIJEEEEEEENS0_5eventET_RKNS0_6detail19type_erased_cgfo_tyERKNSD_13code_locationE
	movq	-72(%rbp), %rax                 # 8-byte Reload
	addq	$96, %rsp
	popq	%rbp
	.cfi_def_cfa %rsp, 8
	retq
.Lfunc_end8:
	.size	_ZN4sycl3_V15queue6submitIZ4mainEUlRNS0_7handlerEE_EENSt9enable_ifIXsr3stdE16is_invocable_r_vIvT_S4_EENS0_5eventEE4typeES7_RKNS0_6detail13code_locationE, .Lfunc_end8-_ZN4sycl3_V15queue6submitIZ4mainEUlRNS0_7handlerEE_EENSt9enable_ifIXsr3stdE16is_invocable_r_vIvT_S4_EENS0_5eventEE4typeES7_RKNS0_6detail13code_locationE
	.cfi_endproc
                                        # -- End function
	.section	.text._ZN4sycl3_V15eventD2Ev,"axG",@progbits,_ZN4sycl3_V15eventD2Ev,comdat
	.weak	_ZN4sycl3_V15eventD2Ev          # -- Begin function _ZN4sycl3_V15eventD2Ev
	.p2align	4
	.type	_ZN4sycl3_V15eventD2Ev,@function
_ZN4sycl3_V15eventD2Ev:                 # @_ZN4sycl3_V15eventD2Ev
	.cfi_startproc
# %bb.0:                                # %entry
	pushq	%rbp
	.cfi_def_cfa_offset 16
	.cfi_offset %rbp, -16
	movq	%rsp, %rbp
	.cfi_def_cfa_register %rbp
	subq	$16, %rsp
	movq	%rdi, -8(%rbp)
	movq	-8(%rbp), %rdi
	callq	_ZNSt10shared_ptrIN4sycl3_V16detail10event_implEED2Ev
	addq	$16, %rsp
	popq	%rbp
	.cfi_def_cfa %rsp, 8
	retq
.Lfunc_end9:
	.size	_ZN4sycl3_V15eventD2Ev, .Lfunc_end9-_ZN4sycl3_V15eventD2Ev
	.cfi_endproc
                                        # -- End function
	.section	.text._ZN4sycl3_V113host_accessorImLi1ELNS0_6access4modeE1024EEC2ImLi1ENS0_6detail17aligned_allocatorImEEvEERNS0_6bufferIT_XT0_ET1_NSt9enable_ifIXaagtT0_Li0EleT0_Li3EEvE4typeEEENS0_10mode_tag_tILS3_1024EEERKNS0_13property_listENS6_13code_locationE,"axG",@progbits,_ZN4sycl3_V113host_accessorImLi1ELNS0_6access4modeE1024EEC2ImLi1ENS0_6detail17aligned_allocatorImEEvEERNS0_6bufferIT_XT0_ET1_NSt9enable_ifIXaagtT0_Li0EleT0_Li3EEvE4typeEEENS0_10mode_tag_tILS3_1024EEERKNS0_13property_listENS6_13code_locationE,comdat
	.weak	_ZN4sycl3_V113host_accessorImLi1ELNS0_6access4modeE1024EEC2ImLi1ENS0_6detail17aligned_allocatorImEEvEERNS0_6bufferIT_XT0_ET1_NSt9enable_ifIXaagtT0_Li0EleT0_Li3EEvE4typeEEENS0_10mode_tag_tILS3_1024EEERKNS0_13property_listENS6_13code_locationE # -- Begin function _ZN4sycl3_V113host_accessorImLi1ELNS0_6access4modeE1024EEC2ImLi1ENS0_6detail17aligned_allocatorImEEvEERNS0_6bufferIT_XT0_ET1_NSt9enable_ifIXaagtT0_Li0EleT0_Li3EEvE4typeEEENS0_10mode_tag_tILS3_1024EEERKNS0_13property_listENS6_13code_locationE
	.p2align	4
	.type	_ZN4sycl3_V113host_accessorImLi1ELNS0_6access4modeE1024EEC2ImLi1ENS0_6detail17aligned_allocatorImEEvEERNS0_6bufferIT_XT0_ET1_NSt9enable_ifIXaagtT0_Li0EleT0_Li3EEvE4typeEEENS0_10mode_tag_tILS3_1024EEERKNS0_13property_listENS6_13code_locationE,@function
_ZN4sycl3_V113host_accessorImLi1ELNS0_6access4modeE1024EEC2ImLi1ENS0_6detail17aligned_allocatorImEEvEERNS0_6bufferIT_XT0_ET1_NSt9enable_ifIXaagtT0_Li0EleT0_Li3EEvE4typeEEENS0_10mode_tag_tILS3_1024EEERKNS0_13property_listENS6_13code_locationE: # @_ZN4sycl3_V113host_accessorImLi1ELNS0_6access4modeE1024EEC2ImLi1ENS0_6detail17aligned_allocatorImEEvEERNS0_6bufferIT_XT0_ET1_NSt9enable_ifIXaagtT0_Li0EleT0_Li3EEvE4typeEEENS0_10mode_tag_tILS3_1024EEERKNS0_13property_listENS6_13code_locationE
	.cfi_startproc
# %bb.0:                                # %entry
	pushq	%rbp
	.cfi_def_cfa_offset 16
	.cfi_offset %rbp, -16
	movq	%rsp, %rbp
	.cfi_def_cfa_register %rbp
	subq	$96, %rsp
	leaq	16(%rbp), %rax
	movq	%rdi, -16(%rbp)
	movq	%rsi, -24(%rbp)
	movq	%rdx, -32(%rbp)
	movq	-16(%rbp), %rdi
	movq	-24(%rbp), %rsi
	movq	-32(%rbp), %rdx
	movq	(%rax), %rcx
	movq	%rcx, -64(%rbp)
	movq	8(%rax), %rcx
	movq	%rcx, -56(%rbp)
	movq	16(%rax), %rcx
	movq	%rcx, -48(%rbp)
	movq	24(%rax), %rax
	movq	%rax, -40(%rbp)
	leaq	-64(%rbp), %rax
	movq	(%rax), %rcx
	movq	%rcx, (%rsp)
	movq	8(%rax), %rcx
	movq	%rcx, 8(%rsp)
	movq	16(%rax), %rcx
	movq	%rcx, 16(%rsp)
	movq	24(%rax), %rax
	movq	%rax, 24(%rsp)
	callq	_ZN4sycl3_V113host_accessorImLi1ELNS0_6access4modeE1024EEC2ImLi1ENS0_6detail17aligned_allocatorImEEvEERNS0_6bufferIT_XT0_ET1_NSt9enable_ifIXaagtT0_Li0EleT0_Li3EEvE4typeEEERKNS0_13property_listENS6_13code_locationE
	addq	$96, %rsp
	popq	%rbp
	.cfi_def_cfa %rsp, 8
	retq
.Lfunc_end10:
	.size	_ZN4sycl3_V113host_accessorImLi1ELNS0_6access4modeE1024EEC2ImLi1ENS0_6detail17aligned_allocatorImEEvEERNS0_6bufferIT_XT0_ET1_NSt9enable_ifIXaagtT0_Li0EleT0_Li3EEvE4typeEEENS0_10mode_tag_tILS3_1024EEERKNS0_13property_listENS6_13code_locationE, .Lfunc_end10-_ZN4sycl3_V113host_accessorImLi1ELNS0_6access4modeE1024EEC2ImLi1ENS0_6detail17aligned_allocatorImEEvEERNS0_6bufferIT_XT0_ET1_NSt9enable_ifIXaagtT0_Li0EleT0_Li3EEvE4typeEEENS0_10mode_tag_tILS3_1024EEERKNS0_13property_listENS6_13code_locationE
	.cfi_endproc
                                        # -- End function
	.section	.text._ZNK4sycl3_V18accessorImLi1ELNS0_6access4modeE1024ELNS2_6targetE2018ELNS2_11placeholderE0ENS0_3ext6oneapi22accessor_property_listIJEEEEixILi1EvEERKmNS0_2idILi1EEE,"axG",@progbits,_ZNK4sycl3_V18accessorImLi1ELNS0_6access4modeE1024ELNS2_6targetE2018ELNS2_11placeholderE0ENS0_3ext6oneapi22accessor_property_listIJEEEEixILi1EvEERKmNS0_2idILi1EEE,comdat
	.weak	_ZNK4sycl3_V18accessorImLi1ELNS0_6access4modeE1024ELNS2_6targetE2018ELNS2_11placeholderE0ENS0_3ext6oneapi22accessor_property_listIJEEEEixILi1EvEERKmNS0_2idILi1EEE # -- Begin function _ZNK4sycl3_V18accessorImLi1ELNS0_6access4modeE1024ELNS2_6targetE2018ELNS2_11placeholderE0ENS0_3ext6oneapi22accessor_property_listIJEEEEixILi1EvEERKmNS0_2idILi1EEE
	.p2align	4
	.type	_ZNK4sycl3_V18accessorImLi1ELNS0_6access4modeE1024ELNS2_6targetE2018ELNS2_11placeholderE0ENS0_3ext6oneapi22accessor_property_listIJEEEEixILi1EvEERKmNS0_2idILi1EEE,@function
_ZNK4sycl3_V18accessorImLi1ELNS0_6access4modeE1024ELNS2_6targetE2018ELNS2_11placeholderE0ENS0_3ext6oneapi22accessor_property_listIJEEEEixILi1EvEERKmNS0_2idILi1EEE: # @_ZNK4sycl3_V18accessorImLi1ELNS0_6access4modeE1024ELNS2_6targetE2018ELNS2_11placeholderE0ENS0_3ext6oneapi22accessor_property_listIJEEEEixILi1EvEERKmNS0_2idILi1EEE
	.cfi_startproc
# %bb.0:                                # %entry
	pushq	%rbp
	.cfi_def_cfa_offset 16
	.cfi_offset %rbp, -16
	movq	%rsp, %rbp
	.cfi_def_cfa_register %rbp
	subq	$48, %rsp
	movq	%rsi, -8(%rbp)
	movq	%rdi, -16(%rbp)
	movq	-16(%rbp), %rdi
	movq	%rdi, -40(%rbp)                 # 8-byte Spill
	movq	-8(%rbp), %rax
	movq	%rax, -32(%rbp)
	movq	-32(%rbp), %rsi
	callq	_ZNK4sycl3_V18accessorImLi1ELNS0_6access4modeE1024ELNS2_6targetE2018ELNS2_11placeholderE0ENS0_3ext6oneapi22accessor_property_listIJEEEE14getLinearIndexILi1EEEmNS0_2idIXT_EEE
	movq	-40(%rbp), %rdi                 # 8-byte Reload
	movq	%rax, -24(%rbp)
	callq	_ZNK4sycl3_V18accessorImLi1ELNS0_6access4modeE1024ELNS2_6targetE2018ELNS2_11placeholderE0ENS0_3ext6oneapi22accessor_property_listIJEEEE15getQualifiedPtrEv
	movq	-24(%rbp), %rcx
	shlq	$3, %rcx
	addq	%rcx, %rax
	addq	$48, %rsp
	popq	%rbp
	.cfi_def_cfa %rsp, 8
	retq
.Lfunc_end11:
	.size	_ZNK4sycl3_V18accessorImLi1ELNS0_6access4modeE1024ELNS2_6targetE2018ELNS2_11placeholderE0ENS0_3ext6oneapi22accessor_property_listIJEEEEixILi1EvEERKmNS0_2idILi1EEE, .Lfunc_end11-_ZNK4sycl3_V18accessorImLi1ELNS0_6access4modeE1024ELNS2_6targetE2018ELNS2_11placeholderE0ENS0_3ext6oneapi22accessor_property_listIJEEEEixILi1EvEERKmNS0_2idILi1EEE
	.cfi_endproc
                                        # -- End function
	.section	.text._ZN4sycl3_V12idILi1EEC2ILi1EEENSt9enable_ifIXeqT_Li1EEmE4typeE,"axG",@progbits,_ZN4sycl3_V12idILi1EEC2ILi1EEENSt9enable_ifIXeqT_Li1EEmE4typeE,comdat
	.weak	_ZN4sycl3_V12idILi1EEC2ILi1EEENSt9enable_ifIXeqT_Li1EEmE4typeE # -- Begin function _ZN4sycl3_V12idILi1EEC2ILi1EEENSt9enable_ifIXeqT_Li1EEmE4typeE
	.p2align	4
	.type	_ZN4sycl3_V12idILi1EEC2ILi1EEENSt9enable_ifIXeqT_Li1EEmE4typeE,@function
_ZN4sycl3_V12idILi1EEC2ILi1EEENSt9enable_ifIXeqT_Li1EEmE4typeE: # @_ZN4sycl3_V12idILi1EEC2ILi1EEENSt9enable_ifIXeqT_Li1EEmE4typeE
	.cfi_startproc
# %bb.0:                                # %entry
	pushq	%rbp
	.cfi_def_cfa_offset 16
	.cfi_offset %rbp, -16
	movq	%rsp, %rbp
	.cfi_def_cfa_register %rbp
	subq	$16, %rsp
	movq	%rdi, -8(%rbp)
	movq	%rsi, -16(%rbp)
	movq	-8(%rbp), %rdi
	movq	-16(%rbp), %rsi
	callq	_ZN4sycl3_V16detail5arrayILi1EEC2ILi1EEENSt9enable_ifIXeqT_Li1EEmE4typeE
	addq	$16, %rsp
	popq	%rbp
	.cfi_def_cfa %rsp, 8
	retq
.Lfunc_end12:
	.size	_ZN4sycl3_V12idILi1EEC2ILi1EEENSt9enable_ifIXeqT_Li1EEmE4typeE, .Lfunc_end12-_ZN4sycl3_V12idILi1EEC2ILi1EEENSt9enable_ifIXeqT_Li1EEmE4typeE
	.cfi_endproc
                                        # -- End function
	.section	.text._ZN4sycl3_V113host_accessorImLi1ELNS0_6access4modeE1024EED2Ev,"axG",@progbits,_ZN4sycl3_V113host_accessorImLi1ELNS0_6access4modeE1024EED2Ev,comdat
	.weak	_ZN4sycl3_V113host_accessorImLi1ELNS0_6access4modeE1024EED2Ev # -- Begin function _ZN4sycl3_V113host_accessorImLi1ELNS0_6access4modeE1024EED2Ev
	.p2align	4
	.type	_ZN4sycl3_V113host_accessorImLi1ELNS0_6access4modeE1024EED2Ev,@function
_ZN4sycl3_V113host_accessorImLi1ELNS0_6access4modeE1024EED2Ev: # @_ZN4sycl3_V113host_accessorImLi1ELNS0_6access4modeE1024EED2Ev
	.cfi_startproc
# %bb.0:                                # %entry
	pushq	%rbp
	.cfi_def_cfa_offset 16
	.cfi_offset %rbp, -16
	movq	%rsp, %rbp
	.cfi_def_cfa_register %rbp
	subq	$16, %rsp
	movq	%rdi, -8(%rbp)
	movq	-8(%rbp), %rdi
	callq	_ZN4sycl3_V18accessorImLi1ELNS0_6access4modeE1024ELNS2_6targetE2018ELNS2_11placeholderE0ENS0_3ext6oneapi22accessor_property_listIJEEEED2Ev
	addq	$16, %rsp
	popq	%rbp
	.cfi_def_cfa %rsp, 8
	retq
.Lfunc_end13:
	.size	_ZN4sycl3_V113host_accessorImLi1ELNS0_6access4modeE1024EED2Ev, .Lfunc_end13-_ZN4sycl3_V113host_accessorImLi1ELNS0_6access4modeE1024EED2Ev
	.cfi_endproc
                                        # -- End function
	.section	.text._ZN4sycl3_V15queueD2Ev,"axG",@progbits,_ZN4sycl3_V15queueD2Ev,comdat
	.weak	_ZN4sycl3_V15queueD2Ev          # -- Begin function _ZN4sycl3_V15queueD2Ev
	.p2align	4
	.type	_ZN4sycl3_V15queueD2Ev,@function
_ZN4sycl3_V15queueD2Ev:                 # @_ZN4sycl3_V15queueD2Ev
	.cfi_startproc
# %bb.0:                                # %entry
	pushq	%rbp
	.cfi_def_cfa_offset 16
	.cfi_offset %rbp, -16
	movq	%rsp, %rbp
	.cfi_def_cfa_register %rbp
	subq	$16, %rsp
	movq	%rdi, -8(%rbp)
	movq	-8(%rbp), %rdi
	callq	_ZNSt10shared_ptrIN4sycl3_V16detail10queue_implEED2Ev
	addq	$16, %rsp
	popq	%rbp
	.cfi_def_cfa %rsp, 8
	retq
.Lfunc_end14:
	.size	_ZN4sycl3_V15queueD2Ev, .Lfunc_end14-_ZN4sycl3_V15queueD2Ev
	.cfi_endproc
                                        # -- End function
	.section	.text._ZN4sycl3_V16bufferImLi1ENS0_6detail17aligned_allocatorImEEvED2Ev,"axG",@progbits,_ZN4sycl3_V16bufferImLi1ENS0_6detail17aligned_allocatorImEEvED2Ev,comdat
	.weak	_ZN4sycl3_V16bufferImLi1ENS0_6detail17aligned_allocatorImEEvED2Ev # -- Begin function _ZN4sycl3_V16bufferImLi1ENS0_6detail17aligned_allocatorImEEvED2Ev
	.p2align	4
	.type	_ZN4sycl3_V16bufferImLi1ENS0_6detail17aligned_allocatorImEEvED2Ev,@function
_ZN4sycl3_V16bufferImLi1ENS0_6detail17aligned_allocatorImEEvED2Ev: # @_ZN4sycl3_V16bufferImLi1ENS0_6detail17aligned_allocatorImEEvED2Ev
.Lfunc_begin4:
	.cfi_startproc
	.cfi_personality 3, __gxx_personality_v0
	.cfi_lsda 3, .Lexception4
# %bb.0:                                # %entry
	pushq	%rbp
	.cfi_def_cfa_offset 16
	.cfi_offset %rbp, -16
	movq	%rsp, %rbp
	.cfi_def_cfa_register %rbp
	subq	$64, %rsp
	movq	%rdi, -8(%rbp)
	movq	-8(%rbp), %rdi
	movq	%rdi, -40(%rbp)                 # 8-byte Spill
.Ltmp56:                                # EH_LABEL
	callq	_ZNK4sycl3_V16detail12buffer_plain13handleReleaseEv
.Ltmp57:                                # EH_LABEL
	jmp	.LBB15_1
.LBB15_1:                               # %invoke.cont
	jmp	.LBB15_9
.LBB15_2:                               # %lpad
.Ltmp58:                                # EH_LABEL
	movq	%rax, %rcx
	movl	%edx, %eax
	movq	%rcx, -16(%rbp)
	movl	%eax, -20(%rbp)
# %bb.3:                                # %catch.dispatch
	movl	-20(%rbp), %eax
	movl	$2, %ecx
	cmpl	%ecx, %eax
	jne	.LBB15_11
# %bb.4:                                # %catch
	movq	-16(%rbp), %rdi
	callq	__cxa_begin_catch
	movq	%rax, -32(%rbp)
.Ltmp59:                                # EH_LABEL
	movl	$_ZSt4cerr, %edi
	movl	$.L.str.8, %esi
	callq	_ZStlsISt11char_traitsIcEERSt13basic_ostreamIcT_ES5_PKc
.Ltmp60:                                # EH_LABEL
	movq	%rax, -48(%rbp)                 # 8-byte Spill
	jmp	.LBB15_5
.LBB15_5:                               # %invoke.cont2
.Ltmp61:                                # EH_LABEL
	movq	-48(%rbp), %rdi                 # 8-byte Reload
	movl	$.L.str.9, %esi
	callq	_ZStlsISt11char_traitsIcEERSt13basic_ostreamIcT_ES5_PKc
.Ltmp62:                                # EH_LABEL
	movq	%rax, -56(%rbp)                 # 8-byte Spill
	jmp	.LBB15_6
.LBB15_6:                               # %invoke.cont3
	movq	-32(%rbp), %rdi
	movq	(%rdi), %rax
	movq	16(%rax), %rax
	callq	*%rax
	movq	-56(%rbp), %rdi                 # 8-byte Reload
	movq	%rax, %rsi
.Ltmp63:                                # EH_LABEL
	callq	_ZStlsISt11char_traitsIcEERSt13basic_ostreamIcT_ES5_PKc
.Ltmp64:                                # EH_LABEL
	movq	%rax, -64(%rbp)                 # 8-byte Spill
	jmp	.LBB15_7
.LBB15_7:                               # %invoke.cont6
.Ltmp65:                                # EH_LABEL
	movq	-64(%rbp), %rdi                 # 8-byte Reload
	movl	$_ZSt4endlIcSt11char_traitsIcEERSt13basic_ostreamIT_T0_ES6_, %esi
	callq	_ZNSolsEPFRSoS_E
.Ltmp66:                                # EH_LABEL
	jmp	.LBB15_8
.LBB15_8:                               # %invoke.cont8
	movabsq	$.L.str.10, %rdi
	movabsq	$.L.str.11, %rsi
	movl	$491, %edx                      # imm = 0x1EB
	movabsq	$.L__PRETTY_FUNCTION__._ZN4sycl3_V16bufferImLi1ENS0_6detail17aligned_allocatorImEEvED2Ev, %rcx
	callq	__assert_fail
.LBB15_9:                               # %try.cont
	movq	-40(%rbp), %rdi                 # 8-byte Reload
	callq	_ZN4sycl3_V16detail12buffer_plainD2Ev
	addq	$64, %rsp
	popq	%rbp
	.cfi_def_cfa %rsp, 8
	retq
.LBB15_10:                              # %terminate.lpad
	.cfi_def_cfa %rbp, 16
.Ltmp67:                                # EH_LABEL
	movq	%rax, %rdi
                                        # kill: def $eax killed $edx killed $rdx
	callq	__clang_call_terminate
.LBB15_11:                              # %terminate.handler
	movq	-16(%rbp), %rdi
	callq	__clang_call_terminate
.Lfunc_end15:
	.size	_ZN4sycl3_V16bufferImLi1ENS0_6detail17aligned_allocatorImEEvED2Ev, .Lfunc_end15-_ZN4sycl3_V16bufferImLi1ENS0_6detail17aligned_allocatorImEEvED2Ev
	.cfi_endproc
	.section	.gcc_except_table._ZN4sycl3_V16bufferImLi1ENS0_6detail17aligned_allocatorImEEvED2Ev,"aG",@progbits,_ZN4sycl3_V16bufferImLi1ENS0_6detail17aligned_allocatorImEEvED2Ev,comdat
	.p2align	2, 0x0
GCC_except_table15:
.Lexception4:
	.byte	255                             # @LPStart Encoding = omit
	.byte	3                               # @TType Encoding = udata4
	.uleb128 .Lttbase0-.Lttbaseref0
.Lttbaseref0:
	.byte	1                               # Call site Encoding = uleb128
	.uleb128 .Lcst_end4-.Lcst_begin4
.Lcst_begin4:
	.uleb128 .Ltmp56-.Lfunc_begin4          # >> Call Site 1 <<
	.uleb128 .Ltmp57-.Ltmp56                #   Call between .Ltmp56 and .Ltmp57
	.uleb128 .Ltmp58-.Lfunc_begin4          #     jumps to .Ltmp58
	.byte	3                               #   On action: 2
	.uleb128 .Ltmp57-.Lfunc_begin4          # >> Call Site 2 <<
	.uleb128 .Ltmp59-.Ltmp57                #   Call between .Ltmp57 and .Ltmp59
	.byte	0                               #     has no landing pad
	.byte	0                               #   On action: cleanup
	.uleb128 .Ltmp59-.Lfunc_begin4          # >> Call Site 3 <<
	.uleb128 .Ltmp62-.Ltmp59                #   Call between .Ltmp59 and .Ltmp62
	.uleb128 .Ltmp67-.Lfunc_begin4          #     jumps to .Ltmp67
	.byte	1                               #   On action: 1
	.uleb128 .Ltmp62-.Lfunc_begin4          # >> Call Site 4 <<
	.uleb128 .Ltmp63-.Ltmp62                #   Call between .Ltmp62 and .Ltmp63
	.byte	0                               #     has no landing pad
	.byte	0                               #   On action: cleanup
	.uleb128 .Ltmp63-.Lfunc_begin4          # >> Call Site 5 <<
	.uleb128 .Ltmp66-.Ltmp63                #   Call between .Ltmp63 and .Ltmp66
	.uleb128 .Ltmp67-.Lfunc_begin4          #     jumps to .Ltmp67
	.byte	1                               #   On action: 1
.Lcst_end4:
	.byte	1                               # >> Action Record 1 <<
                                        #   Catch TypeInfo 1
	.byte	0                               #   No further actions
	.byte	2                               # >> Action Record 2 <<
                                        #   Catch TypeInfo 2
	.byte	125                             #   Continue to action 1
	.p2align	2, 0x0
                                        # >> Catch TypeInfos <<
	.long	_ZTISt9exception                # TypeInfo 2
	.long	0                               # TypeInfo 1
.Lttbase0:
	.p2align	2, 0x0
                                        # -- End function
	.section	.text._ZN4sycl3_V16detail13code_locationC2EPKcS4_jj,"axG",@progbits,_ZN4sycl3_V16detail13code_locationC2EPKcS4_jj,comdat
	.weak	_ZN4sycl3_V16detail13code_locationC2EPKcS4_jj # -- Begin function _ZN4sycl3_V16detail13code_locationC2EPKcS4_jj
	.p2align	4
	.type	_ZN4sycl3_V16detail13code_locationC2EPKcS4_jj,@function
_ZN4sycl3_V16detail13code_locationC2EPKcS4_jj: # @_ZN4sycl3_V16detail13code_locationC2EPKcS4_jj
	.cfi_startproc
# %bb.0:                                # %entry
	pushq	%rbp
	.cfi_def_cfa_offset 16
	.cfi_offset %rbp, -16
	movq	%rsp, %rbp
	.cfi_def_cfa_register %rbp
	movq	%rdi, -8(%rbp)
	movq	%rsi, -16(%rbp)
	movq	%rdx, -24(%rbp)
	movl	%ecx, -28(%rbp)
	movl	%r8d, -32(%rbp)
	movq	-8(%rbp), %rax
	movq	-16(%rbp), %rcx
	movq	%rcx, (%rax)
	movq	-24(%rbp), %rcx
	movq	%rcx, 8(%rax)
	movl	-28(%rbp), %ecx
                                        # kill: def $rcx killed $ecx
	movq	%rcx, 16(%rax)
	movl	-32(%rbp), %ecx
                                        # kill: def $rcx killed $ecx
	movq	%rcx, 24(%rax)
	popq	%rbp
	.cfi_def_cfa %rsp, 8
	retq
.Lfunc_end16:
	.size	_ZN4sycl3_V16detail13code_locationC2EPKcS4_jj, .Lfunc_end16-_ZN4sycl3_V16detail13code_locationC2EPKcS4_jj
	.cfi_endproc
                                        # -- End function
	.section	.text._ZN4sycl3_V16detail16PropertyListBaseD2Ev,"axG",@progbits,_ZN4sycl3_V16detail16PropertyListBaseD2Ev,comdat
	.weak	_ZN4sycl3_V16detail16PropertyListBaseD2Ev # -- Begin function _ZN4sycl3_V16detail16PropertyListBaseD2Ev
	.p2align	4
	.type	_ZN4sycl3_V16detail16PropertyListBaseD2Ev,@function
_ZN4sycl3_V16detail16PropertyListBaseD2Ev: # @_ZN4sycl3_V16detail16PropertyListBaseD2Ev
	.cfi_startproc
# %bb.0:                                # %entry
	pushq	%rbp
	.cfi_def_cfa_offset 16
	.cfi_offset %rbp, -16
	movq	%rsp, %rbp
	.cfi_def_cfa_register %rbp
	subq	$16, %rsp
	movq	%rdi, -8(%rbp)
	movq	-8(%rbp), %rdi
	addq	$8, %rdi
	callq	_ZNSt6vectorISt10shared_ptrIN4sycl3_V16detail20PropertyWithDataBaseEESaIS5_EED2Ev
	addq	$16, %rsp
	popq	%rbp
	.cfi_def_cfa %rsp, 8
	retq
.Lfunc_end17:
	.size	_ZN4sycl3_V16detail16PropertyListBaseD2Ev, .Lfunc_end17-_ZN4sycl3_V16detail16PropertyListBaseD2Ev
	.cfi_endproc
                                        # -- End function
	.section	.text._ZNSt6vectorISt10shared_ptrIN4sycl3_V16detail20PropertyWithDataBaseEESaIS5_EED2Ev,"axG",@progbits,_ZNSt6vectorISt10shared_ptrIN4sycl3_V16detail20PropertyWithDataBaseEESaIS5_EED2Ev,comdat
	.weak	_ZNSt6vectorISt10shared_ptrIN4sycl3_V16detail20PropertyWithDataBaseEESaIS5_EED2Ev # -- Begin function _ZNSt6vectorISt10shared_ptrIN4sycl3_V16detail20PropertyWithDataBaseEESaIS5_EED2Ev
	.p2align	4
	.type	_ZNSt6vectorISt10shared_ptrIN4sycl3_V16detail20PropertyWithDataBaseEESaIS5_EED2Ev,@function
_ZNSt6vectorISt10shared_ptrIN4sycl3_V16detail20PropertyWithDataBaseEESaIS5_EED2Ev: # @_ZNSt6vectorISt10shared_ptrIN4sycl3_V16detail20PropertyWithDataBaseEESaIS5_EED2Ev
.Lfunc_begin5:
	.cfi_startproc
	.cfi_personality 3, __gxx_personality_v0
	.cfi_lsda 3, .Lexception5
# %bb.0:                                # %entry
	pushq	%rbp
	.cfi_def_cfa_offset 16
	.cfi_offset %rbp, -16
	movq	%rsp, %rbp
	.cfi_def_cfa_register %rbp
	subq	$64, %rsp
	movq	%rdi, -32(%rbp)
	movq	-32(%rbp), %rdi
	movq	%rdi, -56(%rbp)                 # 8-byte Spill
	movq	(%rdi), %rax
	movq	%rax, -48(%rbp)                 # 8-byte Spill
	movq	8(%rdi), %rax
	movq	%rax, -40(%rbp)                 # 8-byte Spill
	callq	_ZNSt12_Vector_baseISt10shared_ptrIN4sycl3_V16detail20PropertyWithDataBaseEESaIS5_EE19_M_get_Tp_allocatorEv
	movq	-48(%rbp), %rdx                 # 8-byte Reload
	movq	-40(%rbp), %rcx                 # 8-byte Reload
	movq	%rdx, -8(%rbp)
	movq	%rcx, -16(%rbp)
	movq	%rax, -24(%rbp)
	movq	-8(%rbp), %rdi
	movq	-16(%rbp), %rsi
.Ltmp68:                                # EH_LABEL
	callq	_ZSt8_DestroyIPSt10shared_ptrIN4sycl3_V16detail20PropertyWithDataBaseEEEvT_S7_
.Ltmp69:                                # EH_LABEL
	jmp	.LBB18_1
.LBB18_1:                               # %_ZSt8_DestroyIPSt10shared_ptrIN4sycl3_V16detail20PropertyWithDataBaseEES5_EvT_S7_RSaIT0_E.exit
	jmp	.LBB18_2
.LBB18_2:                               # %invoke.cont
	movq	-56(%rbp), %rdi                 # 8-byte Reload
	callq	_ZNSt12_Vector_baseISt10shared_ptrIN4sycl3_V16detail20PropertyWithDataBaseEESaIS5_EED2Ev
	addq	$64, %rsp
	popq	%rbp
	.cfi_def_cfa %rsp, 8
	retq
.LBB18_3:                               # %terminate.lpad
	.cfi_def_cfa %rbp, 16
.Ltmp70:                                # EH_LABEL
	movq	%rax, %rdi
                                        # kill: def $eax killed $edx killed $rdx
	callq	__clang_call_terminate
.Lfunc_end18:
	.size	_ZNSt6vectorISt10shared_ptrIN4sycl3_V16detail20PropertyWithDataBaseEESaIS5_EED2Ev, .Lfunc_end18-_ZNSt6vectorISt10shared_ptrIN4sycl3_V16detail20PropertyWithDataBaseEESaIS5_EED2Ev
	.cfi_endproc
	.section	.gcc_except_table._ZNSt6vectorISt10shared_ptrIN4sycl3_V16detail20PropertyWithDataBaseEESaIS5_EED2Ev,"aG",@progbits,_ZNSt6vectorISt10shared_ptrIN4sycl3_V16detail20PropertyWithDataBaseEESaIS5_EED2Ev,comdat
	.p2align	2, 0x0
GCC_except_table18:
.Lexception5:
	.byte	255                             # @LPStart Encoding = omit
	.byte	3                               # @TType Encoding = udata4
	.uleb128 .Lttbase1-.Lttbaseref1
.Lttbaseref1:
	.byte	1                               # Call site Encoding = uleb128
	.uleb128 .Lcst_end5-.Lcst_begin5
.Lcst_begin5:
	.uleb128 .Ltmp68-.Lfunc_begin5          # >> Call Site 1 <<
	.uleb128 .Ltmp69-.Ltmp68                #   Call between .Ltmp68 and .Ltmp69
	.uleb128 .Ltmp70-.Lfunc_begin5          #     jumps to .Ltmp70
	.byte	1                               #   On action: 1
.Lcst_end5:
	.byte	1                               # >> Action Record 1 <<
                                        #   Catch TypeInfo 1
	.byte	0                               #   No further actions
	.p2align	2, 0x0
                                        # >> Catch TypeInfos <<
	.long	0                               # TypeInfo 1
.Lttbase1:
	.p2align	2, 0x0
                                        # -- End function
	.section	.text._ZNSt12_Vector_baseISt10shared_ptrIN4sycl3_V16detail20PropertyWithDataBaseEESaIS5_EE19_M_get_Tp_allocatorEv,"axG",@progbits,_ZNSt12_Vector_baseISt10shared_ptrIN4sycl3_V16detail20PropertyWithDataBaseEESaIS5_EE19_M_get_Tp_allocatorEv,comdat
	.weak	_ZNSt12_Vector_baseISt10shared_ptrIN4sycl3_V16detail20PropertyWithDataBaseEESaIS5_EE19_M_get_Tp_allocatorEv # -- Begin function _ZNSt12_Vector_baseISt10shared_ptrIN4sycl3_V16detail20PropertyWithDataBaseEESaIS5_EE19_M_get_Tp_allocatorEv
	.p2align	4
	.type	_ZNSt12_Vector_baseISt10shared_ptrIN4sycl3_V16detail20PropertyWithDataBaseEESaIS5_EE19_M_get_Tp_allocatorEv,@function
_ZNSt12_Vector_baseISt10shared_ptrIN4sycl3_V16detail20PropertyWithDataBaseEESaIS5_EE19_M_get_Tp_allocatorEv: # @_ZNSt12_Vector_baseISt10shared_ptrIN4sycl3_V16detail20PropertyWithDataBaseEESaIS5_EE19_M_get_Tp_allocatorEv
	.cfi_startproc
# %bb.0:                                # %entry
	pushq	%rbp
	.cfi_def_cfa_offset 16
	.cfi_offset %rbp, -16
	movq	%rsp, %rbp
	.cfi_def_cfa_register %rbp
	movq	%rdi, -8(%rbp)
	movq	-8(%rbp), %rax
	popq	%rbp
	.cfi_def_cfa %rsp, 8
	retq
.Lfunc_end19:
	.size	_ZNSt12_Vector_baseISt10shared_ptrIN4sycl3_V16detail20PropertyWithDataBaseEESaIS5_EE19_M_get_Tp_allocatorEv, .Lfunc_end19-_ZNSt12_Vector_baseISt10shared_ptrIN4sycl3_V16detail20PropertyWithDataBaseEESaIS5_EE19_M_get_Tp_allocatorEv
	.cfi_endproc
                                        # -- End function
	.section	.text.__clang_call_terminate,"axG",@progbits,__clang_call_terminate,comdat
	.hidden	__clang_call_terminate          # -- Begin function __clang_call_terminate
	.weak	__clang_call_terminate
	.p2align	4
	.type	__clang_call_terminate,@function
__clang_call_terminate:                 # @__clang_call_terminate
	.cfi_startproc
# %bb.0:
	pushq	%rbp
	.cfi_def_cfa_offset 16
	.cfi_offset %rbp, -16
	movq	%rsp, %rbp
	.cfi_def_cfa_register %rbp
	callq	__cxa_begin_catch
	callq	_ZSt9terminatev
.Lfunc_end20:
	.size	__clang_call_terminate, .Lfunc_end20-__clang_call_terminate
	.cfi_endproc
                                        # -- End function
	.section	.text._ZNSt12_Vector_baseISt10shared_ptrIN4sycl3_V16detail20PropertyWithDataBaseEESaIS5_EED2Ev,"axG",@progbits,_ZNSt12_Vector_baseISt10shared_ptrIN4sycl3_V16detail20PropertyWithDataBaseEESaIS5_EED2Ev,comdat
	.weak	_ZNSt12_Vector_baseISt10shared_ptrIN4sycl3_V16detail20PropertyWithDataBaseEESaIS5_EED2Ev # -- Begin function _ZNSt12_Vector_baseISt10shared_ptrIN4sycl3_V16detail20PropertyWithDataBaseEESaIS5_EED2Ev
	.p2align	4
	.type	_ZNSt12_Vector_baseISt10shared_ptrIN4sycl3_V16detail20PropertyWithDataBaseEESaIS5_EED2Ev,@function
_ZNSt12_Vector_baseISt10shared_ptrIN4sycl3_V16detail20PropertyWithDataBaseEESaIS5_EED2Ev: # @_ZNSt12_Vector_baseISt10shared_ptrIN4sycl3_V16detail20PropertyWithDataBaseEESaIS5_EED2Ev
.Lfunc_begin6:
	.cfi_startproc
	.cfi_personality 3, __gxx_personality_v0
	.cfi_lsda 3, .Lexception6
# %bb.0:                                # %entry
	pushq	%rbp
	.cfi_def_cfa_offset 16
	.cfi_offset %rbp, -16
	movq	%rsp, %rbp
	.cfi_def_cfa_register %rbp
	subq	$16, %rsp
	movq	%rdi, -8(%rbp)
	movq	-8(%rbp), %rdi
	movq	%rdi, -16(%rbp)                 # 8-byte Spill
	movq	(%rdi), %rsi
	movq	16(%rdi), %rdx
	subq	%rsi, %rdx
	sarq	$4, %rdx
.Ltmp71:                                # EH_LABEL
	callq	_ZNSt12_Vector_baseISt10shared_ptrIN4sycl3_V16detail20PropertyWithDataBaseEESaIS5_EE13_M_deallocateEPS5_m
.Ltmp72:                                # EH_LABEL
	jmp	.LBB21_1
.LBB21_1:                               # %invoke.cont
	movq	-16(%rbp), %rdi                 # 8-byte Reload
	callq	_ZNSt12_Vector_baseISt10shared_ptrIN4sycl3_V16detail20PropertyWithDataBaseEESaIS5_EE12_Vector_implD2Ev
	addq	$16, %rsp
	popq	%rbp
	.cfi_def_cfa %rsp, 8
	retq
.LBB21_2:                               # %terminate.lpad
	.cfi_def_cfa %rbp, 16
.Ltmp73:                                # EH_LABEL
	movq	%rax, %rdi
                                        # kill: def $eax killed $edx killed $rdx
	callq	__clang_call_terminate
.Lfunc_end21:
	.size	_ZNSt12_Vector_baseISt10shared_ptrIN4sycl3_V16detail20PropertyWithDataBaseEESaIS5_EED2Ev, .Lfunc_end21-_ZNSt12_Vector_baseISt10shared_ptrIN4sycl3_V16detail20PropertyWithDataBaseEESaIS5_EED2Ev
	.cfi_endproc
	.section	.gcc_except_table._ZNSt12_Vector_baseISt10shared_ptrIN4sycl3_V16detail20PropertyWithDataBaseEESaIS5_EED2Ev,"aG",@progbits,_ZNSt12_Vector_baseISt10shared_ptrIN4sycl3_V16detail20PropertyWithDataBaseEESaIS5_EED2Ev,comdat
	.p2align	2, 0x0
GCC_except_table21:
.Lexception6:
	.byte	255                             # @LPStart Encoding = omit
	.byte	3                               # @TType Encoding = udata4
	.uleb128 .Lttbase2-.Lttbaseref2
.Lttbaseref2:
	.byte	1                               # Call site Encoding = uleb128
	.uleb128 .Lcst_end6-.Lcst_begin6
.Lcst_begin6:
	.uleb128 .Ltmp71-.Lfunc_begin6          # >> Call Site 1 <<
	.uleb128 .Ltmp72-.Ltmp71                #   Call between .Ltmp71 and .Ltmp72
	.uleb128 .Ltmp73-.Lfunc_begin6          #     jumps to .Ltmp73
	.byte	1                               #   On action: 1
.Lcst_end6:
	.byte	1                               # >> Action Record 1 <<
                                        #   Catch TypeInfo 1
	.byte	0                               #   No further actions
	.p2align	2, 0x0
                                        # >> Catch TypeInfos <<
	.long	0                               # TypeInfo 1
.Lttbase2:
	.p2align	2, 0x0
                                        # -- End function
	.section	.text._ZSt8_DestroyIPSt10shared_ptrIN4sycl3_V16detail20PropertyWithDataBaseEEEvT_S7_,"axG",@progbits,_ZSt8_DestroyIPSt10shared_ptrIN4sycl3_V16detail20PropertyWithDataBaseEEEvT_S7_,comdat
	.weak	_ZSt8_DestroyIPSt10shared_ptrIN4sycl3_V16detail20PropertyWithDataBaseEEEvT_S7_ # -- Begin function _ZSt8_DestroyIPSt10shared_ptrIN4sycl3_V16detail20PropertyWithDataBaseEEEvT_S7_
	.p2align	4
	.type	_ZSt8_DestroyIPSt10shared_ptrIN4sycl3_V16detail20PropertyWithDataBaseEEEvT_S7_,@function
_ZSt8_DestroyIPSt10shared_ptrIN4sycl3_V16detail20PropertyWithDataBaseEEEvT_S7_: # @_ZSt8_DestroyIPSt10shared_ptrIN4sycl3_V16detail20PropertyWithDataBaseEEEvT_S7_
	.cfi_startproc
# %bb.0:                                # %entry
	pushq	%rbp
	.cfi_def_cfa_offset 16
	.cfi_offset %rbp, -16
	movq	%rsp, %rbp
	.cfi_def_cfa_register %rbp
	subq	$16, %rsp
	movq	%rdi, -8(%rbp)
	movq	%rsi, -16(%rbp)
	movq	-8(%rbp), %rdi
	movq	-16(%rbp), %rsi
	callq	_ZNSt12_Destroy_auxILb0EE9__destroyIPSt10shared_ptrIN4sycl3_V16detail20PropertyWithDataBaseEEEEvT_S9_
	addq	$16, %rsp
	popq	%rbp
	.cfi_def_cfa %rsp, 8
	retq
.Lfunc_end22:
	.size	_ZSt8_DestroyIPSt10shared_ptrIN4sycl3_V16detail20PropertyWithDataBaseEEEvT_S7_, .Lfunc_end22-_ZSt8_DestroyIPSt10shared_ptrIN4sycl3_V16detail20PropertyWithDataBaseEEEvT_S7_
	.cfi_endproc
                                        # -- End function
	.section	.text._ZNSt12_Destroy_auxILb0EE9__destroyIPSt10shared_ptrIN4sycl3_V16detail20PropertyWithDataBaseEEEEvT_S9_,"axG",@progbits,_ZNSt12_Destroy_auxILb0EE9__destroyIPSt10shared_ptrIN4sycl3_V16detail20PropertyWithDataBaseEEEEvT_S9_,comdat
	.weak	_ZNSt12_Destroy_auxILb0EE9__destroyIPSt10shared_ptrIN4sycl3_V16detail20PropertyWithDataBaseEEEEvT_S9_ # -- Begin function _ZNSt12_Destroy_auxILb0EE9__destroyIPSt10shared_ptrIN4sycl3_V16detail20PropertyWithDataBaseEEEEvT_S9_
	.p2align	4
	.type	_ZNSt12_Destroy_auxILb0EE9__destroyIPSt10shared_ptrIN4sycl3_V16detail20PropertyWithDataBaseEEEEvT_S9_,@function
_ZNSt12_Destroy_auxILb0EE9__destroyIPSt10shared_ptrIN4sycl3_V16detail20PropertyWithDataBaseEEEEvT_S9_: # @_ZNSt12_Destroy_auxILb0EE9__destroyIPSt10shared_ptrIN4sycl3_V16detail20PropertyWithDataBaseEEEEvT_S9_
	.cfi_startproc
# %bb.0:                                # %entry
	pushq	%rbp
	.cfi_def_cfa_offset 16
	.cfi_offset %rbp, -16
	movq	%rsp, %rbp
	.cfi_def_cfa_register %rbp
	subq	$16, %rsp
	movq	%rdi, -8(%rbp)
	movq	%rsi, -16(%rbp)
.LBB23_1:                               # %for.cond
                                        # =>This Inner Loop Header: Depth=1
	movq	-8(%rbp), %rax
	cmpq	-16(%rbp), %rax
	je	.LBB23_4
# %bb.2:                                # %for.body
                                        #   in Loop: Header=BB23_1 Depth=1
	movq	-8(%rbp), %rdi
	callq	_ZSt8_DestroyISt10shared_ptrIN4sycl3_V16detail20PropertyWithDataBaseEEEvPT_
# %bb.3:                                # %for.inc
                                        #   in Loop: Header=BB23_1 Depth=1
	movq	-8(%rbp), %rax
	addq	$16, %rax
	movq	%rax, -8(%rbp)
	jmp	.LBB23_1
.LBB23_4:                               # %for.end
	addq	$16, %rsp
	popq	%rbp
	.cfi_def_cfa %rsp, 8
	retq
.Lfunc_end23:
	.size	_ZNSt12_Destroy_auxILb0EE9__destroyIPSt10shared_ptrIN4sycl3_V16detail20PropertyWithDataBaseEEEEvT_S9_, .Lfunc_end23-_ZNSt12_Destroy_auxILb0EE9__destroyIPSt10shared_ptrIN4sycl3_V16detail20PropertyWithDataBaseEEEEvT_S9_
	.cfi_endproc
                                        # -- End function
	.section	.text._ZSt8_DestroyISt10shared_ptrIN4sycl3_V16detail20PropertyWithDataBaseEEEvPT_,"axG",@progbits,_ZSt8_DestroyISt10shared_ptrIN4sycl3_V16detail20PropertyWithDataBaseEEEvPT_,comdat
	.weak	_ZSt8_DestroyISt10shared_ptrIN4sycl3_V16detail20PropertyWithDataBaseEEEvPT_ # -- Begin function _ZSt8_DestroyISt10shared_ptrIN4sycl3_V16detail20PropertyWithDataBaseEEEvPT_
	.p2align	4
	.type	_ZSt8_DestroyISt10shared_ptrIN4sycl3_V16detail20PropertyWithDataBaseEEEvPT_,@function
_ZSt8_DestroyISt10shared_ptrIN4sycl3_V16detail20PropertyWithDataBaseEEEvPT_: # @_ZSt8_DestroyISt10shared_ptrIN4sycl3_V16detail20PropertyWithDataBaseEEEvPT_
	.cfi_startproc
# %bb.0:                                # %entry
	pushq	%rbp
	.cfi_def_cfa_offset 16
	.cfi_offset %rbp, -16
	movq	%rsp, %rbp
	.cfi_def_cfa_register %rbp
	subq	$16, %rsp
	movq	%rdi, -8(%rbp)
	movq	-8(%rbp), %rdi
	callq	_ZNSt10shared_ptrIN4sycl3_V16detail20PropertyWithDataBaseEED2Ev
	addq	$16, %rsp
	popq	%rbp
	.cfi_def_cfa %rsp, 8
	retq
.Lfunc_end24:
	.size	_ZSt8_DestroyISt10shared_ptrIN4sycl3_V16detail20PropertyWithDataBaseEEEvPT_, .Lfunc_end24-_ZSt8_DestroyISt10shared_ptrIN4sycl3_V16detail20PropertyWithDataBaseEEEvPT_
	.cfi_endproc
                                        # -- End function
	.section	.text._ZNSt10shared_ptrIN4sycl3_V16detail20PropertyWithDataBaseEED2Ev,"axG",@progbits,_ZNSt10shared_ptrIN4sycl3_V16detail20PropertyWithDataBaseEED2Ev,comdat
	.weak	_ZNSt10shared_ptrIN4sycl3_V16detail20PropertyWithDataBaseEED2Ev # -- Begin function _ZNSt10shared_ptrIN4sycl3_V16detail20PropertyWithDataBaseEED2Ev
	.p2align	4
	.type	_ZNSt10shared_ptrIN4sycl3_V16detail20PropertyWithDataBaseEED2Ev,@function
_ZNSt10shared_ptrIN4sycl3_V16detail20PropertyWithDataBaseEED2Ev: # @_ZNSt10shared_ptrIN4sycl3_V16detail20PropertyWithDataBaseEED2Ev
	.cfi_startproc
# %bb.0:                                # %entry
	pushq	%rbp
	.cfi_def_cfa_offset 16
	.cfi_offset %rbp, -16
	movq	%rsp, %rbp
	.cfi_def_cfa_register %rbp
	subq	$16, %rsp
	movq	%rdi, -8(%rbp)
	movq	-8(%rbp), %rdi
	callq	_ZNSt12__shared_ptrIN4sycl3_V16detail20PropertyWithDataBaseELN9__gnu_cxx12_Lock_policyE2EED2Ev
	addq	$16, %rsp
	popq	%rbp
	.cfi_def_cfa %rsp, 8
	retq
.Lfunc_end25:
	.size	_ZNSt10shared_ptrIN4sycl3_V16detail20PropertyWithDataBaseEED2Ev, .Lfunc_end25-_ZNSt10shared_ptrIN4sycl3_V16detail20PropertyWithDataBaseEED2Ev
	.cfi_endproc
                                        # -- End function
	.section	.text._ZNSt12__shared_ptrIN4sycl3_V16detail20PropertyWithDataBaseELN9__gnu_cxx12_Lock_policyE2EED2Ev,"axG",@progbits,_ZNSt12__shared_ptrIN4sycl3_V16detail20PropertyWithDataBaseELN9__gnu_cxx12_Lock_policyE2EED2Ev,comdat
	.weak	_ZNSt12__shared_ptrIN4sycl3_V16detail20PropertyWithDataBaseELN9__gnu_cxx12_Lock_policyE2EED2Ev # -- Begin function _ZNSt12__shared_ptrIN4sycl3_V16detail20PropertyWithDataBaseELN9__gnu_cxx12_Lock_policyE2EED2Ev
	.p2align	4
	.type	_ZNSt12__shared_ptrIN4sycl3_V16detail20PropertyWithDataBaseELN9__gnu_cxx12_Lock_policyE2EED2Ev,@function
_ZNSt12__shared_ptrIN4sycl3_V16detail20PropertyWithDataBaseELN9__gnu_cxx12_Lock_policyE2EED2Ev: # @_ZNSt12__shared_ptrIN4sycl3_V16detail20PropertyWithDataBaseELN9__gnu_cxx12_Lock_policyE2EED2Ev
	.cfi_startproc
# %bb.0:                                # %entry
	pushq	%rbp
	.cfi_def_cfa_offset 16
	.cfi_offset %rbp, -16
	movq	%rsp, %rbp
	.cfi_def_cfa_register %rbp
	subq	$16, %rsp
	movq	%rdi, -8(%rbp)
	movq	-8(%rbp), %rdi
	addq	$8, %rdi
	callq	_ZNSt14__shared_countILN9__gnu_cxx12_Lock_policyE2EED2Ev
	addq	$16, %rsp
	popq	%rbp
	.cfi_def_cfa %rsp, 8
	retq
.Lfunc_end26:
	.size	_ZNSt12__shared_ptrIN4sycl3_V16detail20PropertyWithDataBaseELN9__gnu_cxx12_Lock_policyE2EED2Ev, .Lfunc_end26-_ZNSt12__shared_ptrIN4sycl3_V16detail20PropertyWithDataBaseELN9__gnu_cxx12_Lock_policyE2EED2Ev
	.cfi_endproc
                                        # -- End function
	.section	.text._ZNSt14__shared_countILN9__gnu_cxx12_Lock_policyE2EED2Ev,"axG",@progbits,_ZNSt14__shared_countILN9__gnu_cxx12_Lock_policyE2EED2Ev,comdat
	.weak	_ZNSt14__shared_countILN9__gnu_cxx12_Lock_policyE2EED2Ev # -- Begin function _ZNSt14__shared_countILN9__gnu_cxx12_Lock_policyE2EED2Ev
	.p2align	4
	.type	_ZNSt14__shared_countILN9__gnu_cxx12_Lock_policyE2EED2Ev,@function
_ZNSt14__shared_countILN9__gnu_cxx12_Lock_policyE2EED2Ev: # @_ZNSt14__shared_countILN9__gnu_cxx12_Lock_policyE2EED2Ev
	.cfi_startproc
# %bb.0:                                # %entry
	pushq	%rbp
	.cfi_def_cfa_offset 16
	.cfi_offset %rbp, -16
	movq	%rsp, %rbp
	.cfi_def_cfa_register %rbp
	subq	$16, %rsp
	movq	%rdi, -8(%rbp)
	movq	-8(%rbp), %rax
	movq	%rax, -16(%rbp)                 # 8-byte Spill
	cmpq	$0, (%rax)
	je	.LBB27_2
# %bb.1:                                # %if.then
	movq	-16(%rbp), %rax                 # 8-byte Reload
	movq	(%rax), %rdi
	callq	_ZNSt16_Sp_counted_baseILN9__gnu_cxx12_Lock_policyE2EE10_M_releaseEv
.LBB27_2:                               # %if.end
	addq	$16, %rsp
	popq	%rbp
	.cfi_def_cfa %rsp, 8
	retq
.Lfunc_end27:
	.size	_ZNSt14__shared_countILN9__gnu_cxx12_Lock_policyE2EED2Ev, .Lfunc_end27-_ZNSt14__shared_countILN9__gnu_cxx12_Lock_policyE2EED2Ev
	.cfi_endproc
                                        # -- End function
	.section	.text._ZNSt16_Sp_counted_baseILN9__gnu_cxx12_Lock_policyE2EE10_M_releaseEv,"axG",@progbits,_ZNSt16_Sp_counted_baseILN9__gnu_cxx12_Lock_policyE2EE10_M_releaseEv,comdat
	.weak	_ZNSt16_Sp_counted_baseILN9__gnu_cxx12_Lock_policyE2EE10_M_releaseEv # -- Begin function _ZNSt16_Sp_counted_baseILN9__gnu_cxx12_Lock_policyE2EE10_M_releaseEv
	.p2align	4
	.type	_ZNSt16_Sp_counted_baseILN9__gnu_cxx12_Lock_policyE2EE10_M_releaseEv,@function
_ZNSt16_Sp_counted_baseILN9__gnu_cxx12_Lock_policyE2EE10_M_releaseEv: # @_ZNSt16_Sp_counted_baseILN9__gnu_cxx12_Lock_policyE2EE10_M_releaseEv
	.cfi_startproc
# %bb.0:                                # %entry
	pushq	%rbp
	.cfi_def_cfa_offset 16
	.cfi_offset %rbp, -16
	movq	%rsp, %rbp
	.cfi_def_cfa_register %rbp
	subq	$128, %rsp
	movq	%rdi, -72(%rbp)
	movq	-72(%rbp), %rax
	movq	%rax, -120(%rbp)                # 8-byte Spill
	movb	$1, -73(%rbp)
	movb	$1, -74(%rbp)
	movb	$1, -75(%rbp)
	movl	$32, -80(%rbp)
	movl	$32, -84(%rbp)
	movabsq	$4294967297, %rcx               # imm = 0x100000001
	movq	%rcx, -96(%rbp)
	addq	$8, %rax
	movq	%rax, -104(%rbp)
	movq	-104(%rbp), %rax
	movq	(%rax), %rax
	movq	%rax, -112(%rbp)
	movabsq	$4294967297, %rax               # imm = 0x100000001
	cmpq	%rax, -112(%rbp)
	jne	.LBB28_2
# %bb.1:                                # %if.then
	movq	-120(%rbp), %rdi                # 8-byte Reload
	movl	$0, 8(%rdi)
	movl	$0, 12(%rdi)
	movq	(%rdi), %rax
	callq	*16(%rax)
	movq	-120(%rbp), %rdi                # 8-byte Reload
	movq	(%rdi), %rax
	callq	*24(%rax)
	jmp	.LBB28_8
.LBB28_2:                               # %if.end
	movq	-120(%rbp), %rax                # 8-byte Reload
	addq	$8, %rax
	movq	%rax, -56(%rbp)
	movl	$-1, -60(%rbp)
	cmpb	$0, __libc_single_threaded
	je	.LBB28_4
# %bb.3:                                # %if.then.i
	movq	-56(%rbp), %rcx
	movl	-60(%rbp), %eax
	movq	%rcx, -32(%rbp)
	movl	%eax, -36(%rbp)
	movq	-32(%rbp), %rax
	movl	(%rax), %eax
	movl	%eax, -40(%rbp)
	movl	-36(%rbp), %ecx
	movq	-32(%rbp), %rax
	addl	(%rax), %ecx
	movl	%ecx, (%rax)
	movl	-40(%rbp), %eax
	movl	%eax, -44(%rbp)
	jmp	.LBB28_5
.LBB28_4:                               # %if.else.i
	movq	-56(%rbp), %rcx
	movl	-60(%rbp), %eax
	movq	%rcx, -8(%rbp)
	movl	%eax, -12(%rbp)
	movq	-8(%rbp), %rcx
	movl	-12(%rbp), %eax
	movl	%eax, -16(%rbp)
	movl	-16(%rbp), %eax
	lock		xaddl	%eax, (%rcx)
	movl	%eax, -20(%rbp)
	movl	-20(%rbp), %eax
	movl	%eax, -44(%rbp)
.LBB28_5:                               # %_ZN9__gnu_cxx27__exchange_and_add_dispatchEPii.exit
	movl	-44(%rbp), %eax
	movl	%eax, -124(%rbp)                # 4-byte Spill
# %bb.6:                                # %invoke.cont
	movl	-124(%rbp), %eax                # 4-byte Reload
	cmpl	$1, %eax
	jne	.LBB28_8
# %bb.7:                                # %if.then7
	movq	-120(%rbp), %rdi                # 8-byte Reload
	callq	_ZNSt16_Sp_counted_baseILN9__gnu_cxx12_Lock_policyE2EE24_M_release_last_use_coldEv
.LBB28_8:                               # %if.end8
	addq	$128, %rsp
	popq	%rbp
	.cfi_def_cfa %rsp, 8
	retq
.Lfunc_end28:
	.size	_ZNSt16_Sp_counted_baseILN9__gnu_cxx12_Lock_policyE2EE10_M_releaseEv, .Lfunc_end28-_ZNSt16_Sp_counted_baseILN9__gnu_cxx12_Lock_policyE2EE10_M_releaseEv
	.cfi_endproc
                                        # -- End function
	.section	.text._ZNSt16_Sp_counted_baseILN9__gnu_cxx12_Lock_policyE2EE24_M_release_last_use_coldEv,"axG",@progbits,_ZNSt16_Sp_counted_baseILN9__gnu_cxx12_Lock_policyE2EE24_M_release_last_use_coldEv,comdat
	.weak	_ZNSt16_Sp_counted_baseILN9__gnu_cxx12_Lock_policyE2EE24_M_release_last_use_coldEv # -- Begin function _ZNSt16_Sp_counted_baseILN9__gnu_cxx12_Lock_policyE2EE24_M_release_last_use_coldEv
	.p2align	4
	.type	_ZNSt16_Sp_counted_baseILN9__gnu_cxx12_Lock_policyE2EE24_M_release_last_use_coldEv,@function
_ZNSt16_Sp_counted_baseILN9__gnu_cxx12_Lock_policyE2EE24_M_release_last_use_coldEv: # @_ZNSt16_Sp_counted_baseILN9__gnu_cxx12_Lock_policyE2EE24_M_release_last_use_coldEv
	.cfi_startproc
# %bb.0:                                # %entry
	pushq	%rbp
	.cfi_def_cfa_offset 16
	.cfi_offset %rbp, -16
	movq	%rsp, %rbp
	.cfi_def_cfa_register %rbp
	subq	$16, %rsp
	movq	%rdi, -8(%rbp)
	movq	-8(%rbp), %rdi
	callq	_ZNSt16_Sp_counted_baseILN9__gnu_cxx12_Lock_policyE2EE19_M_release_last_useEv
	addq	$16, %rsp
	popq	%rbp
	.cfi_def_cfa %rsp, 8
	retq
.Lfunc_end29:
	.size	_ZNSt16_Sp_counted_baseILN9__gnu_cxx12_Lock_policyE2EE24_M_release_last_use_coldEv, .Lfunc_end29-_ZNSt16_Sp_counted_baseILN9__gnu_cxx12_Lock_policyE2EE24_M_release_last_use_coldEv
	.cfi_endproc
                                        # -- End function
	.section	.text._ZNSt16_Sp_counted_baseILN9__gnu_cxx12_Lock_policyE2EE19_M_release_last_useEv,"axG",@progbits,_ZNSt16_Sp_counted_baseILN9__gnu_cxx12_Lock_policyE2EE19_M_release_last_useEv,comdat
	.weak	_ZNSt16_Sp_counted_baseILN9__gnu_cxx12_Lock_policyE2EE19_M_release_last_useEv # -- Begin function _ZNSt16_Sp_counted_baseILN9__gnu_cxx12_Lock_policyE2EE19_M_release_last_useEv
	.p2align	4
	.type	_ZNSt16_Sp_counted_baseILN9__gnu_cxx12_Lock_policyE2EE19_M_release_last_useEv,@function
_ZNSt16_Sp_counted_baseILN9__gnu_cxx12_Lock_policyE2EE19_M_release_last_useEv: # @_ZNSt16_Sp_counted_baseILN9__gnu_cxx12_Lock_policyE2EE19_M_release_last_useEv
	.cfi_startproc
# %bb.0:                                # %entry
	pushq	%rbp
	.cfi_def_cfa_offset 16
	.cfi_offset %rbp, -16
	movq	%rsp, %rbp
	.cfi_def_cfa_register %rbp
	subq	$96, %rsp
	movq	%rdi, -72(%rbp)
	movq	-72(%rbp), %rdi
	movq	%rdi, -80(%rbp)                 # 8-byte Spill
	movq	(%rdi), %rax
	callq	*16(%rax)
	movq	-80(%rbp), %rax                 # 8-byte Reload
	addq	$12, %rax
	movq	%rax, -56(%rbp)
	movl	$-1, -60(%rbp)
	cmpb	$0, __libc_single_threaded
	je	.LBB30_2
# %bb.1:                                # %if.then.i
	movq	-56(%rbp), %rcx
	movl	-60(%rbp), %eax
	movq	%rcx, -32(%rbp)
	movl	%eax, -36(%rbp)
	movq	-32(%rbp), %rax
	movl	(%rax), %eax
	movl	%eax, -40(%rbp)
	movl	-36(%rbp), %ecx
	movq	-32(%rbp), %rax
	addl	(%rax), %ecx
	movl	%ecx, (%rax)
	movl	-40(%rbp), %eax
	movl	%eax, -44(%rbp)
	jmp	.LBB30_3
.LBB30_2:                               # %if.else.i
	movq	-56(%rbp), %rcx
	movl	-60(%rbp), %eax
	movq	%rcx, -8(%rbp)
	movl	%eax, -12(%rbp)
	movq	-8(%rbp), %rcx
	movl	-12(%rbp), %eax
	movl	%eax, -16(%rbp)
	movl	-16(%rbp), %eax
	lock		xaddl	%eax, (%rcx)
	movl	%eax, -20(%rbp)
	movl	-20(%rbp), %eax
	movl	%eax, -44(%rbp)
.LBB30_3:                               # %_ZN9__gnu_cxx27__exchange_and_add_dispatchEPii.exit
	movl	-44(%rbp), %eax
	movl	%eax, -84(%rbp)                 # 4-byte Spill
# %bb.4:                                # %invoke.cont
	movl	-84(%rbp), %eax                 # 4-byte Reload
	cmpl	$1, %eax
	jne	.LBB30_6
# %bb.5:                                # %if.then
	movq	-80(%rbp), %rdi                 # 8-byte Reload
	movq	(%rdi), %rax
	callq	*24(%rax)
.LBB30_6:                               # %if.end
	addq	$96, %rsp
	popq	%rbp
	.cfi_def_cfa %rsp, 8
	retq
.Lfunc_end30:
	.size	_ZNSt16_Sp_counted_baseILN9__gnu_cxx12_Lock_policyE2EE19_M_release_last_useEv, .Lfunc_end30-_ZNSt16_Sp_counted_baseILN9__gnu_cxx12_Lock_policyE2EE19_M_release_last_useEv
	.cfi_endproc
                                        # -- End function
	.section	.text._ZNSt12_Vector_baseISt10shared_ptrIN4sycl3_V16detail20PropertyWithDataBaseEESaIS5_EE13_M_deallocateEPS5_m,"axG",@progbits,_ZNSt12_Vector_baseISt10shared_ptrIN4sycl3_V16detail20PropertyWithDataBaseEESaIS5_EE13_M_deallocateEPS5_m,comdat
	.weak	_ZNSt12_Vector_baseISt10shared_ptrIN4sycl3_V16detail20PropertyWithDataBaseEESaIS5_EE13_M_deallocateEPS5_m # -- Begin function _ZNSt12_Vector_baseISt10shared_ptrIN4sycl3_V16detail20PropertyWithDataBaseEESaIS5_EE13_M_deallocateEPS5_m
	.p2align	4
	.type	_ZNSt12_Vector_baseISt10shared_ptrIN4sycl3_V16detail20PropertyWithDataBaseEESaIS5_EE13_M_deallocateEPS5_m,@function
_ZNSt12_Vector_baseISt10shared_ptrIN4sycl3_V16detail20PropertyWithDataBaseEESaIS5_EE13_M_deallocateEPS5_m: # @_ZNSt12_Vector_baseISt10shared_ptrIN4sycl3_V16detail20PropertyWithDataBaseEESaIS5_EE13_M_deallocateEPS5_m
	.cfi_startproc
# %bb.0:                                # %entry
	pushq	%rbp
	.cfi_def_cfa_offset 16
	.cfi_offset %rbp, -16
	movq	%rsp, %rbp
	.cfi_def_cfa_register %rbp
	subq	$64, %rsp
	movq	%rdi, -32(%rbp)
	movq	%rsi, -40(%rbp)
	movq	%rdx, -48(%rbp)
	movq	-32(%rbp), %rax
	movq	%rax, -56(%rbp)                 # 8-byte Spill
	cmpq	$0, -40(%rbp)
	je	.LBB31_2
# %bb.1:                                # %if.then
	movq	-56(%rbp), %rdx                 # 8-byte Reload
	movq	-40(%rbp), %rcx
	movq	-48(%rbp), %rax
	movq	%rdx, -8(%rbp)
	movq	%rcx, -16(%rbp)
	movq	%rax, -24(%rbp)
	movq	-8(%rbp), %rdi
	movq	-16(%rbp), %rsi
	movq	-24(%rbp), %rdx
	callq	_ZNSt15__new_allocatorISt10shared_ptrIN4sycl3_V16detail20PropertyWithDataBaseEEE10deallocateEPS5_m
.LBB31_2:                               # %if.end
	addq	$64, %rsp
	popq	%rbp
	.cfi_def_cfa %rsp, 8
	retq
.Lfunc_end31:
	.size	_ZNSt12_Vector_baseISt10shared_ptrIN4sycl3_V16detail20PropertyWithDataBaseEESaIS5_EE13_M_deallocateEPS5_m, .Lfunc_end31-_ZNSt12_Vector_baseISt10shared_ptrIN4sycl3_V16detail20PropertyWithDataBaseEESaIS5_EE13_M_deallocateEPS5_m
	.cfi_endproc
                                        # -- End function
	.section	.text._ZNSt12_Vector_baseISt10shared_ptrIN4sycl3_V16detail20PropertyWithDataBaseEESaIS5_EE12_Vector_implD2Ev,"axG",@progbits,_ZNSt12_Vector_baseISt10shared_ptrIN4sycl3_V16detail20PropertyWithDataBaseEESaIS5_EE12_Vector_implD2Ev,comdat
	.weak	_ZNSt12_Vector_baseISt10shared_ptrIN4sycl3_V16detail20PropertyWithDataBaseEESaIS5_EE12_Vector_implD2Ev # -- Begin function _ZNSt12_Vector_baseISt10shared_ptrIN4sycl3_V16detail20PropertyWithDataBaseEESaIS5_EE12_Vector_implD2Ev
	.p2align	4
	.type	_ZNSt12_Vector_baseISt10shared_ptrIN4sycl3_V16detail20PropertyWithDataBaseEESaIS5_EE12_Vector_implD2Ev,@function
_ZNSt12_Vector_baseISt10shared_ptrIN4sycl3_V16detail20PropertyWithDataBaseEESaIS5_EE12_Vector_implD2Ev: # @_ZNSt12_Vector_baseISt10shared_ptrIN4sycl3_V16detail20PropertyWithDataBaseEESaIS5_EE12_Vector_implD2Ev
	.cfi_startproc
# %bb.0:                                # %entry
	pushq	%rbp
	.cfi_def_cfa_offset 16
	.cfi_offset %rbp, -16
	movq	%rsp, %rbp
	.cfi_def_cfa_register %rbp
	subq	$16, %rsp
	movq	%rdi, -16(%rbp)
	movq	-16(%rbp), %rax
	movq	%rax, -8(%rbp)
	movq	-8(%rbp), %rdi
	callq	_ZNSt15__new_allocatorISt10shared_ptrIN4sycl3_V16detail20PropertyWithDataBaseEEED2Ev
	addq	$16, %rsp
	popq	%rbp
	.cfi_def_cfa %rsp, 8
	retq
.Lfunc_end32:
	.size	_ZNSt12_Vector_baseISt10shared_ptrIN4sycl3_V16detail20PropertyWithDataBaseEESaIS5_EE12_Vector_implD2Ev, .Lfunc_end32-_ZNSt12_Vector_baseISt10shared_ptrIN4sycl3_V16detail20PropertyWithDataBaseEESaIS5_EE12_Vector_implD2Ev
	.cfi_endproc
                                        # -- End function
	.section	.text._ZNSt15__new_allocatorISt10shared_ptrIN4sycl3_V16detail20PropertyWithDataBaseEEE10deallocateEPS5_m,"axG",@progbits,_ZNSt15__new_allocatorISt10shared_ptrIN4sycl3_V16detail20PropertyWithDataBaseEEE10deallocateEPS5_m,comdat
	.weak	_ZNSt15__new_allocatorISt10shared_ptrIN4sycl3_V16detail20PropertyWithDataBaseEEE10deallocateEPS5_m # -- Begin function _ZNSt15__new_allocatorISt10shared_ptrIN4sycl3_V16detail20PropertyWithDataBaseEEE10deallocateEPS5_m
	.p2align	4
	.type	_ZNSt15__new_allocatorISt10shared_ptrIN4sycl3_V16detail20PropertyWithDataBaseEEE10deallocateEPS5_m,@function
_ZNSt15__new_allocatorISt10shared_ptrIN4sycl3_V16detail20PropertyWithDataBaseEEE10deallocateEPS5_m: # @_ZNSt15__new_allocatorISt10shared_ptrIN4sycl3_V16detail20PropertyWithDataBaseEEE10deallocateEPS5_m
	.cfi_startproc
# %bb.0:                                # %entry
	pushq	%rbp
	.cfi_def_cfa_offset 16
	.cfi_offset %rbp, -16
	movq	%rsp, %rbp
	.cfi_def_cfa_register %rbp
	subq	$32, %rsp
	movq	%rdi, -8(%rbp)
	movq	%rsi, -16(%rbp)
	movq	%rdx, -24(%rbp)
	movq	-16(%rbp), %rdi
	movq	-24(%rbp), %rsi
	shlq	$4, %rsi
	callq	_ZdlPvm
	addq	$32, %rsp
	popq	%rbp
	.cfi_def_cfa %rsp, 8
	retq
.Lfunc_end33:
	.size	_ZNSt15__new_allocatorISt10shared_ptrIN4sycl3_V16detail20PropertyWithDataBaseEEE10deallocateEPS5_m, .Lfunc_end33-_ZNSt15__new_allocatorISt10shared_ptrIN4sycl3_V16detail20PropertyWithDataBaseEEE10deallocateEPS5_m
	.cfi_endproc
                                        # -- End function
	.section	.text._ZNSt15__new_allocatorISt10shared_ptrIN4sycl3_V16detail20PropertyWithDataBaseEEED2Ev,"axG",@progbits,_ZNSt15__new_allocatorISt10shared_ptrIN4sycl3_V16detail20PropertyWithDataBaseEEED2Ev,comdat
	.weak	_ZNSt15__new_allocatorISt10shared_ptrIN4sycl3_V16detail20PropertyWithDataBaseEEED2Ev # -- Begin function _ZNSt15__new_allocatorISt10shared_ptrIN4sycl3_V16detail20PropertyWithDataBaseEEED2Ev
	.p2align	4
	.type	_ZNSt15__new_allocatorISt10shared_ptrIN4sycl3_V16detail20PropertyWithDataBaseEEED2Ev,@function
_ZNSt15__new_allocatorISt10shared_ptrIN4sycl3_V16detail20PropertyWithDataBaseEEED2Ev: # @_ZNSt15__new_allocatorISt10shared_ptrIN4sycl3_V16detail20PropertyWithDataBaseEEED2Ev
	.cfi_startproc
# %bb.0:                                # %entry
	pushq	%rbp
	.cfi_def_cfa_offset 16
	.cfi_offset %rbp, -16
	movq	%rsp, %rbp
	.cfi_def_cfa_register %rbp
	movq	%rdi, -8(%rbp)
	popq	%rbp
	.cfi_def_cfa %rsp, 8
	retq
.Lfunc_end34:
	.size	_ZNSt15__new_allocatorISt10shared_ptrIN4sycl3_V16detail20PropertyWithDataBaseEEED2Ev, .Lfunc_end34-_ZNSt15__new_allocatorISt10shared_ptrIN4sycl3_V16detail20PropertyWithDataBaseEEED2Ev
	.cfi_endproc
                                        # -- End function
	.section	.text._ZN4sycl3_V16detail19defaultAsyncHandlerENS0_14exception_listE,"axG",@progbits,_ZN4sycl3_V16detail19defaultAsyncHandlerENS0_14exception_listE,comdat
	.weak	_ZN4sycl3_V16detail19defaultAsyncHandlerENS0_14exception_listE # -- Begin function _ZN4sycl3_V16detail19defaultAsyncHandlerENS0_14exception_listE
	.p2align	4
	.type	_ZN4sycl3_V16detail19defaultAsyncHandlerENS0_14exception_listE,@function
_ZN4sycl3_V16detail19defaultAsyncHandlerENS0_14exception_listE: # @_ZN4sycl3_V16detail19defaultAsyncHandlerENS0_14exception_listE
.Lfunc_begin7:
	.cfi_startproc
	.cfi_personality 3, __gxx_personality_v0
	.cfi_lsda 3, .Lexception7
# %bb.0:                                # %entry
	pushq	%rbp
	.cfi_def_cfa_offset 16
	.cfi_offset %rbp, -16
	movq	%rsp, %rbp
	.cfi_def_cfa_register %rbp
	subq	$96, %rsp
	movq	%rdi, -80(%rbp)                 # 8-byte Spill
	movq	%rdi, -8(%rbp)
	movabsq	$_ZSt4cerr, %rdi
	movabsq	$.L.str.5, %rsi
	callq	_ZStlsISt11char_traitsIcEERSt13basic_ostreamIcT_ES5_PKc
	movq	-80(%rbp), %rdi                 # 8-byte Reload
	movq	%rdi, -16(%rbp)
	movq	-16(%rbp), %rdi
	callq	_ZNK4sycl3_V114exception_list5beginEv
	movq	%rax, -24(%rbp)
	movq	-16(%rbp), %rdi
	callq	_ZNK4sycl3_V114exception_list3endEv
	movq	%rax, -32(%rbp)
.LBB35_1:                               # %for.cond
                                        # =>This Inner Loop Header: Depth=1
	leaq	-24(%rbp), %rdi
	leaq	-32(%rbp), %rsi
	callq	_ZN9__gnu_cxxneIPKNSt15__exception_ptr13exception_ptrESt6vectorIS2_SaIS2_EEEEbRKNS_17__normal_iteratorIT_T0_EESD_
	testb	$1, %al
	jne	.LBB35_2
	jmp	.LBB35_15
.LBB35_2:                               # %for.body
                                        #   in Loop: Header=BB35_1 Depth=1
	leaq	-24(%rbp), %rdi
	callq	_ZNK9__gnu_cxx17__normal_iteratorIPKNSt15__exception_ptr13exception_ptrESt6vectorIS2_SaIS2_EEEdeEv
	movq	%rax, -40(%rbp)
	movq	-40(%rbp), %rdi
	callq	_ZNKSt15__exception_ptr13exception_ptrcvbEv
	testb	$1, %al
	jne	.LBB35_3
	jmp	.LBB35_12
.LBB35_3:                               # %if.then
                                        #   in Loop: Header=BB35_1 Depth=1
	movq	-40(%rbp), %rsi
	leaq	-48(%rbp), %rdi
	movq	%rdi, -88(%rbp)                 # 8-byte Spill
	callq	_ZNSt15__exception_ptr13exception_ptrC2ERKS0_
	movq	-88(%rbp), %rdi                 # 8-byte Reload
.Ltmp74:                                # EH_LABEL
	callq	_ZSt17rethrow_exceptionNSt15__exception_ptr13exception_ptrE
.Ltmp75:                                # EH_LABEL
	jmp	.LBB35_4
.LBB35_4:                               # %invoke.cont
.LBB35_5:                               # %lpad
                                        #   in Loop: Header=BB35_1 Depth=1
.Ltmp76:                                # EH_LABEL
	movq	%rax, %rcx
	movl	%edx, %eax
	movq	%rcx, -56(%rbp)
	movl	%eax, -60(%rbp)
	leaq	-48(%rbp), %rdi
	callq	_ZNSt15__exception_ptr13exception_ptrD2Ev
# %bb.6:                                # %catch.dispatch
                                        #   in Loop: Header=BB35_1 Depth=1
	movl	-60(%rbp), %eax
	movl	$1, %ecx
	cmpl	%ecx, %eax
	jne	.LBB35_16
# %bb.7:                                # %catch
                                        #   in Loop: Header=BB35_1 Depth=1
	movq	-56(%rbp), %rdi
	callq	__cxa_begin_catch
	movq	%rax, -72(%rbp)
.Ltmp77:                                # EH_LABEL
	movl	$_ZSt4cerr, %edi
	movl	$.L.str.6, %esi
	callq	_ZStlsISt11char_traitsIcEERSt13basic_ostreamIcT_ES5_PKc
.Ltmp78:                                # EH_LABEL
	movq	%rax, -96(%rbp)                 # 8-byte Spill
	jmp	.LBB35_8
.LBB35_8:                               # %invoke.cont8
                                        #   in Loop: Header=BB35_1 Depth=1
	movq	-72(%rbp), %rdi
	movq	(%rdi), %rax
	movq	16(%rax), %rax
	callq	*%rax
	movq	-96(%rbp), %rdi                 # 8-byte Reload
	movq	%rax, %rsi
.Ltmp79:                                # EH_LABEL
	callq	_ZStlsISt11char_traitsIcEERSt13basic_ostreamIcT_ES5_PKc
.Ltmp80:                                # EH_LABEL
	jmp	.LBB35_9
.LBB35_9:                               # %invoke.cont11
                                        #   in Loop: Header=BB35_1 Depth=1
	callq	__cxa_end_catch
.LBB35_10:                              # %try.cont
                                        #   in Loop: Header=BB35_1 Depth=1
	jmp	.LBB35_11
.LBB35_11:                              # %for.inc
                                        #   in Loop: Header=BB35_1 Depth=1
	leaq	-24(%rbp), %rdi
	callq	_ZN9__gnu_cxx17__normal_iteratorIPKNSt15__exception_ptr13exception_ptrESt6vectorIS2_SaIS2_EEEppEv
	jmp	.LBB35_1
.LBB35_12:                              # %if.end
                                        #   in Loop: Header=BB35_1 Depth=1
	jmp	.LBB35_10
.LBB35_13:                              # %lpad7
.Ltmp81:                                # EH_LABEL
	movq	%rax, %rcx
	movl	%edx, %eax
	movq	%rcx, -56(%rbp)
	movl	%eax, -60(%rbp)
.Ltmp82:                                # EH_LABEL
	callq	__cxa_end_catch
.Ltmp83:                                # EH_LABEL
	jmp	.LBB35_14
.LBB35_14:                              # %invoke.cont13
	jmp	.LBB35_16
.LBB35_15:                              # %for.end
	movabsq	$_ZSt4cerr, %rdi
	movabsq	$_ZSt4endlIcSt11char_traitsIcEERSt13basic_ostreamIT_T0_ES6_, %rsi
	callq	_ZNSolsEPFRSoS_E
	callq	_ZSt9terminatev
.LBB35_16:                              # %eh.resume
	movq	-56(%rbp), %rdi
	callq	_Unwind_Resume@PLT
.LBB35_17:                              # %terminate.lpad
.Ltmp84:                                # EH_LABEL
	movq	%rax, %rdi
                                        # kill: def $eax killed $edx killed $rdx
	callq	__clang_call_terminate
.Lfunc_end35:
	.size	_ZN4sycl3_V16detail19defaultAsyncHandlerENS0_14exception_listE, .Lfunc_end35-_ZN4sycl3_V16detail19defaultAsyncHandlerENS0_14exception_listE
	.cfi_endproc
	.section	.gcc_except_table._ZN4sycl3_V16detail19defaultAsyncHandlerENS0_14exception_listE,"aG",@progbits,_ZN4sycl3_V16detail19defaultAsyncHandlerENS0_14exception_listE,comdat
	.p2align	2, 0x0
GCC_except_table35:
.Lexception7:
	.byte	255                             # @LPStart Encoding = omit
	.byte	3                               # @TType Encoding = udata4
	.uleb128 .Lttbase3-.Lttbaseref3
.Lttbaseref3:
	.byte	1                               # Call site Encoding = uleb128
	.uleb128 .Lcst_end7-.Lcst_begin7
.Lcst_begin7:
	.uleb128 .Lfunc_begin7-.Lfunc_begin7    # >> Call Site 1 <<
	.uleb128 .Ltmp74-.Lfunc_begin7          #   Call between .Lfunc_begin7 and .Ltmp74
	.byte	0                               #     has no landing pad
	.byte	0                               #   On action: cleanup
	.uleb128 .Ltmp74-.Lfunc_begin7          # >> Call Site 2 <<
	.uleb128 .Ltmp75-.Ltmp74                #   Call between .Ltmp74 and .Ltmp75
	.uleb128 .Ltmp76-.Lfunc_begin7          #     jumps to .Ltmp76
	.byte	3                               #   On action: 2
	.uleb128 .Ltmp75-.Lfunc_begin7          # >> Call Site 3 <<
	.uleb128 .Ltmp77-.Ltmp75                #   Call between .Ltmp75 and .Ltmp77
	.byte	0                               #     has no landing pad
	.byte	0                               #   On action: cleanup
	.uleb128 .Ltmp77-.Lfunc_begin7          # >> Call Site 4 <<
	.uleb128 .Ltmp78-.Ltmp77                #   Call between .Ltmp77 and .Ltmp78
	.uleb128 .Ltmp81-.Lfunc_begin7          #     jumps to .Ltmp81
	.byte	0                               #   On action: cleanup
	.uleb128 .Ltmp78-.Lfunc_begin7          # >> Call Site 5 <<
	.uleb128 .Ltmp79-.Ltmp78                #   Call between .Ltmp78 and .Ltmp79
	.byte	0                               #     has no landing pad
	.byte	0                               #   On action: cleanup
	.uleb128 .Ltmp79-.Lfunc_begin7          # >> Call Site 6 <<
	.uleb128 .Ltmp80-.Ltmp79                #   Call between .Ltmp79 and .Ltmp80
	.uleb128 .Ltmp81-.Lfunc_begin7          #     jumps to .Ltmp81
	.byte	0                               #   On action: cleanup
	.uleb128 .Ltmp80-.Lfunc_begin7          # >> Call Site 7 <<
	.uleb128 .Ltmp82-.Ltmp80                #   Call between .Ltmp80 and .Ltmp82
	.byte	0                               #     has no landing pad
	.byte	0                               #   On action: cleanup
	.uleb128 .Ltmp82-.Lfunc_begin7          # >> Call Site 8 <<
	.uleb128 .Ltmp83-.Ltmp82                #   Call between .Ltmp82 and .Ltmp83
	.uleb128 .Ltmp84-.Lfunc_begin7          #     jumps to .Ltmp84
	.byte	5                               #   On action: 3
	.uleb128 .Ltmp83-.Lfunc_begin7          # >> Call Site 9 <<
	.uleb128 .Lfunc_end35-.Ltmp83           #   Call between .Ltmp83 and .Lfunc_end35
	.byte	0                               #     has no landing pad
	.byte	0                               #   On action: cleanup
.Lcst_end7:
	.byte	0                               # >> Action Record 1 <<
                                        #   Cleanup
	.byte	0                               #   No further actions
	.byte	1                               # >> Action Record 2 <<
                                        #   Catch TypeInfo 1
	.byte	125                             #   Continue to action 1
	.byte	2                               # >> Action Record 3 <<
                                        #   Catch TypeInfo 2
	.byte	0                               #   No further actions
	.p2align	2, 0x0
                                        # >> Catch TypeInfos <<
	.long	0                               # TypeInfo 2
	.long	_ZTISt9exception                # TypeInfo 1
.Lttbase3:
	.p2align	2, 0x0
                                        # -- End function
	.section	.text._ZNSt8functionIFvN4sycl3_V114exception_listEEEC2IRS3_vEEOT_,"axG",@progbits,_ZNSt8functionIFvN4sycl3_V114exception_listEEEC2IRS3_vEEOT_,comdat
	.weak	_ZNSt8functionIFvN4sycl3_V114exception_listEEEC2IRS3_vEEOT_ # -- Begin function _ZNSt8functionIFvN4sycl3_V114exception_listEEEC2IRS3_vEEOT_
	.p2align	4
	.type	_ZNSt8functionIFvN4sycl3_V114exception_listEEEC2IRS3_vEEOT_,@function
_ZNSt8functionIFvN4sycl3_V114exception_listEEEC2IRS3_vEEOT_: # @_ZNSt8functionIFvN4sycl3_V114exception_listEEEC2IRS3_vEEOT_
	.cfi_startproc
# %bb.0:                                # %entry
	pushq	%rbp
	.cfi_def_cfa_offset 16
	.cfi_offset %rbp, -16
	movq	%rsp, %rbp
	.cfi_def_cfa_register %rbp
	subq	$32, %rsp
	movq	%rdi, -8(%rbp)
	movq	%rsi, -16(%rbp)
	movq	-8(%rbp), %rdi
	movq	%rdi, -24(%rbp)                 # 8-byte Spill
	xorl	%esi, %esi
	movl	$24, %edx
	callq	memset@PLT
	movq	-24(%rbp), %rdi                 # 8-byte Reload
	callq	_ZNSt14_Function_baseC2Ev
	movq	-24(%rbp), %rax                 # 8-byte Reload
	movq	$0, 24(%rax)
	movq	-16(%rbp), %rdi
	callq	_ZNSt14_Function_base13_Base_managerIPFvN4sycl3_V114exception_listEEE21_M_not_empty_functionIS4_EEbPT_
	testb	$1, %al
	jne	.LBB36_1
	jmp	.LBB36_2
.LBB36_1:                               # %if.then
	movq	-24(%rbp), %rdi                 # 8-byte Reload
	movq	-16(%rbp), %rsi
	callq	_ZNSt14_Function_base13_Base_managerIPFvN4sycl3_V114exception_listEEE15_M_init_functorIRS4_EEvRSt9_Any_dataOT_
	movq	-24(%rbp), %rax                 # 8-byte Reload
	movabsq	$_ZNSt17_Function_handlerIFvN4sycl3_V114exception_listEEPS3_E9_M_invokeERKSt9_Any_dataOS2_, %rcx
	movq	%rcx, 24(%rax)
	movabsq	$_ZNSt17_Function_handlerIFvN4sycl3_V114exception_listEEPS3_E10_M_managerERSt9_Any_dataRKS6_St18_Manager_operation, %rcx
	movq	%rcx, 16(%rax)
.LBB36_2:                               # %if.end
	addq	$32, %rsp
	popq	%rbp
	.cfi_def_cfa %rsp, 8
	retq
.Lfunc_end36:
	.size	_ZNSt8functionIFvN4sycl3_V114exception_listEEEC2IRS3_vEEOT_, .Lfunc_end36-_ZNSt8functionIFvN4sycl3_V114exception_listEEEC2IRS3_vEEOT_
	.cfi_endproc
                                        # -- End function
	.section	.text._ZN4sycl3_V15queueC2IFiRKNS0_6deviceEEvEERKT_RKSt8functionIFvNS0_14exception_listEEERKNS0_13property_listE,"axG",@progbits,_ZN4sycl3_V15queueC2IFiRKNS0_6deviceEEvEERKT_RKSt8functionIFvNS0_14exception_listEEERKNS0_13property_listE,comdat
	.weak	_ZN4sycl3_V15queueC2IFiRKNS0_6deviceEEvEERKT_RKSt8functionIFvNS0_14exception_listEEERKNS0_13property_listE # -- Begin function _ZN4sycl3_V15queueC2IFiRKNS0_6deviceEEvEERKT_RKSt8functionIFvNS0_14exception_listEEERKNS0_13property_listE
	.p2align	4
	.type	_ZN4sycl3_V15queueC2IFiRKNS0_6deviceEEvEERKT_RKSt8functionIFvNS0_14exception_listEEERKNS0_13property_listE,@function
_ZN4sycl3_V15queueC2IFiRKNS0_6deviceEEvEERKT_RKSt8functionIFvNS0_14exception_listEEERKNS0_13property_listE: # @_ZN4sycl3_V15queueC2IFiRKNS0_6deviceEEvEERKT_RKSt8functionIFvNS0_14exception_listEEERKNS0_13property_listE
.Lfunc_begin8:
	.cfi_startproc
	.cfi_personality 3, __gxx_personality_v0
	.cfi_lsda 3, .Lexception8
# %bb.0:                                # %entry
	pushq	%rbp
	.cfi_def_cfa_offset 16
	.cfi_offset %rbp, -16
	movq	%rsp, %rbp
	.cfi_def_cfa_register %rbp
	subq	$112, %rsp
	movq	%rdi, -8(%rbp)
	movq	%rsi, -16(%rbp)
	movq	%rdx, -24(%rbp)
	movq	%rcx, -32(%rbp)
	movq	-8(%rbp), %rax
	movq	%rax, -112(%rbp)                # 8-byte Spill
	movq	-16(%rbp), %rsi
	leaq	-80(%rbp), %rdi
	movq	%rdi, -104(%rbp)                # 8-byte Spill
	callq	_ZNSt8functionIFiRKN4sycl3_V16deviceEEEC2IRS5_vEEOT_
	movq	-104(%rbp), %rsi                # 8-byte Reload
.Ltmp85:                                # EH_LABEL
	leaq	-48(%rbp), %rdi
	callq	_ZN4sycl3_V16detail13select_deviceERKSt8functionIFiRKNS0_6deviceEEE
.Ltmp86:                                # EH_LABEL
	jmp	.LBB37_1
.LBB37_1:                               # %invoke.cont
	movq	-112(%rbp), %rdi                # 8-byte Reload
	movq	-24(%rbp), %rdx
	movq	-32(%rbp), %rcx
.Ltmp88:                                # EH_LABEL
	leaq	-48(%rbp), %rsi
	callq	_ZN4sycl3_V15queueC2ERKNS0_6deviceERKSt8functionIFvNS0_14exception_listEEERKNS0_13property_listE
.Ltmp89:                                # EH_LABEL
	jmp	.LBB37_2
.LBB37_2:                               # %invoke.cont4
	leaq	-48(%rbp), %rdi
	callq	_ZN4sycl3_V16deviceD2Ev
	leaq	-80(%rbp), %rdi
	callq	_ZNSt8functionIFiRKN4sycl3_V16deviceEEED2Ev
	addq	$112, %rsp
	popq	%rbp
	.cfi_def_cfa %rsp, 8
	retq
.LBB37_3:                               # %lpad
	.cfi_def_cfa %rbp, 16
.Ltmp87:                                # EH_LABEL
	movq	%rax, %rcx
	movl	%edx, %eax
	movq	%rcx, -88(%rbp)
	movl	%eax, -92(%rbp)
	jmp	.LBB37_5
.LBB37_4:                               # %lpad3
.Ltmp90:                                # EH_LABEL
	movq	%rax, %rcx
	movl	%edx, %eax
	movq	%rcx, -88(%rbp)
	movl	%eax, -92(%rbp)
	leaq	-48(%rbp), %rdi
	callq	_ZN4sycl3_V16deviceD2Ev
.LBB37_5:                               # %ehcleanup
	leaq	-80(%rbp), %rdi
	callq	_ZNSt8functionIFiRKN4sycl3_V16deviceEEED2Ev
# %bb.6:                                # %eh.resume
	movq	-88(%rbp), %rdi
	callq	_Unwind_Resume@PLT
.Lfunc_end37:
	.size	_ZN4sycl3_V15queueC2IFiRKNS0_6deviceEEvEERKT_RKSt8functionIFvNS0_14exception_listEEERKNS0_13property_listE, .Lfunc_end37-_ZN4sycl3_V15queueC2IFiRKNS0_6deviceEEvEERKT_RKSt8functionIFvNS0_14exception_listEEERKNS0_13property_listE
	.cfi_endproc
	.section	.gcc_except_table._ZN4sycl3_V15queueC2IFiRKNS0_6deviceEEvEERKT_RKSt8functionIFvNS0_14exception_listEEERKNS0_13property_listE,"aG",@progbits,_ZN4sycl3_V15queueC2IFiRKNS0_6deviceEEvEERKT_RKSt8functionIFvNS0_14exception_listEEERKNS0_13property_listE,comdat
	.p2align	2, 0x0
GCC_except_table37:
.Lexception8:
	.byte	255                             # @LPStart Encoding = omit
	.byte	255                             # @TType Encoding = omit
	.byte	1                               # Call site Encoding = uleb128
	.uleb128 .Lcst_end8-.Lcst_begin8
.Lcst_begin8:
	.uleb128 .Ltmp85-.Lfunc_begin8          # >> Call Site 1 <<
	.uleb128 .Ltmp86-.Ltmp85                #   Call between .Ltmp85 and .Ltmp86
	.uleb128 .Ltmp87-.Lfunc_begin8          #     jumps to .Ltmp87
	.byte	0                               #   On action: cleanup
	.uleb128 .Ltmp88-.Lfunc_begin8          # >> Call Site 2 <<
	.uleb128 .Ltmp89-.Ltmp88                #   Call between .Ltmp88 and .Ltmp89
	.uleb128 .Ltmp90-.Lfunc_begin8          #     jumps to .Ltmp90
	.byte	0                               #   On action: cleanup
	.uleb128 .Ltmp89-.Lfunc_begin8          # >> Call Site 3 <<
	.uleb128 .Lfunc_end37-.Ltmp89           #   Call between .Ltmp89 and .Lfunc_end37
	.byte	0                               #     has no landing pad
	.byte	0                               #   On action: cleanup
.Lcst_end8:
	.p2align	2, 0x0
                                        # -- End function
	.section	.text._ZNSt8functionIFvN4sycl3_V114exception_listEEED2Ev,"axG",@progbits,_ZNSt8functionIFvN4sycl3_V114exception_listEEED2Ev,comdat
	.weak	_ZNSt8functionIFvN4sycl3_V114exception_listEEED2Ev # -- Begin function _ZNSt8functionIFvN4sycl3_V114exception_listEEED2Ev
	.p2align	4
	.type	_ZNSt8functionIFvN4sycl3_V114exception_listEEED2Ev,@function
_ZNSt8functionIFvN4sycl3_V114exception_listEEED2Ev: # @_ZNSt8functionIFvN4sycl3_V114exception_listEEED2Ev
	.cfi_startproc
# %bb.0:                                # %entry
	pushq	%rbp
	.cfi_def_cfa_offset 16
	.cfi_offset %rbp, -16
	movq	%rsp, %rbp
	.cfi_def_cfa_register %rbp
	subq	$16, %rsp
	movq	%rdi, -8(%rbp)
	movq	-8(%rbp), %rdi
	callq	_ZNSt14_Function_baseD2Ev
	addq	$16, %rsp
	popq	%rbp
	.cfi_def_cfa %rsp, 8
	retq
.Lfunc_end38:
	.size	_ZNSt8functionIFvN4sycl3_V114exception_listEEED2Ev, .Lfunc_end38-_ZNSt8functionIFvN4sycl3_V114exception_listEEED2Ev
	.cfi_endproc
                                        # -- End function
	.section	.text._ZN9__gnu_cxxneIPKNSt15__exception_ptr13exception_ptrESt6vectorIS2_SaIS2_EEEEbRKNS_17__normal_iteratorIT_T0_EESD_,"axG",@progbits,_ZN9__gnu_cxxneIPKNSt15__exception_ptr13exception_ptrESt6vectorIS2_SaIS2_EEEEbRKNS_17__normal_iteratorIT_T0_EESD_,comdat
	.weak	_ZN9__gnu_cxxneIPKNSt15__exception_ptr13exception_ptrESt6vectorIS2_SaIS2_EEEEbRKNS_17__normal_iteratorIT_T0_EESD_ # -- Begin function _ZN9__gnu_cxxneIPKNSt15__exception_ptr13exception_ptrESt6vectorIS2_SaIS2_EEEEbRKNS_17__normal_iteratorIT_T0_EESD_
	.p2align	4
	.type	_ZN9__gnu_cxxneIPKNSt15__exception_ptr13exception_ptrESt6vectorIS2_SaIS2_EEEEbRKNS_17__normal_iteratorIT_T0_EESD_,@function
_ZN9__gnu_cxxneIPKNSt15__exception_ptr13exception_ptrESt6vectorIS2_SaIS2_EEEEbRKNS_17__normal_iteratorIT_T0_EESD_: # @_ZN9__gnu_cxxneIPKNSt15__exception_ptr13exception_ptrESt6vectorIS2_SaIS2_EEEEbRKNS_17__normal_iteratorIT_T0_EESD_
	.cfi_startproc
# %bb.0:                                # %entry
	pushq	%rbp
	.cfi_def_cfa_offset 16
	.cfi_offset %rbp, -16
	movq	%rsp, %rbp
	.cfi_def_cfa_register %rbp
	subq	$32, %rsp
	movq	%rdi, -8(%rbp)
	movq	%rsi, -16(%rbp)
	movq	-8(%rbp), %rdi
	callq	_ZNK9__gnu_cxx17__normal_iteratorIPKNSt15__exception_ptr13exception_ptrESt6vectorIS2_SaIS2_EEE4baseEv
	movq	(%rax), %rax
	movq	%rax, -24(%rbp)                 # 8-byte Spill
	movq	-16(%rbp), %rdi
	callq	_ZNK9__gnu_cxx17__normal_iteratorIPKNSt15__exception_ptr13exception_ptrESt6vectorIS2_SaIS2_EEE4baseEv
	movq	%rax, %rcx
	movq	-24(%rbp), %rax                 # 8-byte Reload
	cmpq	(%rcx), %rax
	setne	%al
	andb	$1, %al
	addq	$32, %rsp
	popq	%rbp
	.cfi_def_cfa %rsp, 8
	retq
.Lfunc_end39:
	.size	_ZN9__gnu_cxxneIPKNSt15__exception_ptr13exception_ptrESt6vectorIS2_SaIS2_EEEEbRKNS_17__normal_iteratorIT_T0_EESD_, .Lfunc_end39-_ZN9__gnu_cxxneIPKNSt15__exception_ptr13exception_ptrESt6vectorIS2_SaIS2_EEEEbRKNS_17__normal_iteratorIT_T0_EESD_
	.cfi_endproc
                                        # -- End function
	.section	.text._ZNK9__gnu_cxx17__normal_iteratorIPKNSt15__exception_ptr13exception_ptrESt6vectorIS2_SaIS2_EEEdeEv,"axG",@progbits,_ZNK9__gnu_cxx17__normal_iteratorIPKNSt15__exception_ptr13exception_ptrESt6vectorIS2_SaIS2_EEEdeEv,comdat
	.weak	_ZNK9__gnu_cxx17__normal_iteratorIPKNSt15__exception_ptr13exception_ptrESt6vectorIS2_SaIS2_EEEdeEv # -- Begin function _ZNK9__gnu_cxx17__normal_iteratorIPKNSt15__exception_ptr13exception_ptrESt6vectorIS2_SaIS2_EEEdeEv
	.p2align	4
	.type	_ZNK9__gnu_cxx17__normal_iteratorIPKNSt15__exception_ptr13exception_ptrESt6vectorIS2_SaIS2_EEEdeEv,@function
_ZNK9__gnu_cxx17__normal_iteratorIPKNSt15__exception_ptr13exception_ptrESt6vectorIS2_SaIS2_EEEdeEv: # @_ZNK9__gnu_cxx17__normal_iteratorIPKNSt15__exception_ptr13exception_ptrESt6vectorIS2_SaIS2_EEEdeEv
	.cfi_startproc
# %bb.0:                                # %entry
	pushq	%rbp
	.cfi_def_cfa_offset 16
	.cfi_offset %rbp, -16
	movq	%rsp, %rbp
	.cfi_def_cfa_register %rbp
	movq	%rdi, -8(%rbp)
	movq	-8(%rbp), %rax
	movq	(%rax), %rax
	popq	%rbp
	.cfi_def_cfa %rsp, 8
	retq
.Lfunc_end40:
	.size	_ZNK9__gnu_cxx17__normal_iteratorIPKNSt15__exception_ptr13exception_ptrESt6vectorIS2_SaIS2_EEEdeEv, .Lfunc_end40-_ZNK9__gnu_cxx17__normal_iteratorIPKNSt15__exception_ptr13exception_ptrESt6vectorIS2_SaIS2_EEEdeEv
	.cfi_endproc
                                        # -- End function
	.section	.text._ZNKSt15__exception_ptr13exception_ptrcvbEv,"axG",@progbits,_ZNKSt15__exception_ptr13exception_ptrcvbEv,comdat
	.weak	_ZNKSt15__exception_ptr13exception_ptrcvbEv # -- Begin function _ZNKSt15__exception_ptr13exception_ptrcvbEv
	.p2align	4
	.type	_ZNKSt15__exception_ptr13exception_ptrcvbEv,@function
_ZNKSt15__exception_ptr13exception_ptrcvbEv: # @_ZNKSt15__exception_ptr13exception_ptrcvbEv
	.cfi_startproc
# %bb.0:                                # %entry
	pushq	%rbp
	.cfi_def_cfa_offset 16
	.cfi_offset %rbp, -16
	movq	%rsp, %rbp
	.cfi_def_cfa_register %rbp
	movq	%rdi, -8(%rbp)
	movq	-8(%rbp), %rax
	cmpq	$0, (%rax)
	setne	%al
	andb	$1, %al
	popq	%rbp
	.cfi_def_cfa %rsp, 8
	retq
.Lfunc_end41:
	.size	_ZNKSt15__exception_ptr13exception_ptrcvbEv, .Lfunc_end41-_ZNKSt15__exception_ptr13exception_ptrcvbEv
	.cfi_endproc
                                        # -- End function
	.section	.text._ZNSt15__exception_ptr13exception_ptrC2ERKS0_,"axG",@progbits,_ZNSt15__exception_ptr13exception_ptrC2ERKS0_,comdat
	.weak	_ZNSt15__exception_ptr13exception_ptrC2ERKS0_ # -- Begin function _ZNSt15__exception_ptr13exception_ptrC2ERKS0_
	.p2align	4
	.type	_ZNSt15__exception_ptr13exception_ptrC2ERKS0_,@function
_ZNSt15__exception_ptr13exception_ptrC2ERKS0_: # @_ZNSt15__exception_ptr13exception_ptrC2ERKS0_
	.cfi_startproc
# %bb.0:                                # %entry
	pushq	%rbp
	.cfi_def_cfa_offset 16
	.cfi_offset %rbp, -16
	movq	%rsp, %rbp
	.cfi_def_cfa_register %rbp
	subq	$32, %rsp
	movq	%rdi, -8(%rbp)
	movq	%rsi, -16(%rbp)
	movq	-8(%rbp), %rax
	movq	%rax, -24(%rbp)                 # 8-byte Spill
	movq	-16(%rbp), %rcx
	movq	(%rcx), %rcx
	movq	%rcx, (%rax)
	cmpq	$0, (%rax)
	je	.LBB42_2
# %bb.1:                                # %if.then
	movq	-24(%rbp), %rdi                 # 8-byte Reload
	callq	_ZNSt15__exception_ptr13exception_ptr9_M_addrefEv
.LBB42_2:                               # %if.end
	addq	$32, %rsp
	popq	%rbp
	.cfi_def_cfa %rsp, 8
	retq
.Lfunc_end42:
	.size	_ZNSt15__exception_ptr13exception_ptrC2ERKS0_, .Lfunc_end42-_ZNSt15__exception_ptr13exception_ptrC2ERKS0_
	.cfi_endproc
                                        # -- End function
	.section	.text._ZNSt15__exception_ptr13exception_ptrD2Ev,"axG",@progbits,_ZNSt15__exception_ptr13exception_ptrD2Ev,comdat
	.weak	_ZNSt15__exception_ptr13exception_ptrD2Ev # -- Begin function _ZNSt15__exception_ptr13exception_ptrD2Ev
	.p2align	4
	.type	_ZNSt15__exception_ptr13exception_ptrD2Ev,@function
_ZNSt15__exception_ptr13exception_ptrD2Ev: # @_ZNSt15__exception_ptr13exception_ptrD2Ev
	.cfi_startproc
# %bb.0:                                # %entry
	pushq	%rbp
	.cfi_def_cfa_offset 16
	.cfi_offset %rbp, -16
	movq	%rsp, %rbp
	.cfi_def_cfa_register %rbp
	subq	$16, %rsp
	movq	%rdi, -8(%rbp)
	movq	-8(%rbp), %rax
	movq	%rax, -16(%rbp)                 # 8-byte Spill
	cmpq	$0, (%rax)
	je	.LBB43_2
# %bb.1:                                # %if.then
	movq	-16(%rbp), %rdi                 # 8-byte Reload
	callq	_ZNSt15__exception_ptr13exception_ptr10_M_releaseEv
.LBB43_2:                               # %if.end
	addq	$16, %rsp
	popq	%rbp
	.cfi_def_cfa %rsp, 8
	retq
.Lfunc_end43:
	.size	_ZNSt15__exception_ptr13exception_ptrD2Ev, .Lfunc_end43-_ZNSt15__exception_ptr13exception_ptrD2Ev
	.cfi_endproc
                                        # -- End function
	.section	.text._ZN9__gnu_cxx17__normal_iteratorIPKNSt15__exception_ptr13exception_ptrESt6vectorIS2_SaIS2_EEEppEv,"axG",@progbits,_ZN9__gnu_cxx17__normal_iteratorIPKNSt15__exception_ptr13exception_ptrESt6vectorIS2_SaIS2_EEEppEv,comdat
	.weak	_ZN9__gnu_cxx17__normal_iteratorIPKNSt15__exception_ptr13exception_ptrESt6vectorIS2_SaIS2_EEEppEv # -- Begin function _ZN9__gnu_cxx17__normal_iteratorIPKNSt15__exception_ptr13exception_ptrESt6vectorIS2_SaIS2_EEEppEv
	.p2align	4
	.type	_ZN9__gnu_cxx17__normal_iteratorIPKNSt15__exception_ptr13exception_ptrESt6vectorIS2_SaIS2_EEEppEv,@function
_ZN9__gnu_cxx17__normal_iteratorIPKNSt15__exception_ptr13exception_ptrESt6vectorIS2_SaIS2_EEEppEv: # @_ZN9__gnu_cxx17__normal_iteratorIPKNSt15__exception_ptr13exception_ptrESt6vectorIS2_SaIS2_EEEppEv
	.cfi_startproc
# %bb.0:                                # %entry
	pushq	%rbp
	.cfi_def_cfa_offset 16
	.cfi_offset %rbp, -16
	movq	%rsp, %rbp
	.cfi_def_cfa_register %rbp
	movq	%rdi, -8(%rbp)
	movq	-8(%rbp), %rax
	movq	(%rax), %rcx
	addq	$8, %rcx
	movq	%rcx, (%rax)
	popq	%rbp
	.cfi_def_cfa %rsp, 8
	retq
.Lfunc_end44:
	.size	_ZN9__gnu_cxx17__normal_iteratorIPKNSt15__exception_ptr13exception_ptrESt6vectorIS2_SaIS2_EEEppEv, .Lfunc_end44-_ZN9__gnu_cxx17__normal_iteratorIPKNSt15__exception_ptr13exception_ptrESt6vectorIS2_SaIS2_EEEppEv
	.cfi_endproc
                                        # -- End function
	.section	.text._ZNK9__gnu_cxx17__normal_iteratorIPKNSt15__exception_ptr13exception_ptrESt6vectorIS2_SaIS2_EEE4baseEv,"axG",@progbits,_ZNK9__gnu_cxx17__normal_iteratorIPKNSt15__exception_ptr13exception_ptrESt6vectorIS2_SaIS2_EEE4baseEv,comdat
	.weak	_ZNK9__gnu_cxx17__normal_iteratorIPKNSt15__exception_ptr13exception_ptrESt6vectorIS2_SaIS2_EEE4baseEv # -- Begin function _ZNK9__gnu_cxx17__normal_iteratorIPKNSt15__exception_ptr13exception_ptrESt6vectorIS2_SaIS2_EEE4baseEv
	.p2align	4
	.type	_ZNK9__gnu_cxx17__normal_iteratorIPKNSt15__exception_ptr13exception_ptrESt6vectorIS2_SaIS2_EEE4baseEv,@function
_ZNK9__gnu_cxx17__normal_iteratorIPKNSt15__exception_ptr13exception_ptrESt6vectorIS2_SaIS2_EEE4baseEv: # @_ZNK9__gnu_cxx17__normal_iteratorIPKNSt15__exception_ptr13exception_ptrESt6vectorIS2_SaIS2_EEE4baseEv
	.cfi_startproc
# %bb.0:                                # %entry
	pushq	%rbp
	.cfi_def_cfa_offset 16
	.cfi_offset %rbp, -16
	movq	%rsp, %rbp
	.cfi_def_cfa_register %rbp
	movq	%rdi, -8(%rbp)
	movq	-8(%rbp), %rax
	popq	%rbp
	.cfi_def_cfa %rsp, 8
	retq
.Lfunc_end45:
	.size	_ZNK9__gnu_cxx17__normal_iteratorIPKNSt15__exception_ptr13exception_ptrESt6vectorIS2_SaIS2_EEE4baseEv, .Lfunc_end45-_ZNK9__gnu_cxx17__normal_iteratorIPKNSt15__exception_ptr13exception_ptrESt6vectorIS2_SaIS2_EEE4baseEv
	.cfi_endproc
                                        # -- End function
	.section	.text._ZNSt14_Function_baseC2Ev,"axG",@progbits,_ZNSt14_Function_baseC2Ev,comdat
	.weak	_ZNSt14_Function_baseC2Ev       # -- Begin function _ZNSt14_Function_baseC2Ev
	.p2align	4
	.type	_ZNSt14_Function_baseC2Ev,@function
_ZNSt14_Function_baseC2Ev:              # @_ZNSt14_Function_baseC2Ev
	.cfi_startproc
# %bb.0:                                # %entry
	pushq	%rbp
	.cfi_def_cfa_offset 16
	.cfi_offset %rbp, -16
	movq	%rsp, %rbp
	.cfi_def_cfa_register %rbp
	movq	%rdi, -8(%rbp)
	movq	-8(%rbp), %rax
	movq	$0, (%rax)
	movq	$0, 16(%rax)
	popq	%rbp
	.cfi_def_cfa %rsp, 8
	retq
.Lfunc_end46:
	.size	_ZNSt14_Function_baseC2Ev, .Lfunc_end46-_ZNSt14_Function_baseC2Ev
	.cfi_endproc
                                        # -- End function
	.section	.text._ZNSt14_Function_base13_Base_managerIPFvN4sycl3_V114exception_listEEE21_M_not_empty_functionIS4_EEbPT_,"axG",@progbits,_ZNSt14_Function_base13_Base_managerIPFvN4sycl3_V114exception_listEEE21_M_not_empty_functionIS4_EEbPT_,comdat
	.weak	_ZNSt14_Function_base13_Base_managerIPFvN4sycl3_V114exception_listEEE21_M_not_empty_functionIS4_EEbPT_ # -- Begin function _ZNSt14_Function_base13_Base_managerIPFvN4sycl3_V114exception_listEEE21_M_not_empty_functionIS4_EEbPT_
	.p2align	4
	.type	_ZNSt14_Function_base13_Base_managerIPFvN4sycl3_V114exception_listEEE21_M_not_empty_functionIS4_EEbPT_,@function
_ZNSt14_Function_base13_Base_managerIPFvN4sycl3_V114exception_listEEE21_M_not_empty_functionIS4_EEbPT_: # @_ZNSt14_Function_base13_Base_managerIPFvN4sycl3_V114exception_listEEE21_M_not_empty_functionIS4_EEbPT_
	.cfi_startproc
# %bb.0:                                # %entry
	pushq	%rbp
	.cfi_def_cfa_offset 16
	.cfi_offset %rbp, -16
	movq	%rsp, %rbp
	.cfi_def_cfa_register %rbp
	movq	%rdi, -8(%rbp)
	cmpq	$0, -8(%rbp)
	setne	%al
	andb	$1, %al
	popq	%rbp
	.cfi_def_cfa %rsp, 8
	retq
.Lfunc_end47:
	.size	_ZNSt14_Function_base13_Base_managerIPFvN4sycl3_V114exception_listEEE21_M_not_empty_functionIS4_EEbPT_, .Lfunc_end47-_ZNSt14_Function_base13_Base_managerIPFvN4sycl3_V114exception_listEEE21_M_not_empty_functionIS4_EEbPT_
	.cfi_endproc
                                        # -- End function
	.section	.text._ZNSt14_Function_base13_Base_managerIPFvN4sycl3_V114exception_listEEE15_M_init_functorIRS4_EEvRSt9_Any_dataOT_,"axG",@progbits,_ZNSt14_Function_base13_Base_managerIPFvN4sycl3_V114exception_listEEE15_M_init_functorIRS4_EEvRSt9_Any_dataOT_,comdat
	.weak	_ZNSt14_Function_base13_Base_managerIPFvN4sycl3_V114exception_listEEE15_M_init_functorIRS4_EEvRSt9_Any_dataOT_ # -- Begin function _ZNSt14_Function_base13_Base_managerIPFvN4sycl3_V114exception_listEEE15_M_init_functorIRS4_EEvRSt9_Any_dataOT_
	.p2align	4
	.type	_ZNSt14_Function_base13_Base_managerIPFvN4sycl3_V114exception_listEEE15_M_init_functorIRS4_EEvRSt9_Any_dataOT_,@function
_ZNSt14_Function_base13_Base_managerIPFvN4sycl3_V114exception_listEEE15_M_init_functorIRS4_EEvRSt9_Any_dataOT_: # @_ZNSt14_Function_base13_Base_managerIPFvN4sycl3_V114exception_listEEE15_M_init_functorIRS4_EEvRSt9_Any_dataOT_
.Lfunc_begin9:
	.cfi_startproc
	.cfi_personality 3, __gxx_personality_v0
	.cfi_lsda 3, .Lexception9
# %bb.0:                                # %entry
	pushq	%rbp
	.cfi_def_cfa_offset 16
	.cfi_offset %rbp, -16
	movq	%rsp, %rbp
	.cfi_def_cfa_register %rbp
	subq	$32, %rsp
	movq	%rdi, -8(%rbp)
	movq	%rsi, -16(%rbp)
	movq	-8(%rbp), %rdi
	movq	-16(%rbp), %rsi
.Ltmp91:                                # EH_LABEL
	callq	_ZNSt14_Function_base13_Base_managerIPFvN4sycl3_V114exception_listEEE9_M_createIRS4_EEvRSt9_Any_dataOT_St17integral_constantIbLb1EE
.Ltmp92:                                # EH_LABEL
	jmp	.LBB48_1
.LBB48_1:                               # %invoke.cont
	addq	$32, %rsp
	popq	%rbp
	.cfi_def_cfa %rsp, 8
	retq
.LBB48_2:                               # %terminate.lpad
	.cfi_def_cfa %rbp, 16
.Ltmp93:                                # EH_LABEL
	movq	%rax, %rdi
                                        # kill: def $eax killed $edx killed $rdx
	callq	__clang_call_terminate
.Lfunc_end48:
	.size	_ZNSt14_Function_base13_Base_managerIPFvN4sycl3_V114exception_listEEE15_M_init_functorIRS4_EEvRSt9_Any_dataOT_, .Lfunc_end48-_ZNSt14_Function_base13_Base_managerIPFvN4sycl3_V114exception_listEEE15_M_init_functorIRS4_EEvRSt9_Any_dataOT_
	.cfi_endproc
	.section	.gcc_except_table._ZNSt14_Function_base13_Base_managerIPFvN4sycl3_V114exception_listEEE15_M_init_functorIRS4_EEvRSt9_Any_dataOT_,"aG",@progbits,_ZNSt14_Function_base13_Base_managerIPFvN4sycl3_V114exception_listEEE15_M_init_functorIRS4_EEvRSt9_Any_dataOT_,comdat
	.p2align	2, 0x0
GCC_except_table48:
.Lexception9:
	.byte	255                             # @LPStart Encoding = omit
	.byte	3                               # @TType Encoding = udata4
	.uleb128 .Lttbase4-.Lttbaseref4
.Lttbaseref4:
	.byte	1                               # Call site Encoding = uleb128
	.uleb128 .Lcst_end9-.Lcst_begin9
.Lcst_begin9:
	.uleb128 .Ltmp91-.Lfunc_begin9          # >> Call Site 1 <<
	.uleb128 .Ltmp92-.Ltmp91                #   Call between .Ltmp91 and .Ltmp92
	.uleb128 .Ltmp93-.Lfunc_begin9          #     jumps to .Ltmp93
	.byte	1                               #   On action: 1
.Lcst_end9:
	.byte	1                               # >> Action Record 1 <<
                                        #   Catch TypeInfo 1
	.byte	0                               #   No further actions
	.p2align	2, 0x0
                                        # >> Catch TypeInfos <<
	.long	0                               # TypeInfo 1
.Lttbase4:
	.p2align	2, 0x0
                                        # -- End function
	.section	.text._ZNSt17_Function_handlerIFvN4sycl3_V114exception_listEEPS3_E9_M_invokeERKSt9_Any_dataOS2_,"axG",@progbits,_ZNSt17_Function_handlerIFvN4sycl3_V114exception_listEEPS3_E9_M_invokeERKSt9_Any_dataOS2_,comdat
	.weak	_ZNSt17_Function_handlerIFvN4sycl3_V114exception_listEEPS3_E9_M_invokeERKSt9_Any_dataOS2_ # -- Begin function _ZNSt17_Function_handlerIFvN4sycl3_V114exception_listEEPS3_E9_M_invokeERKSt9_Any_dataOS2_
	.p2align	4
	.type	_ZNSt17_Function_handlerIFvN4sycl3_V114exception_listEEPS3_E9_M_invokeERKSt9_Any_dataOS2_,@function
_ZNSt17_Function_handlerIFvN4sycl3_V114exception_listEEPS3_E9_M_invokeERKSt9_Any_dataOS2_: # @_ZNSt17_Function_handlerIFvN4sycl3_V114exception_listEEPS3_E9_M_invokeERKSt9_Any_dataOS2_
	.cfi_startproc
# %bb.0:                                # %entry
	pushq	%rbp
	.cfi_def_cfa_offset 16
	.cfi_offset %rbp, -16
	movq	%rsp, %rbp
	.cfi_def_cfa_register %rbp
	subq	$16, %rsp
	movq	%rdi, -8(%rbp)
	movq	%rsi, -16(%rbp)
	movq	-8(%rbp), %rdi
	callq	_ZNSt14_Function_base13_Base_managerIPFvN4sycl3_V114exception_listEEE14_M_get_pointerERKSt9_Any_data
	movq	%rax, %rdi
	movq	-16(%rbp), %rsi
	callq	_ZSt10__invoke_rIvRPFvN4sycl3_V114exception_listEEJS2_EENSt9enable_ifIX16is_invocable_r_vIT_T0_DpT1_EES7_E4typeEOS8_DpOS9_
	addq	$16, %rsp
	popq	%rbp
	.cfi_def_cfa %rsp, 8
	retq
.Lfunc_end49:
	.size	_ZNSt17_Function_handlerIFvN4sycl3_V114exception_listEEPS3_E9_M_invokeERKSt9_Any_dataOS2_, .Lfunc_end49-_ZNSt17_Function_handlerIFvN4sycl3_V114exception_listEEPS3_E9_M_invokeERKSt9_Any_dataOS2_
	.cfi_endproc
                                        # -- End function
	.section	.text._ZNSt17_Function_handlerIFvN4sycl3_V114exception_listEEPS3_E10_M_managerERSt9_Any_dataRKS6_St18_Manager_operation,"axG",@progbits,_ZNSt17_Function_handlerIFvN4sycl3_V114exception_listEEPS3_E10_M_managerERSt9_Any_dataRKS6_St18_Manager_operation,comdat
	.weak	_ZNSt17_Function_handlerIFvN4sycl3_V114exception_listEEPS3_E10_M_managerERSt9_Any_dataRKS6_St18_Manager_operation # -- Begin function _ZNSt17_Function_handlerIFvN4sycl3_V114exception_listEEPS3_E10_M_managerERSt9_Any_dataRKS6_St18_Manager_operation
	.p2align	4
	.type	_ZNSt17_Function_handlerIFvN4sycl3_V114exception_listEEPS3_E10_M_managerERSt9_Any_dataRKS6_St18_Manager_operation,@function
_ZNSt17_Function_handlerIFvN4sycl3_V114exception_listEEPS3_E10_M_managerERSt9_Any_dataRKS6_St18_Manager_operation: # @_ZNSt17_Function_handlerIFvN4sycl3_V114exception_listEEPS3_E10_M_managerERSt9_Any_dataRKS6_St18_Manager_operation
	.cfi_startproc
# %bb.0:                                # %entry
	pushq	%rbp
	.cfi_def_cfa_offset 16
	.cfi_offset %rbp, -16
	movq	%rsp, %rbp
	.cfi_def_cfa_register %rbp
	subq	$32, %rsp
	movq	%rdi, -8(%rbp)
	movq	%rsi, -16(%rbp)
	movl	%edx, -20(%rbp)
	movl	-20(%rbp), %eax
	movl	%eax, -24(%rbp)                 # 4-byte Spill
	testl	%eax, %eax
	je	.LBB50_1
	jmp	.LBB50_5
.LBB50_5:                               # %entry
	movl	-24(%rbp), %eax                 # 4-byte Reload
	subl	$1, %eax
	je	.LBB50_2
	jmp	.LBB50_3
.LBB50_1:                               # %sw.bb
	movq	-8(%rbp), %rdi
	callq	_ZNSt9_Any_data9_M_accessIPKSt9type_infoEERT_v
	movabsq	$_ZTIPFvN4sycl3_V114exception_listEE, %rcx
	movq	%rcx, (%rax)
	jmp	.LBB50_4
.LBB50_2:                               # %sw.bb1
	movq	-16(%rbp), %rdi
	callq	_ZNSt14_Function_base13_Base_managerIPFvN4sycl3_V114exception_listEEE14_M_get_pointerERKSt9_Any_data
	movq	%rax, -32(%rbp)                 # 8-byte Spill
	movq	-8(%rbp), %rdi
	callq	_ZNSt9_Any_data9_M_accessIPPFvN4sycl3_V114exception_listEEEERT_v
	movq	-32(%rbp), %rcx                 # 8-byte Reload
	movq	%rcx, (%rax)
	jmp	.LBB50_4
.LBB50_3:                               # %sw.default
	movq	-8(%rbp), %rdi
	movq	-16(%rbp), %rsi
	movl	-20(%rbp), %edx
	callq	_ZNSt14_Function_base13_Base_managerIPFvN4sycl3_V114exception_listEEE10_M_managerERSt9_Any_dataRKS7_St18_Manager_operation
.LBB50_4:                               # %sw.epilog
	xorl	%eax, %eax
                                        # kill: def $al killed $al killed $eax
	andb	$1, %al
	addq	$32, %rsp
	popq	%rbp
	.cfi_def_cfa %rsp, 8
	retq
.Lfunc_end50:
	.size	_ZNSt17_Function_handlerIFvN4sycl3_V114exception_listEEPS3_E10_M_managerERSt9_Any_dataRKS6_St18_Manager_operation, .Lfunc_end50-_ZNSt17_Function_handlerIFvN4sycl3_V114exception_listEEPS3_E10_M_managerERSt9_Any_dataRKS6_St18_Manager_operation
	.cfi_endproc
                                        # -- End function
	.section	.text._ZNSt14_Function_base13_Base_managerIPFvN4sycl3_V114exception_listEEE9_M_createIRS4_EEvRSt9_Any_dataOT_St17integral_constantIbLb1EE,"axG",@progbits,_ZNSt14_Function_base13_Base_managerIPFvN4sycl3_V114exception_listEEE9_M_createIRS4_EEvRSt9_Any_dataOT_St17integral_constantIbLb1EE,comdat
	.weak	_ZNSt14_Function_base13_Base_managerIPFvN4sycl3_V114exception_listEEE9_M_createIRS4_EEvRSt9_Any_dataOT_St17integral_constantIbLb1EE # -- Begin function _ZNSt14_Function_base13_Base_managerIPFvN4sycl3_V114exception_listEEE9_M_createIRS4_EEvRSt9_Any_dataOT_St17integral_constantIbLb1EE
	.p2align	4
	.type	_ZNSt14_Function_base13_Base_managerIPFvN4sycl3_V114exception_listEEE9_M_createIRS4_EEvRSt9_Any_dataOT_St17integral_constantIbLb1EE,@function
_ZNSt14_Function_base13_Base_managerIPFvN4sycl3_V114exception_listEEE9_M_createIRS4_EEvRSt9_Any_dataOT_St17integral_constantIbLb1EE: # @_ZNSt14_Function_base13_Base_managerIPFvN4sycl3_V114exception_listEEE9_M_createIRS4_EEvRSt9_Any_dataOT_St17integral_constantIbLb1EE
	.cfi_startproc
# %bb.0:                                # %entry
	pushq	%rbp
	.cfi_def_cfa_offset 16
	.cfi_offset %rbp, -16
	movq	%rsp, %rbp
	.cfi_def_cfa_register %rbp
	subq	$32, %rsp
	movq	%rdi, -16(%rbp)
	movq	%rsi, -24(%rbp)
	movq	-16(%rbp), %rdi
	callq	_ZNSt9_Any_data9_M_accessEv
	movq	-24(%rbp), %rcx
	movq	%rcx, (%rax)
	addq	$32, %rsp
	popq	%rbp
	.cfi_def_cfa %rsp, 8
	retq
.Lfunc_end51:
	.size	_ZNSt14_Function_base13_Base_managerIPFvN4sycl3_V114exception_listEEE9_M_createIRS4_EEvRSt9_Any_dataOT_St17integral_constantIbLb1EE, .Lfunc_end51-_ZNSt14_Function_base13_Base_managerIPFvN4sycl3_V114exception_listEEE9_M_createIRS4_EEvRSt9_Any_dataOT_St17integral_constantIbLb1EE
	.cfi_endproc
                                        # -- End function
	.section	.text._ZNSt9_Any_data9_M_accessEv,"axG",@progbits,_ZNSt9_Any_data9_M_accessEv,comdat
	.weak	_ZNSt9_Any_data9_M_accessEv     # -- Begin function _ZNSt9_Any_data9_M_accessEv
	.p2align	4
	.type	_ZNSt9_Any_data9_M_accessEv,@function
_ZNSt9_Any_data9_M_accessEv:            # @_ZNSt9_Any_data9_M_accessEv
	.cfi_startproc
# %bb.0:                                # %entry
	pushq	%rbp
	.cfi_def_cfa_offset 16
	.cfi_offset %rbp, -16
	movq	%rsp, %rbp
	.cfi_def_cfa_register %rbp
	movq	%rdi, -8(%rbp)
	movq	-8(%rbp), %rax
	popq	%rbp
	.cfi_def_cfa %rsp, 8
	retq
.Lfunc_end52:
	.size	_ZNSt9_Any_data9_M_accessEv, .Lfunc_end52-_ZNSt9_Any_data9_M_accessEv
	.cfi_endproc
                                        # -- End function
	.section	.text._ZSt10__invoke_rIvRPFvN4sycl3_V114exception_listEEJS2_EENSt9enable_ifIX16is_invocable_r_vIT_T0_DpT1_EES7_E4typeEOS8_DpOS9_,"axG",@progbits,_ZSt10__invoke_rIvRPFvN4sycl3_V114exception_listEEJS2_EENSt9enable_ifIX16is_invocable_r_vIT_T0_DpT1_EES7_E4typeEOS8_DpOS9_,comdat
	.weak	_ZSt10__invoke_rIvRPFvN4sycl3_V114exception_listEEJS2_EENSt9enable_ifIX16is_invocable_r_vIT_T0_DpT1_EES7_E4typeEOS8_DpOS9_ # -- Begin function _ZSt10__invoke_rIvRPFvN4sycl3_V114exception_listEEJS2_EENSt9enable_ifIX16is_invocable_r_vIT_T0_DpT1_EES7_E4typeEOS8_DpOS9_
	.p2align	4
	.type	_ZSt10__invoke_rIvRPFvN4sycl3_V114exception_listEEJS2_EENSt9enable_ifIX16is_invocable_r_vIT_T0_DpT1_EES7_E4typeEOS8_DpOS9_,@function
_ZSt10__invoke_rIvRPFvN4sycl3_V114exception_listEEJS2_EENSt9enable_ifIX16is_invocable_r_vIT_T0_DpT1_EES7_E4typeEOS8_DpOS9_: # @_ZSt10__invoke_rIvRPFvN4sycl3_V114exception_listEEJS2_EENSt9enable_ifIX16is_invocable_r_vIT_T0_DpT1_EES7_E4typeEOS8_DpOS9_
	.cfi_startproc
# %bb.0:                                # %entry
	pushq	%rbp
	.cfi_def_cfa_offset 16
	.cfi_offset %rbp, -16
	movq	%rsp, %rbp
	.cfi_def_cfa_register %rbp
	subq	$32, %rsp
	movq	%rdi, -8(%rbp)
	movq	%rsi, -16(%rbp)
	movq	-8(%rbp), %rdi
	movq	-16(%rbp), %rsi
	callq	_ZSt13__invoke_implIvRPFvN4sycl3_V114exception_listEEJS2_EET_St14__invoke_otherOT0_DpOT1_
	addq	$32, %rsp
	popq	%rbp
	.cfi_def_cfa %rsp, 8
	retq
.Lfunc_end53:
	.size	_ZSt10__invoke_rIvRPFvN4sycl3_V114exception_listEEJS2_EENSt9enable_ifIX16is_invocable_r_vIT_T0_DpT1_EES7_E4typeEOS8_DpOS9_, .Lfunc_end53-_ZSt10__invoke_rIvRPFvN4sycl3_V114exception_listEEJS2_EENSt9enable_ifIX16is_invocable_r_vIT_T0_DpT1_EES7_E4typeEOS8_DpOS9_
	.cfi_endproc
                                        # -- End function
	.section	.text._ZNSt14_Function_base13_Base_managerIPFvN4sycl3_V114exception_listEEE14_M_get_pointerERKSt9_Any_data,"axG",@progbits,_ZNSt14_Function_base13_Base_managerIPFvN4sycl3_V114exception_listEEE14_M_get_pointerERKSt9_Any_data,comdat
	.weak	_ZNSt14_Function_base13_Base_managerIPFvN4sycl3_V114exception_listEEE14_M_get_pointerERKSt9_Any_data # -- Begin function _ZNSt14_Function_base13_Base_managerIPFvN4sycl3_V114exception_listEEE14_M_get_pointerERKSt9_Any_data
	.p2align	4
	.type	_ZNSt14_Function_base13_Base_managerIPFvN4sycl3_V114exception_listEEE14_M_get_pointerERKSt9_Any_data,@function
_ZNSt14_Function_base13_Base_managerIPFvN4sycl3_V114exception_listEEE14_M_get_pointerERKSt9_Any_data: # @_ZNSt14_Function_base13_Base_managerIPFvN4sycl3_V114exception_listEEE14_M_get_pointerERKSt9_Any_data
	.cfi_startproc
# %bb.0:                                # %entry
	pushq	%rbp
	.cfi_def_cfa_offset 16
	.cfi_offset %rbp, -16
	movq	%rsp, %rbp
	.cfi_def_cfa_register %rbp
	subq	$16, %rsp
	movq	%rdi, -8(%rbp)
	movq	-8(%rbp), %rdi
	callq	_ZNKSt9_Any_data9_M_accessIPFvN4sycl3_V114exception_listEEEERKT_v
	movq	%rax, -16(%rbp)
	movq	-16(%rbp), %rax
	addq	$16, %rsp
	popq	%rbp
	.cfi_def_cfa %rsp, 8
	retq
.Lfunc_end54:
	.size	_ZNSt14_Function_base13_Base_managerIPFvN4sycl3_V114exception_listEEE14_M_get_pointerERKSt9_Any_data, .Lfunc_end54-_ZNSt14_Function_base13_Base_managerIPFvN4sycl3_V114exception_listEEE14_M_get_pointerERKSt9_Any_data
	.cfi_endproc
                                        # -- End function
	.section	.text._ZSt13__invoke_implIvRPFvN4sycl3_V114exception_listEEJS2_EET_St14__invoke_otherOT0_DpOT1_,"axG",@progbits,_ZSt13__invoke_implIvRPFvN4sycl3_V114exception_listEEJS2_EET_St14__invoke_otherOT0_DpOT1_,comdat
	.weak	_ZSt13__invoke_implIvRPFvN4sycl3_V114exception_listEEJS2_EET_St14__invoke_otherOT0_DpOT1_ # -- Begin function _ZSt13__invoke_implIvRPFvN4sycl3_V114exception_listEEJS2_EET_St14__invoke_otherOT0_DpOT1_
	.p2align	4
	.type	_ZSt13__invoke_implIvRPFvN4sycl3_V114exception_listEEJS2_EET_St14__invoke_otherOT0_DpOT1_,@function
_ZSt13__invoke_implIvRPFvN4sycl3_V114exception_listEEJS2_EET_St14__invoke_otherOT0_DpOT1_: # @_ZSt13__invoke_implIvRPFvN4sycl3_V114exception_listEEJS2_EET_St14__invoke_otherOT0_DpOT1_
.Lfunc_begin10:
	.cfi_startproc
	.cfi_personality 3, __gxx_personality_v0
	.cfi_lsda 3, .Lexception10
# %bb.0:                                # %entry
	pushq	%rbp
	.cfi_def_cfa_offset 16
	.cfi_offset %rbp, -16
	movq	%rsp, %rbp
	.cfi_def_cfa_register %rbp
	subq	$80, %rsp
	movq	%rdi, -16(%rbp)
	movq	%rsi, -24(%rbp)
	movq	-16(%rbp), %rax
	movq	(%rax), %rax
	movq	%rax, -72(%rbp)                 # 8-byte Spill
	movq	-24(%rbp), %rsi
	leaq	-48(%rbp), %rdi
	movq	%rdi, -80(%rbp)                 # 8-byte Spill
	callq	_ZN4sycl3_V114exception_listC2EOS1_
	movq	-80(%rbp), %rdi                 # 8-byte Reload
	movq	-72(%rbp), %rax                 # 8-byte Reload
.Ltmp94:                                # EH_LABEL
	callq	*%rax
.Ltmp95:                                # EH_LABEL
	jmp	.LBB55_1
.LBB55_1:                               # %invoke.cont
	leaq	-48(%rbp), %rdi
	callq	_ZN4sycl3_V114exception_listD2Ev
	addq	$80, %rsp
	popq	%rbp
	.cfi_def_cfa %rsp, 8
	retq
.LBB55_2:                               # %lpad
	.cfi_def_cfa %rbp, 16
.Ltmp96:                                # EH_LABEL
	movq	%rax, %rcx
	movl	%edx, %eax
	movq	%rcx, -56(%rbp)
	movl	%eax, -60(%rbp)
	leaq	-48(%rbp), %rdi
	callq	_ZN4sycl3_V114exception_listD2Ev
# %bb.3:                                # %eh.resume
	movq	-56(%rbp), %rdi
	callq	_Unwind_Resume@PLT
.Lfunc_end55:
	.size	_ZSt13__invoke_implIvRPFvN4sycl3_V114exception_listEEJS2_EET_St14__invoke_otherOT0_DpOT1_, .Lfunc_end55-_ZSt13__invoke_implIvRPFvN4sycl3_V114exception_listEEJS2_EET_St14__invoke_otherOT0_DpOT1_
	.cfi_endproc
	.section	.gcc_except_table._ZSt13__invoke_implIvRPFvN4sycl3_V114exception_listEEJS2_EET_St14__invoke_otherOT0_DpOT1_,"aG",@progbits,_ZSt13__invoke_implIvRPFvN4sycl3_V114exception_listEEJS2_EET_St14__invoke_otherOT0_DpOT1_,comdat
	.p2align	2, 0x0
GCC_except_table55:
.Lexception10:
	.byte	255                             # @LPStart Encoding = omit
	.byte	255                             # @TType Encoding = omit
	.byte	1                               # Call site Encoding = uleb128
	.uleb128 .Lcst_end10-.Lcst_begin10
.Lcst_begin10:
	.uleb128 .Ltmp94-.Lfunc_begin10         # >> Call Site 1 <<
	.uleb128 .Ltmp95-.Ltmp94                #   Call between .Ltmp94 and .Ltmp95
	.uleb128 .Ltmp96-.Lfunc_begin10         #     jumps to .Ltmp96
	.byte	0                               #   On action: cleanup
	.uleb128 .Ltmp95-.Lfunc_begin10         # >> Call Site 2 <<
	.uleb128 .Lfunc_end55-.Ltmp95           #   Call between .Ltmp95 and .Lfunc_end55
	.byte	0                               #     has no landing pad
	.byte	0                               #   On action: cleanup
.Lcst_end10:
	.p2align	2, 0x0
                                        # -- End function
	.section	.text._ZN4sycl3_V114exception_listC2EOS1_,"axG",@progbits,_ZN4sycl3_V114exception_listC2EOS1_,comdat
	.weak	_ZN4sycl3_V114exception_listC2EOS1_ # -- Begin function _ZN4sycl3_V114exception_listC2EOS1_
	.p2align	4
	.type	_ZN4sycl3_V114exception_listC2EOS1_,@function
_ZN4sycl3_V114exception_listC2EOS1_:    # @_ZN4sycl3_V114exception_listC2EOS1_
	.cfi_startproc
# %bb.0:                                # %entry
	pushq	%rbp
	.cfi_def_cfa_offset 16
	.cfi_offset %rbp, -16
	movq	%rsp, %rbp
	.cfi_def_cfa_register %rbp
	subq	$16, %rsp
	movq	%rdi, -8(%rbp)
	movq	%rsi, -16(%rbp)
	movq	-8(%rbp), %rdi
	movq	-16(%rbp), %rsi
	callq	_ZNSt6vectorINSt15__exception_ptr13exception_ptrESaIS1_EEC2EOS3_
	addq	$16, %rsp
	popq	%rbp
	.cfi_def_cfa %rsp, 8
	retq
.Lfunc_end56:
	.size	_ZN4sycl3_V114exception_listC2EOS1_, .Lfunc_end56-_ZN4sycl3_V114exception_listC2EOS1_
	.cfi_endproc
                                        # -- End function
	.section	.text._ZN4sycl3_V114exception_listD2Ev,"axG",@progbits,_ZN4sycl3_V114exception_listD2Ev,comdat
	.weak	_ZN4sycl3_V114exception_listD2Ev # -- Begin function _ZN4sycl3_V114exception_listD2Ev
	.p2align	4
	.type	_ZN4sycl3_V114exception_listD2Ev,@function
_ZN4sycl3_V114exception_listD2Ev:       # @_ZN4sycl3_V114exception_listD2Ev
	.cfi_startproc
# %bb.0:                                # %entry
	pushq	%rbp
	.cfi_def_cfa_offset 16
	.cfi_offset %rbp, -16
	movq	%rsp, %rbp
	.cfi_def_cfa_register %rbp
	subq	$16, %rsp
	movq	%rdi, -8(%rbp)
	movq	-8(%rbp), %rdi
	callq	_ZNSt6vectorINSt15__exception_ptr13exception_ptrESaIS1_EED2Ev
	addq	$16, %rsp
	popq	%rbp
	.cfi_def_cfa %rsp, 8
	retq
.Lfunc_end57:
	.size	_ZN4sycl3_V114exception_listD2Ev, .Lfunc_end57-_ZN4sycl3_V114exception_listD2Ev
	.cfi_endproc
                                        # -- End function
	.section	.text._ZNSt6vectorINSt15__exception_ptr13exception_ptrESaIS1_EEC2EOS3_,"axG",@progbits,_ZNSt6vectorINSt15__exception_ptr13exception_ptrESaIS1_EEC2EOS3_,comdat
	.weak	_ZNSt6vectorINSt15__exception_ptr13exception_ptrESaIS1_EEC2EOS3_ # -- Begin function _ZNSt6vectorINSt15__exception_ptr13exception_ptrESaIS1_EEC2EOS3_
	.p2align	4
	.type	_ZNSt6vectorINSt15__exception_ptr13exception_ptrESaIS1_EEC2EOS3_,@function
_ZNSt6vectorINSt15__exception_ptr13exception_ptrESaIS1_EEC2EOS3_: # @_ZNSt6vectorINSt15__exception_ptr13exception_ptrESaIS1_EEC2EOS3_
	.cfi_startproc
# %bb.0:                                # %entry
	pushq	%rbp
	.cfi_def_cfa_offset 16
	.cfi_offset %rbp, -16
	movq	%rsp, %rbp
	.cfi_def_cfa_register %rbp
	subq	$16, %rsp
	movq	%rdi, -8(%rbp)
	movq	%rsi, -16(%rbp)
	movq	-8(%rbp), %rdi
	movq	-16(%rbp), %rsi
	callq	_ZNSt12_Vector_baseINSt15__exception_ptr13exception_ptrESaIS1_EEC2EOS3_
	addq	$16, %rsp
	popq	%rbp
	.cfi_def_cfa %rsp, 8
	retq
.Lfunc_end58:
	.size	_ZNSt6vectorINSt15__exception_ptr13exception_ptrESaIS1_EEC2EOS3_, .Lfunc_end58-_ZNSt6vectorINSt15__exception_ptr13exception_ptrESaIS1_EEC2EOS3_
	.cfi_endproc
                                        # -- End function
	.section	.text._ZNSt12_Vector_baseINSt15__exception_ptr13exception_ptrESaIS1_EEC2EOS3_,"axG",@progbits,_ZNSt12_Vector_baseINSt15__exception_ptr13exception_ptrESaIS1_EEC2EOS3_,comdat
	.weak	_ZNSt12_Vector_baseINSt15__exception_ptr13exception_ptrESaIS1_EEC2EOS3_ # -- Begin function _ZNSt12_Vector_baseINSt15__exception_ptr13exception_ptrESaIS1_EEC2EOS3_
	.p2align	4
	.type	_ZNSt12_Vector_baseINSt15__exception_ptr13exception_ptrESaIS1_EEC2EOS3_,@function
_ZNSt12_Vector_baseINSt15__exception_ptr13exception_ptrESaIS1_EEC2EOS3_: # @_ZNSt12_Vector_baseINSt15__exception_ptr13exception_ptrESaIS1_EEC2EOS3_
	.cfi_startproc
# %bb.0:                                # %entry
	pushq	%rbp
	.cfi_def_cfa_offset 16
	.cfi_offset %rbp, -16
	movq	%rsp, %rbp
	.cfi_def_cfa_register %rbp
	subq	$16, %rsp
	movq	%rdi, -8(%rbp)
	movq	%rsi, -16(%rbp)
	movq	-8(%rbp), %rdi
	movq	-16(%rbp), %rsi
	callq	_ZNSt12_Vector_baseINSt15__exception_ptr13exception_ptrESaIS1_EE12_Vector_implC2EOS4_
	addq	$16, %rsp
	popq	%rbp
	.cfi_def_cfa %rsp, 8
	retq
.Lfunc_end59:
	.size	_ZNSt12_Vector_baseINSt15__exception_ptr13exception_ptrESaIS1_EEC2EOS3_, .Lfunc_end59-_ZNSt12_Vector_baseINSt15__exception_ptr13exception_ptrESaIS1_EEC2EOS3_
	.cfi_endproc
                                        # -- End function
	.section	.text._ZNSt12_Vector_baseINSt15__exception_ptr13exception_ptrESaIS1_EE12_Vector_implC2EOS4_,"axG",@progbits,_ZNSt12_Vector_baseINSt15__exception_ptr13exception_ptrESaIS1_EE12_Vector_implC2EOS4_,comdat
	.weak	_ZNSt12_Vector_baseINSt15__exception_ptr13exception_ptrESaIS1_EE12_Vector_implC2EOS4_ # -- Begin function _ZNSt12_Vector_baseINSt15__exception_ptr13exception_ptrESaIS1_EE12_Vector_implC2EOS4_
	.p2align	4
	.type	_ZNSt12_Vector_baseINSt15__exception_ptr13exception_ptrESaIS1_EE12_Vector_implC2EOS4_,@function
_ZNSt12_Vector_baseINSt15__exception_ptr13exception_ptrESaIS1_EE12_Vector_implC2EOS4_: # @_ZNSt12_Vector_baseINSt15__exception_ptr13exception_ptrESaIS1_EE12_Vector_implC2EOS4_
	.cfi_startproc
# %bb.0:                                # %entry
	pushq	%rbp
	.cfi_def_cfa_offset 16
	.cfi_offset %rbp, -16
	movq	%rsp, %rbp
	.cfi_def_cfa_register %rbp
	subq	$48, %rsp
	movq	%rdi, -40(%rbp)
	movq	%rsi, -48(%rbp)
	movq	-40(%rbp), %rdi
	movq	-48(%rbp), %rax
	movq	%rdi, -24(%rbp)
	movq	%rax, -32(%rbp)
	movq	-24(%rbp), %rcx
	movq	-32(%rbp), %rax
	movq	%rcx, -8(%rbp)
	movq	%rax, -16(%rbp)
	movq	-48(%rbp), %rsi
	callq	_ZNSt12_Vector_baseINSt15__exception_ptr13exception_ptrESaIS1_EE17_Vector_impl_dataC2EOS4_
	addq	$48, %rsp
	popq	%rbp
	.cfi_def_cfa %rsp, 8
	retq
.Lfunc_end60:
	.size	_ZNSt12_Vector_baseINSt15__exception_ptr13exception_ptrESaIS1_EE12_Vector_implC2EOS4_, .Lfunc_end60-_ZNSt12_Vector_baseINSt15__exception_ptr13exception_ptrESaIS1_EE12_Vector_implC2EOS4_
	.cfi_endproc
                                        # -- End function
	.section	.text._ZNSt12_Vector_baseINSt15__exception_ptr13exception_ptrESaIS1_EE17_Vector_impl_dataC2EOS4_,"axG",@progbits,_ZNSt12_Vector_baseINSt15__exception_ptr13exception_ptrESaIS1_EE17_Vector_impl_dataC2EOS4_,comdat
	.weak	_ZNSt12_Vector_baseINSt15__exception_ptr13exception_ptrESaIS1_EE17_Vector_impl_dataC2EOS4_ # -- Begin function _ZNSt12_Vector_baseINSt15__exception_ptr13exception_ptrESaIS1_EE17_Vector_impl_dataC2EOS4_
	.p2align	4
	.type	_ZNSt12_Vector_baseINSt15__exception_ptr13exception_ptrESaIS1_EE17_Vector_impl_dataC2EOS4_,@function
_ZNSt12_Vector_baseINSt15__exception_ptr13exception_ptrESaIS1_EE17_Vector_impl_dataC2EOS4_: # @_ZNSt12_Vector_baseINSt15__exception_ptr13exception_ptrESaIS1_EE17_Vector_impl_dataC2EOS4_
	.cfi_startproc
# %bb.0:                                # %entry
	pushq	%rbp
	.cfi_def_cfa_offset 16
	.cfi_offset %rbp, -16
	movq	%rsp, %rbp
	.cfi_def_cfa_register %rbp
	movq	%rdi, -8(%rbp)
	movq	%rsi, -16(%rbp)
	movq	-8(%rbp), %rax
	movq	-16(%rbp), %rcx
	movq	(%rcx), %rcx
	movq	%rcx, (%rax)
	movq	-16(%rbp), %rcx
	movq	8(%rcx), %rcx
	movq	%rcx, 8(%rax)
	movq	-16(%rbp), %rcx
	movq	16(%rcx), %rcx
	movq	%rcx, 16(%rax)
	movq	-16(%rbp), %rax
	movq	$0, 16(%rax)
	movq	-16(%rbp), %rax
	movq	$0, 8(%rax)
	movq	-16(%rbp), %rax
	movq	$0, (%rax)
	popq	%rbp
	.cfi_def_cfa %rsp, 8
	retq
.Lfunc_end61:
	.size	_ZNSt12_Vector_baseINSt15__exception_ptr13exception_ptrESaIS1_EE17_Vector_impl_dataC2EOS4_, .Lfunc_end61-_ZNSt12_Vector_baseINSt15__exception_ptr13exception_ptrESaIS1_EE17_Vector_impl_dataC2EOS4_
	.cfi_endproc
                                        # -- End function
	.section	.text._ZNSt6vectorINSt15__exception_ptr13exception_ptrESaIS1_EED2Ev,"axG",@progbits,_ZNSt6vectorINSt15__exception_ptr13exception_ptrESaIS1_EED2Ev,comdat
	.weak	_ZNSt6vectorINSt15__exception_ptr13exception_ptrESaIS1_EED2Ev # -- Begin function _ZNSt6vectorINSt15__exception_ptr13exception_ptrESaIS1_EED2Ev
	.p2align	4
	.type	_ZNSt6vectorINSt15__exception_ptr13exception_ptrESaIS1_EED2Ev,@function
_ZNSt6vectorINSt15__exception_ptr13exception_ptrESaIS1_EED2Ev: # @_ZNSt6vectorINSt15__exception_ptr13exception_ptrESaIS1_EED2Ev
.Lfunc_begin11:
	.cfi_startproc
	.cfi_personality 3, __gxx_personality_v0
	.cfi_lsda 3, .Lexception11
# %bb.0:                                # %entry
	pushq	%rbp
	.cfi_def_cfa_offset 16
	.cfi_offset %rbp, -16
	movq	%rsp, %rbp
	.cfi_def_cfa_register %rbp
	subq	$64, %rsp
	movq	%rdi, -32(%rbp)
	movq	-32(%rbp), %rdi
	movq	%rdi, -56(%rbp)                 # 8-byte Spill
	movq	(%rdi), %rax
	movq	%rax, -48(%rbp)                 # 8-byte Spill
	movq	8(%rdi), %rax
	movq	%rax, -40(%rbp)                 # 8-byte Spill
	callq	_ZNSt12_Vector_baseINSt15__exception_ptr13exception_ptrESaIS1_EE19_M_get_Tp_allocatorEv
	movq	-48(%rbp), %rdx                 # 8-byte Reload
	movq	-40(%rbp), %rcx                 # 8-byte Reload
	movq	%rdx, -8(%rbp)
	movq	%rcx, -16(%rbp)
	movq	%rax, -24(%rbp)
	movq	-8(%rbp), %rdi
	movq	-16(%rbp), %rsi
.Ltmp97:                                # EH_LABEL
	callq	_ZSt8_DestroyIPNSt15__exception_ptr13exception_ptrEEvT_S3_
.Ltmp98:                                # EH_LABEL
	jmp	.LBB62_1
.LBB62_1:                               # %_ZSt8_DestroyIPNSt15__exception_ptr13exception_ptrES1_EvT_S3_RSaIT0_E.exit
	jmp	.LBB62_2
.LBB62_2:                               # %invoke.cont
	movq	-56(%rbp), %rdi                 # 8-byte Reload
	callq	_ZNSt12_Vector_baseINSt15__exception_ptr13exception_ptrESaIS1_EED2Ev
	addq	$64, %rsp
	popq	%rbp
	.cfi_def_cfa %rsp, 8
	retq
.LBB62_3:                               # %terminate.lpad
	.cfi_def_cfa %rbp, 16
.Ltmp99:                                # EH_LABEL
	movq	%rax, %rdi
                                        # kill: def $eax killed $edx killed $rdx
	callq	__clang_call_terminate
.Lfunc_end62:
	.size	_ZNSt6vectorINSt15__exception_ptr13exception_ptrESaIS1_EED2Ev, .Lfunc_end62-_ZNSt6vectorINSt15__exception_ptr13exception_ptrESaIS1_EED2Ev
	.cfi_endproc
	.section	.gcc_except_table._ZNSt6vectorINSt15__exception_ptr13exception_ptrESaIS1_EED2Ev,"aG",@progbits,_ZNSt6vectorINSt15__exception_ptr13exception_ptrESaIS1_EED2Ev,comdat
	.p2align	2, 0x0
GCC_except_table62:
.Lexception11:
	.byte	255                             # @LPStart Encoding = omit
	.byte	3                               # @TType Encoding = udata4
	.uleb128 .Lttbase5-.Lttbaseref5
.Lttbaseref5:
	.byte	1                               # Call site Encoding = uleb128
	.uleb128 .Lcst_end11-.Lcst_begin11
.Lcst_begin11:
	.uleb128 .Ltmp97-.Lfunc_begin11         # >> Call Site 1 <<
	.uleb128 .Ltmp98-.Ltmp97                #   Call between .Ltmp97 and .Ltmp98
	.uleb128 .Ltmp99-.Lfunc_begin11         #     jumps to .Ltmp99
	.byte	1                               #   On action: 1
.Lcst_end11:
	.byte	1                               # >> Action Record 1 <<
                                        #   Catch TypeInfo 1
	.byte	0                               #   No further actions
	.p2align	2, 0x0
                                        # >> Catch TypeInfos <<
	.long	0                               # TypeInfo 1
.Lttbase5:
	.p2align	2, 0x0
                                        # -- End function
	.section	.text._ZNSt12_Vector_baseINSt15__exception_ptr13exception_ptrESaIS1_EE19_M_get_Tp_allocatorEv,"axG",@progbits,_ZNSt12_Vector_baseINSt15__exception_ptr13exception_ptrESaIS1_EE19_M_get_Tp_allocatorEv,comdat
	.weak	_ZNSt12_Vector_baseINSt15__exception_ptr13exception_ptrESaIS1_EE19_M_get_Tp_allocatorEv # -- Begin function _ZNSt12_Vector_baseINSt15__exception_ptr13exception_ptrESaIS1_EE19_M_get_Tp_allocatorEv
	.p2align	4
	.type	_ZNSt12_Vector_baseINSt15__exception_ptr13exception_ptrESaIS1_EE19_M_get_Tp_allocatorEv,@function
_ZNSt12_Vector_baseINSt15__exception_ptr13exception_ptrESaIS1_EE19_M_get_Tp_allocatorEv: # @_ZNSt12_Vector_baseINSt15__exception_ptr13exception_ptrESaIS1_EE19_M_get_Tp_allocatorEv
	.cfi_startproc
# %bb.0:                                # %entry
	pushq	%rbp
	.cfi_def_cfa_offset 16
	.cfi_offset %rbp, -16
	movq	%rsp, %rbp
	.cfi_def_cfa_register %rbp
	movq	%rdi, -8(%rbp)
	movq	-8(%rbp), %rax
	popq	%rbp
	.cfi_def_cfa %rsp, 8
	retq
.Lfunc_end63:
	.size	_ZNSt12_Vector_baseINSt15__exception_ptr13exception_ptrESaIS1_EE19_M_get_Tp_allocatorEv, .Lfunc_end63-_ZNSt12_Vector_baseINSt15__exception_ptr13exception_ptrESaIS1_EE19_M_get_Tp_allocatorEv
	.cfi_endproc
                                        # -- End function
	.section	.text._ZNSt12_Vector_baseINSt15__exception_ptr13exception_ptrESaIS1_EED2Ev,"axG",@progbits,_ZNSt12_Vector_baseINSt15__exception_ptr13exception_ptrESaIS1_EED2Ev,comdat
	.weak	_ZNSt12_Vector_baseINSt15__exception_ptr13exception_ptrESaIS1_EED2Ev # -- Begin function _ZNSt12_Vector_baseINSt15__exception_ptr13exception_ptrESaIS1_EED2Ev
	.p2align	4
	.type	_ZNSt12_Vector_baseINSt15__exception_ptr13exception_ptrESaIS1_EED2Ev,@function
_ZNSt12_Vector_baseINSt15__exception_ptr13exception_ptrESaIS1_EED2Ev: # @_ZNSt12_Vector_baseINSt15__exception_ptr13exception_ptrESaIS1_EED2Ev
.Lfunc_begin12:
	.cfi_startproc
	.cfi_personality 3, __gxx_personality_v0
	.cfi_lsda 3, .Lexception12
# %bb.0:                                # %entry
	pushq	%rbp
	.cfi_def_cfa_offset 16
	.cfi_offset %rbp, -16
	movq	%rsp, %rbp
	.cfi_def_cfa_register %rbp
	subq	$16, %rsp
	movq	%rdi, -8(%rbp)
	movq	-8(%rbp), %rdi
	movq	%rdi, -16(%rbp)                 # 8-byte Spill
	movq	(%rdi), %rsi
	movq	16(%rdi), %rdx
	subq	%rsi, %rdx
	sarq	$3, %rdx
.Ltmp100:                               # EH_LABEL
	callq	_ZNSt12_Vector_baseINSt15__exception_ptr13exception_ptrESaIS1_EE13_M_deallocateEPS1_m
.Ltmp101:                               # EH_LABEL
	jmp	.LBB64_1
.LBB64_1:                               # %invoke.cont
	movq	-16(%rbp), %rdi                 # 8-byte Reload
	callq	_ZNSt12_Vector_baseINSt15__exception_ptr13exception_ptrESaIS1_EE12_Vector_implD2Ev
	addq	$16, %rsp
	popq	%rbp
	.cfi_def_cfa %rsp, 8
	retq
.LBB64_2:                               # %terminate.lpad
	.cfi_def_cfa %rbp, 16
.Ltmp102:                               # EH_LABEL
	movq	%rax, %rdi
                                        # kill: def $eax killed $edx killed $rdx
	callq	__clang_call_terminate
.Lfunc_end64:
	.size	_ZNSt12_Vector_baseINSt15__exception_ptr13exception_ptrESaIS1_EED2Ev, .Lfunc_end64-_ZNSt12_Vector_baseINSt15__exception_ptr13exception_ptrESaIS1_EED2Ev
	.cfi_endproc
	.section	.gcc_except_table._ZNSt12_Vector_baseINSt15__exception_ptr13exception_ptrESaIS1_EED2Ev,"aG",@progbits,_ZNSt12_Vector_baseINSt15__exception_ptr13exception_ptrESaIS1_EED2Ev,comdat
	.p2align	2, 0x0
GCC_except_table64:
.Lexception12:
	.byte	255                             # @LPStart Encoding = omit
	.byte	3                               # @TType Encoding = udata4
	.uleb128 .Lttbase6-.Lttbaseref6
.Lttbaseref6:
	.byte	1                               # Call site Encoding = uleb128
	.uleb128 .Lcst_end12-.Lcst_begin12
.Lcst_begin12:
	.uleb128 .Ltmp100-.Lfunc_begin12        # >> Call Site 1 <<
	.uleb128 .Ltmp101-.Ltmp100              #   Call between .Ltmp100 and .Ltmp101
	.uleb128 .Ltmp102-.Lfunc_begin12        #     jumps to .Ltmp102
	.byte	1                               #   On action: 1
.Lcst_end12:
	.byte	1                               # >> Action Record 1 <<
                                        #   Catch TypeInfo 1
	.byte	0                               #   No further actions
	.p2align	2, 0x0
                                        # >> Catch TypeInfos <<
	.long	0                               # TypeInfo 1
.Lttbase6:
	.p2align	2, 0x0
                                        # -- End function
	.section	.text._ZSt8_DestroyIPNSt15__exception_ptr13exception_ptrEEvT_S3_,"axG",@progbits,_ZSt8_DestroyIPNSt15__exception_ptr13exception_ptrEEvT_S3_,comdat
	.weak	_ZSt8_DestroyIPNSt15__exception_ptr13exception_ptrEEvT_S3_ # -- Begin function _ZSt8_DestroyIPNSt15__exception_ptr13exception_ptrEEvT_S3_
	.p2align	4
	.type	_ZSt8_DestroyIPNSt15__exception_ptr13exception_ptrEEvT_S3_,@function
_ZSt8_DestroyIPNSt15__exception_ptr13exception_ptrEEvT_S3_: # @_ZSt8_DestroyIPNSt15__exception_ptr13exception_ptrEEvT_S3_
	.cfi_startproc
# %bb.0:                                # %entry
	pushq	%rbp
	.cfi_def_cfa_offset 16
	.cfi_offset %rbp, -16
	movq	%rsp, %rbp
	.cfi_def_cfa_register %rbp
	subq	$16, %rsp
	movq	%rdi, -8(%rbp)
	movq	%rsi, -16(%rbp)
	movq	-8(%rbp), %rdi
	movq	-16(%rbp), %rsi
	callq	_ZNSt12_Destroy_auxILb0EE9__destroyIPNSt15__exception_ptr13exception_ptrEEEvT_S5_
	addq	$16, %rsp
	popq	%rbp
	.cfi_def_cfa %rsp, 8
	retq
.Lfunc_end65:
	.size	_ZSt8_DestroyIPNSt15__exception_ptr13exception_ptrEEvT_S3_, .Lfunc_end65-_ZSt8_DestroyIPNSt15__exception_ptr13exception_ptrEEvT_S3_
	.cfi_endproc
                                        # -- End function
	.section	.text._ZNSt12_Destroy_auxILb0EE9__destroyIPNSt15__exception_ptr13exception_ptrEEEvT_S5_,"axG",@progbits,_ZNSt12_Destroy_auxILb0EE9__destroyIPNSt15__exception_ptr13exception_ptrEEEvT_S5_,comdat
	.weak	_ZNSt12_Destroy_auxILb0EE9__destroyIPNSt15__exception_ptr13exception_ptrEEEvT_S5_ # -- Begin function _ZNSt12_Destroy_auxILb0EE9__destroyIPNSt15__exception_ptr13exception_ptrEEEvT_S5_
	.p2align	4
	.type	_ZNSt12_Destroy_auxILb0EE9__destroyIPNSt15__exception_ptr13exception_ptrEEEvT_S5_,@function
_ZNSt12_Destroy_auxILb0EE9__destroyIPNSt15__exception_ptr13exception_ptrEEEvT_S5_: # @_ZNSt12_Destroy_auxILb0EE9__destroyIPNSt15__exception_ptr13exception_ptrEEEvT_S5_
	.cfi_startproc
# %bb.0:                                # %entry
	pushq	%rbp
	.cfi_def_cfa_offset 16
	.cfi_offset %rbp, -16
	movq	%rsp, %rbp
	.cfi_def_cfa_register %rbp
	subq	$16, %rsp
	movq	%rdi, -8(%rbp)
	movq	%rsi, -16(%rbp)
.LBB66_1:                               # %for.cond
                                        # =>This Inner Loop Header: Depth=1
	movq	-8(%rbp), %rax
	cmpq	-16(%rbp), %rax
	je	.LBB66_4
# %bb.2:                                # %for.body
                                        #   in Loop: Header=BB66_1 Depth=1
	movq	-8(%rbp), %rdi
	callq	_ZSt8_DestroyINSt15__exception_ptr13exception_ptrEEvPT_
# %bb.3:                                # %for.inc
                                        #   in Loop: Header=BB66_1 Depth=1
	movq	-8(%rbp), %rax
	addq	$8, %rax
	movq	%rax, -8(%rbp)
	jmp	.LBB66_1
.LBB66_4:                               # %for.end
	addq	$16, %rsp
	popq	%rbp
	.cfi_def_cfa %rsp, 8
	retq
.Lfunc_end66:
	.size	_ZNSt12_Destroy_auxILb0EE9__destroyIPNSt15__exception_ptr13exception_ptrEEEvT_S5_, .Lfunc_end66-_ZNSt12_Destroy_auxILb0EE9__destroyIPNSt15__exception_ptr13exception_ptrEEEvT_S5_
	.cfi_endproc
                                        # -- End function
	.section	.text._ZSt8_DestroyINSt15__exception_ptr13exception_ptrEEvPT_,"axG",@progbits,_ZSt8_DestroyINSt15__exception_ptr13exception_ptrEEvPT_,comdat
	.weak	_ZSt8_DestroyINSt15__exception_ptr13exception_ptrEEvPT_ # -- Begin function _ZSt8_DestroyINSt15__exception_ptr13exception_ptrEEvPT_
	.p2align	4
	.type	_ZSt8_DestroyINSt15__exception_ptr13exception_ptrEEvPT_,@function
_ZSt8_DestroyINSt15__exception_ptr13exception_ptrEEvPT_: # @_ZSt8_DestroyINSt15__exception_ptr13exception_ptrEEvPT_
	.cfi_startproc
# %bb.0:                                # %entry
	pushq	%rbp
	.cfi_def_cfa_offset 16
	.cfi_offset %rbp, -16
	movq	%rsp, %rbp
	.cfi_def_cfa_register %rbp
	subq	$16, %rsp
	movq	%rdi, -8(%rbp)
	movq	-8(%rbp), %rdi
	callq	_ZNSt15__exception_ptr13exception_ptrD2Ev
	addq	$16, %rsp
	popq	%rbp
	.cfi_def_cfa %rsp, 8
	retq
.Lfunc_end67:
	.size	_ZSt8_DestroyINSt15__exception_ptr13exception_ptrEEvPT_, .Lfunc_end67-_ZSt8_DestroyINSt15__exception_ptr13exception_ptrEEvPT_
	.cfi_endproc
                                        # -- End function
	.section	.text._ZNSt12_Vector_baseINSt15__exception_ptr13exception_ptrESaIS1_EE13_M_deallocateEPS1_m,"axG",@progbits,_ZNSt12_Vector_baseINSt15__exception_ptr13exception_ptrESaIS1_EE13_M_deallocateEPS1_m,comdat
	.weak	_ZNSt12_Vector_baseINSt15__exception_ptr13exception_ptrESaIS1_EE13_M_deallocateEPS1_m # -- Begin function _ZNSt12_Vector_baseINSt15__exception_ptr13exception_ptrESaIS1_EE13_M_deallocateEPS1_m
	.p2align	4
	.type	_ZNSt12_Vector_baseINSt15__exception_ptr13exception_ptrESaIS1_EE13_M_deallocateEPS1_m,@function
_ZNSt12_Vector_baseINSt15__exception_ptr13exception_ptrESaIS1_EE13_M_deallocateEPS1_m: # @_ZNSt12_Vector_baseINSt15__exception_ptr13exception_ptrESaIS1_EE13_M_deallocateEPS1_m
	.cfi_startproc
# %bb.0:                                # %entry
	pushq	%rbp
	.cfi_def_cfa_offset 16
	.cfi_offset %rbp, -16
	movq	%rsp, %rbp
	.cfi_def_cfa_register %rbp
	subq	$64, %rsp
	movq	%rdi, -32(%rbp)
	movq	%rsi, -40(%rbp)
	movq	%rdx, -48(%rbp)
	movq	-32(%rbp), %rax
	movq	%rax, -56(%rbp)                 # 8-byte Spill
	cmpq	$0, -40(%rbp)
	je	.LBB68_2
# %bb.1:                                # %if.then
	movq	-56(%rbp), %rdx                 # 8-byte Reload
	movq	-40(%rbp), %rcx
	movq	-48(%rbp), %rax
	movq	%rdx, -8(%rbp)
	movq	%rcx, -16(%rbp)
	movq	%rax, -24(%rbp)
	movq	-8(%rbp), %rdi
	movq	-16(%rbp), %rsi
	movq	-24(%rbp), %rdx
	callq	_ZNSt15__new_allocatorINSt15__exception_ptr13exception_ptrEE10deallocateEPS1_m
.LBB68_2:                               # %if.end
	addq	$64, %rsp
	popq	%rbp
	.cfi_def_cfa %rsp, 8
	retq
.Lfunc_end68:
	.size	_ZNSt12_Vector_baseINSt15__exception_ptr13exception_ptrESaIS1_EE13_M_deallocateEPS1_m, .Lfunc_end68-_ZNSt12_Vector_baseINSt15__exception_ptr13exception_ptrESaIS1_EE13_M_deallocateEPS1_m
	.cfi_endproc
                                        # -- End function
	.section	.text._ZNSt12_Vector_baseINSt15__exception_ptr13exception_ptrESaIS1_EE12_Vector_implD2Ev,"axG",@progbits,_ZNSt12_Vector_baseINSt15__exception_ptr13exception_ptrESaIS1_EE12_Vector_implD2Ev,comdat
	.weak	_ZNSt12_Vector_baseINSt15__exception_ptr13exception_ptrESaIS1_EE12_Vector_implD2Ev # -- Begin function _ZNSt12_Vector_baseINSt15__exception_ptr13exception_ptrESaIS1_EE12_Vector_implD2Ev
	.p2align	4
	.type	_ZNSt12_Vector_baseINSt15__exception_ptr13exception_ptrESaIS1_EE12_Vector_implD2Ev,@function
_ZNSt12_Vector_baseINSt15__exception_ptr13exception_ptrESaIS1_EE12_Vector_implD2Ev: # @_ZNSt12_Vector_baseINSt15__exception_ptr13exception_ptrESaIS1_EE12_Vector_implD2Ev
	.cfi_startproc
# %bb.0:                                # %entry
	pushq	%rbp
	.cfi_def_cfa_offset 16
	.cfi_offset %rbp, -16
	movq	%rsp, %rbp
	.cfi_def_cfa_register %rbp
	subq	$16, %rsp
	movq	%rdi, -16(%rbp)
	movq	-16(%rbp), %rax
	movq	%rax, -8(%rbp)
	movq	-8(%rbp), %rdi
	callq	_ZNSt15__new_allocatorINSt15__exception_ptr13exception_ptrEED2Ev
	addq	$16, %rsp
	popq	%rbp
	.cfi_def_cfa %rsp, 8
	retq
.Lfunc_end69:
	.size	_ZNSt12_Vector_baseINSt15__exception_ptr13exception_ptrESaIS1_EE12_Vector_implD2Ev, .Lfunc_end69-_ZNSt12_Vector_baseINSt15__exception_ptr13exception_ptrESaIS1_EE12_Vector_implD2Ev
	.cfi_endproc
                                        # -- End function
	.section	.text._ZNSt15__new_allocatorINSt15__exception_ptr13exception_ptrEE10deallocateEPS1_m,"axG",@progbits,_ZNSt15__new_allocatorINSt15__exception_ptr13exception_ptrEE10deallocateEPS1_m,comdat
	.weak	_ZNSt15__new_allocatorINSt15__exception_ptr13exception_ptrEE10deallocateEPS1_m # -- Begin function _ZNSt15__new_allocatorINSt15__exception_ptr13exception_ptrEE10deallocateEPS1_m
	.p2align	4
	.type	_ZNSt15__new_allocatorINSt15__exception_ptr13exception_ptrEE10deallocateEPS1_m,@function
_ZNSt15__new_allocatorINSt15__exception_ptr13exception_ptrEE10deallocateEPS1_m: # @_ZNSt15__new_allocatorINSt15__exception_ptr13exception_ptrEE10deallocateEPS1_m
	.cfi_startproc
# %bb.0:                                # %entry
	pushq	%rbp
	.cfi_def_cfa_offset 16
	.cfi_offset %rbp, -16
	movq	%rsp, %rbp
	.cfi_def_cfa_register %rbp
	subq	$32, %rsp
	movq	%rdi, -8(%rbp)
	movq	%rsi, -16(%rbp)
	movq	%rdx, -24(%rbp)
	movq	-16(%rbp), %rdi
	movq	-24(%rbp), %rsi
	shlq	$3, %rsi
	callq	_ZdlPvm
	addq	$32, %rsp
	popq	%rbp
	.cfi_def_cfa %rsp, 8
	retq
.Lfunc_end70:
	.size	_ZNSt15__new_allocatorINSt15__exception_ptr13exception_ptrEE10deallocateEPS1_m, .Lfunc_end70-_ZNSt15__new_allocatorINSt15__exception_ptr13exception_ptrEE10deallocateEPS1_m
	.cfi_endproc
                                        # -- End function
	.section	.text._ZNSt15__new_allocatorINSt15__exception_ptr13exception_ptrEED2Ev,"axG",@progbits,_ZNSt15__new_allocatorINSt15__exception_ptr13exception_ptrEED2Ev,comdat
	.weak	_ZNSt15__new_allocatorINSt15__exception_ptr13exception_ptrEED2Ev # -- Begin function _ZNSt15__new_allocatorINSt15__exception_ptr13exception_ptrEED2Ev
	.p2align	4
	.type	_ZNSt15__new_allocatorINSt15__exception_ptr13exception_ptrEED2Ev,@function
_ZNSt15__new_allocatorINSt15__exception_ptr13exception_ptrEED2Ev: # @_ZNSt15__new_allocatorINSt15__exception_ptr13exception_ptrEED2Ev
	.cfi_startproc
# %bb.0:                                # %entry
	pushq	%rbp
	.cfi_def_cfa_offset 16
	.cfi_offset %rbp, -16
	movq	%rsp, %rbp
	.cfi_def_cfa_register %rbp
	movq	%rdi, -8(%rbp)
	popq	%rbp
	.cfi_def_cfa %rsp, 8
	retq
.Lfunc_end71:
	.size	_ZNSt15__new_allocatorINSt15__exception_ptr13exception_ptrEED2Ev, .Lfunc_end71-_ZNSt15__new_allocatorINSt15__exception_ptr13exception_ptrEED2Ev
	.cfi_endproc
                                        # -- End function
	.section	.text._ZNKSt9_Any_data9_M_accessIPFvN4sycl3_V114exception_listEEEERKT_v,"axG",@progbits,_ZNKSt9_Any_data9_M_accessIPFvN4sycl3_V114exception_listEEEERKT_v,comdat
	.weak	_ZNKSt9_Any_data9_M_accessIPFvN4sycl3_V114exception_listEEEERKT_v # -- Begin function _ZNKSt9_Any_data9_M_accessIPFvN4sycl3_V114exception_listEEEERKT_v
	.p2align	4
	.type	_ZNKSt9_Any_data9_M_accessIPFvN4sycl3_V114exception_listEEEERKT_v,@function
_ZNKSt9_Any_data9_M_accessIPFvN4sycl3_V114exception_listEEEERKT_v: # @_ZNKSt9_Any_data9_M_accessIPFvN4sycl3_V114exception_listEEEERKT_v
	.cfi_startproc
# %bb.0:                                # %entry
	pushq	%rbp
	.cfi_def_cfa_offset 16
	.cfi_offset %rbp, -16
	movq	%rsp, %rbp
	.cfi_def_cfa_register %rbp
	subq	$16, %rsp
	movq	%rdi, -8(%rbp)
	movq	-8(%rbp), %rdi
	callq	_ZNKSt9_Any_data9_M_accessEv
	addq	$16, %rsp
	popq	%rbp
	.cfi_def_cfa %rsp, 8
	retq
.Lfunc_end72:
	.size	_ZNKSt9_Any_data9_M_accessIPFvN4sycl3_V114exception_listEEEERKT_v, .Lfunc_end72-_ZNKSt9_Any_data9_M_accessIPFvN4sycl3_V114exception_listEEEERKT_v
	.cfi_endproc
                                        # -- End function
	.section	.text._ZNKSt9_Any_data9_M_accessEv,"axG",@progbits,_ZNKSt9_Any_data9_M_accessEv,comdat
	.weak	_ZNKSt9_Any_data9_M_accessEv    # -- Begin function _ZNKSt9_Any_data9_M_accessEv
	.p2align	4
	.type	_ZNKSt9_Any_data9_M_accessEv,@function
_ZNKSt9_Any_data9_M_accessEv:           # @_ZNKSt9_Any_data9_M_accessEv
	.cfi_startproc
# %bb.0:                                # %entry
	pushq	%rbp
	.cfi_def_cfa_offset 16
	.cfi_offset %rbp, -16
	movq	%rsp, %rbp
	.cfi_def_cfa_register %rbp
	movq	%rdi, -8(%rbp)
	movq	-8(%rbp), %rax
	popq	%rbp
	.cfi_def_cfa %rsp, 8
	retq
.Lfunc_end73:
	.size	_ZNKSt9_Any_data9_M_accessEv, .Lfunc_end73-_ZNKSt9_Any_data9_M_accessEv
	.cfi_endproc
                                        # -- End function
	.section	.text._ZNSt9_Any_data9_M_accessIPKSt9type_infoEERT_v,"axG",@progbits,_ZNSt9_Any_data9_M_accessIPKSt9type_infoEERT_v,comdat
	.weak	_ZNSt9_Any_data9_M_accessIPKSt9type_infoEERT_v # -- Begin function _ZNSt9_Any_data9_M_accessIPKSt9type_infoEERT_v
	.p2align	4
	.type	_ZNSt9_Any_data9_M_accessIPKSt9type_infoEERT_v,@function
_ZNSt9_Any_data9_M_accessIPKSt9type_infoEERT_v: # @_ZNSt9_Any_data9_M_accessIPKSt9type_infoEERT_v
	.cfi_startproc
# %bb.0:                                # %entry
	pushq	%rbp
	.cfi_def_cfa_offset 16
	.cfi_offset %rbp, -16
	movq	%rsp, %rbp
	.cfi_def_cfa_register %rbp
	subq	$16, %rsp
	movq	%rdi, -8(%rbp)
	movq	-8(%rbp), %rdi
	callq	_ZNSt9_Any_data9_M_accessEv
	addq	$16, %rsp
	popq	%rbp
	.cfi_def_cfa %rsp, 8
	retq
.Lfunc_end74:
	.size	_ZNSt9_Any_data9_M_accessIPKSt9type_infoEERT_v, .Lfunc_end74-_ZNSt9_Any_data9_M_accessIPKSt9type_infoEERT_v
	.cfi_endproc
                                        # -- End function
	.section	.text._ZNSt9_Any_data9_M_accessIPPFvN4sycl3_V114exception_listEEEERT_v,"axG",@progbits,_ZNSt9_Any_data9_M_accessIPPFvN4sycl3_V114exception_listEEEERT_v,comdat
	.weak	_ZNSt9_Any_data9_M_accessIPPFvN4sycl3_V114exception_listEEEERT_v # -- Begin function _ZNSt9_Any_data9_M_accessIPPFvN4sycl3_V114exception_listEEEERT_v
	.p2align	4
	.type	_ZNSt9_Any_data9_M_accessIPPFvN4sycl3_V114exception_listEEEERT_v,@function
_ZNSt9_Any_data9_M_accessIPPFvN4sycl3_V114exception_listEEEERT_v: # @_ZNSt9_Any_data9_M_accessIPPFvN4sycl3_V114exception_listEEEERT_v
	.cfi_startproc
# %bb.0:                                # %entry
	pushq	%rbp
	.cfi_def_cfa_offset 16
	.cfi_offset %rbp, -16
	movq	%rsp, %rbp
	.cfi_def_cfa_register %rbp
	subq	$16, %rsp
	movq	%rdi, -8(%rbp)
	movq	-8(%rbp), %rdi
	callq	_ZNSt9_Any_data9_M_accessEv
	addq	$16, %rsp
	popq	%rbp
	.cfi_def_cfa %rsp, 8
	retq
.Lfunc_end75:
	.size	_ZNSt9_Any_data9_M_accessIPPFvN4sycl3_V114exception_listEEEERT_v, .Lfunc_end75-_ZNSt9_Any_data9_M_accessIPPFvN4sycl3_V114exception_listEEEERT_v
	.cfi_endproc
                                        # -- End function
	.section	.text._ZNSt14_Function_base13_Base_managerIPFvN4sycl3_V114exception_listEEE10_M_managerERSt9_Any_dataRKS7_St18_Manager_operation,"axG",@progbits,_ZNSt14_Function_base13_Base_managerIPFvN4sycl3_V114exception_listEEE10_M_managerERSt9_Any_dataRKS7_St18_Manager_operation,comdat
	.weak	_ZNSt14_Function_base13_Base_managerIPFvN4sycl3_V114exception_listEEE10_M_managerERSt9_Any_dataRKS7_St18_Manager_operation # -- Begin function _ZNSt14_Function_base13_Base_managerIPFvN4sycl3_V114exception_listEEE10_M_managerERSt9_Any_dataRKS7_St18_Manager_operation
	.p2align	4
	.type	_ZNSt14_Function_base13_Base_managerIPFvN4sycl3_V114exception_listEEE10_M_managerERSt9_Any_dataRKS7_St18_Manager_operation,@function
_ZNSt14_Function_base13_Base_managerIPFvN4sycl3_V114exception_listEEE10_M_managerERSt9_Any_dataRKS7_St18_Manager_operation: # @_ZNSt14_Function_base13_Base_managerIPFvN4sycl3_V114exception_listEEE10_M_managerERSt9_Any_dataRKS7_St18_Manager_operation
	.cfi_startproc
# %bb.0:                                # %entry
	pushq	%rbp
	.cfi_def_cfa_offset 16
	.cfi_offset %rbp, -16
	movq	%rsp, %rbp
	.cfi_def_cfa_register %rbp
	subq	$48, %rsp
	movq	%rdi, -8(%rbp)
	movq	%rsi, -16(%rbp)
	movl	%edx, -20(%rbp)
	movl	-20(%rbp), %eax
                                        # kill: def $rax killed $eax
	movq	%rax, -32(%rbp)                 # 8-byte Spill
	subq	$3, %rax
	ja	.LBB76_5
# %bb.6:                                # %entry
	movq	-32(%rbp), %rax                 # 8-byte Reload
	movq	.LJTI76_0(,%rax,8), %rax
	jmpq	*%rax
.LBB76_1:                               # %sw.bb
	movq	-8(%rbp), %rdi
	callq	_ZNSt9_Any_data9_M_accessIPKSt9type_infoEERT_v
	movabsq	$_ZTIPFvN4sycl3_V114exception_listEE, %rcx
	movq	%rcx, (%rax)
	jmp	.LBB76_5
.LBB76_2:                               # %sw.bb1
	movq	-16(%rbp), %rdi
	callq	_ZNSt14_Function_base13_Base_managerIPFvN4sycl3_V114exception_listEEE14_M_get_pointerERKSt9_Any_data
	movq	%rax, -40(%rbp)                 # 8-byte Spill
	movq	-8(%rbp), %rdi
	callq	_ZNSt9_Any_data9_M_accessIPPFvN4sycl3_V114exception_listEEEERT_v
	movq	-40(%rbp), %rcx                 # 8-byte Reload
	movq	%rcx, (%rax)
	jmp	.LBB76_5
.LBB76_3:                               # %sw.bb4
	movq	-8(%rbp), %rax
	movq	%rax, -48(%rbp)                 # 8-byte Spill
	movq	-16(%rbp), %rdi
	callq	_ZNSt14_Function_base13_Base_managerIPFvN4sycl3_V114exception_listEEE14_M_get_pointerERKSt9_Any_data
	movq	-48(%rbp), %rdi                 # 8-byte Reload
	movq	%rax, %rsi
	callq	_ZNSt14_Function_base13_Base_managerIPFvN4sycl3_V114exception_listEEE15_M_init_functorIRKS5_EEvRSt9_Any_dataOT_
	jmp	.LBB76_5
.LBB76_4:                               # %sw.bb6
	movq	-8(%rbp), %rdi
	callq	_ZNSt14_Function_base13_Base_managerIPFvN4sycl3_V114exception_listEEE10_M_destroyERSt9_Any_dataSt17integral_constantIbLb1EE
.LBB76_5:                               # %sw.epilog
	xorl	%eax, %eax
                                        # kill: def $al killed $al killed $eax
	andb	$1, %al
	addq	$48, %rsp
	popq	%rbp
	.cfi_def_cfa %rsp, 8
	retq
.Lfunc_end76:
	.size	_ZNSt14_Function_base13_Base_managerIPFvN4sycl3_V114exception_listEEE10_M_managerERSt9_Any_dataRKS7_St18_Manager_operation, .Lfunc_end76-_ZNSt14_Function_base13_Base_managerIPFvN4sycl3_V114exception_listEEE10_M_managerERSt9_Any_dataRKS7_St18_Manager_operation
	.cfi_endproc
	.section	.rodata._ZNSt14_Function_base13_Base_managerIPFvN4sycl3_V114exception_listEEE10_M_managerERSt9_Any_dataRKS7_St18_Manager_operation,"aG",@progbits,_ZNSt14_Function_base13_Base_managerIPFvN4sycl3_V114exception_listEEE10_M_managerERSt9_Any_dataRKS7_St18_Manager_operation,comdat
	.p2align	3, 0x0
.LJTI76_0:
	.quad	.LBB76_1
	.quad	.LBB76_2
	.quad	.LBB76_3
	.quad	.LBB76_4
                                        # -- End function
	.section	.text._ZNSt14_Function_base13_Base_managerIPFvN4sycl3_V114exception_listEEE15_M_init_functorIRKS5_EEvRSt9_Any_dataOT_,"axG",@progbits,_ZNSt14_Function_base13_Base_managerIPFvN4sycl3_V114exception_listEEE15_M_init_functorIRKS5_EEvRSt9_Any_dataOT_,comdat
	.weak	_ZNSt14_Function_base13_Base_managerIPFvN4sycl3_V114exception_listEEE15_M_init_functorIRKS5_EEvRSt9_Any_dataOT_ # -- Begin function _ZNSt14_Function_base13_Base_managerIPFvN4sycl3_V114exception_listEEE15_M_init_functorIRKS5_EEvRSt9_Any_dataOT_
	.p2align	4
	.type	_ZNSt14_Function_base13_Base_managerIPFvN4sycl3_V114exception_listEEE15_M_init_functorIRKS5_EEvRSt9_Any_dataOT_,@function
_ZNSt14_Function_base13_Base_managerIPFvN4sycl3_V114exception_listEEE15_M_init_functorIRKS5_EEvRSt9_Any_dataOT_: # @_ZNSt14_Function_base13_Base_managerIPFvN4sycl3_V114exception_listEEE15_M_init_functorIRKS5_EEvRSt9_Any_dataOT_
.Lfunc_begin13:
	.cfi_startproc
	.cfi_personality 3, __gxx_personality_v0
	.cfi_lsda 3, .Lexception13
# %bb.0:                                # %entry
	pushq	%rbp
	.cfi_def_cfa_offset 16
	.cfi_offset %rbp, -16
	movq	%rsp, %rbp
	.cfi_def_cfa_register %rbp
	subq	$32, %rsp
	movq	%rdi, -8(%rbp)
	movq	%rsi, -16(%rbp)
	movq	-8(%rbp), %rdi
	movq	-16(%rbp), %rsi
.Ltmp103:                               # EH_LABEL
	callq	_ZNSt14_Function_base13_Base_managerIPFvN4sycl3_V114exception_listEEE9_M_createIRKS5_EEvRSt9_Any_dataOT_St17integral_constantIbLb1EE
.Ltmp104:                               # EH_LABEL
	jmp	.LBB77_1
.LBB77_1:                               # %invoke.cont
	addq	$32, %rsp
	popq	%rbp
	.cfi_def_cfa %rsp, 8
	retq
.LBB77_2:                               # %terminate.lpad
	.cfi_def_cfa %rbp, 16
.Ltmp105:                               # EH_LABEL
	movq	%rax, %rdi
                                        # kill: def $eax killed $edx killed $rdx
	callq	__clang_call_terminate
.Lfunc_end77:
	.size	_ZNSt14_Function_base13_Base_managerIPFvN4sycl3_V114exception_listEEE15_M_init_functorIRKS5_EEvRSt9_Any_dataOT_, .Lfunc_end77-_ZNSt14_Function_base13_Base_managerIPFvN4sycl3_V114exception_listEEE15_M_init_functorIRKS5_EEvRSt9_Any_dataOT_
	.cfi_endproc
	.section	.gcc_except_table._ZNSt14_Function_base13_Base_managerIPFvN4sycl3_V114exception_listEEE15_M_init_functorIRKS5_EEvRSt9_Any_dataOT_,"aG",@progbits,_ZNSt14_Function_base13_Base_managerIPFvN4sycl3_V114exception_listEEE15_M_init_functorIRKS5_EEvRSt9_Any_dataOT_,comdat
	.p2align	2, 0x0
GCC_except_table77:
.Lexception13:
	.byte	255                             # @LPStart Encoding = omit
	.byte	3                               # @TType Encoding = udata4
	.uleb128 .Lttbase7-.Lttbaseref7
.Lttbaseref7:
	.byte	1                               # Call site Encoding = uleb128
	.uleb128 .Lcst_end13-.Lcst_begin13
.Lcst_begin13:
	.uleb128 .Ltmp103-.Lfunc_begin13        # >> Call Site 1 <<
	.uleb128 .Ltmp104-.Ltmp103              #   Call between .Ltmp103 and .Ltmp104
	.uleb128 .Ltmp105-.Lfunc_begin13        #     jumps to .Ltmp105
	.byte	1                               #   On action: 1
.Lcst_end13:
	.byte	1                               # >> Action Record 1 <<
                                        #   Catch TypeInfo 1
	.byte	0                               #   No further actions
	.p2align	2, 0x0
                                        # >> Catch TypeInfos <<
	.long	0                               # TypeInfo 1
.Lttbase7:
	.p2align	2, 0x0
                                        # -- End function
	.section	.text._ZNSt14_Function_base13_Base_managerIPFvN4sycl3_V114exception_listEEE10_M_destroyERSt9_Any_dataSt17integral_constantIbLb1EE,"axG",@progbits,_ZNSt14_Function_base13_Base_managerIPFvN4sycl3_V114exception_listEEE10_M_destroyERSt9_Any_dataSt17integral_constantIbLb1EE,comdat
	.weak	_ZNSt14_Function_base13_Base_managerIPFvN4sycl3_V114exception_listEEE10_M_destroyERSt9_Any_dataSt17integral_constantIbLb1EE # -- Begin function _ZNSt14_Function_base13_Base_managerIPFvN4sycl3_V114exception_listEEE10_M_destroyERSt9_Any_dataSt17integral_constantIbLb1EE
	.p2align	4
	.type	_ZNSt14_Function_base13_Base_managerIPFvN4sycl3_V114exception_listEEE10_M_destroyERSt9_Any_dataSt17integral_constantIbLb1EE,@function
_ZNSt14_Function_base13_Base_managerIPFvN4sycl3_V114exception_listEEE10_M_destroyERSt9_Any_dataSt17integral_constantIbLb1EE: # @_ZNSt14_Function_base13_Base_managerIPFvN4sycl3_V114exception_listEEE10_M_destroyERSt9_Any_dataSt17integral_constantIbLb1EE
	.cfi_startproc
# %bb.0:                                # %entry
	pushq	%rbp
	.cfi_def_cfa_offset 16
	.cfi_offset %rbp, -16
	movq	%rsp, %rbp
	.cfi_def_cfa_register %rbp
	subq	$16, %rsp
	movq	%rdi, -16(%rbp)
	movq	-16(%rbp), %rdi
	callq	_ZNSt9_Any_data9_M_accessIPFvN4sycl3_V114exception_listEEEERT_v
	addq	$16, %rsp
	popq	%rbp
	.cfi_def_cfa %rsp, 8
	retq
.Lfunc_end78:
	.size	_ZNSt14_Function_base13_Base_managerIPFvN4sycl3_V114exception_listEEE10_M_destroyERSt9_Any_dataSt17integral_constantIbLb1EE, .Lfunc_end78-_ZNSt14_Function_base13_Base_managerIPFvN4sycl3_V114exception_listEEE10_M_destroyERSt9_Any_dataSt17integral_constantIbLb1EE
	.cfi_endproc
                                        # -- End function
	.section	.text._ZNSt14_Function_base13_Base_managerIPFvN4sycl3_V114exception_listEEE9_M_createIRKS5_EEvRSt9_Any_dataOT_St17integral_constantIbLb1EE,"axG",@progbits,_ZNSt14_Function_base13_Base_managerIPFvN4sycl3_V114exception_listEEE9_M_createIRKS5_EEvRSt9_Any_dataOT_St17integral_constantIbLb1EE,comdat
	.weak	_ZNSt14_Function_base13_Base_managerIPFvN4sycl3_V114exception_listEEE9_M_createIRKS5_EEvRSt9_Any_dataOT_St17integral_constantIbLb1EE # -- Begin function _ZNSt14_Function_base13_Base_managerIPFvN4sycl3_V114exception_listEEE9_M_createIRKS5_EEvRSt9_Any_dataOT_St17integral_constantIbLb1EE
	.p2align	4
	.type	_ZNSt14_Function_base13_Base_managerIPFvN4sycl3_V114exception_listEEE9_M_createIRKS5_EEvRSt9_Any_dataOT_St17integral_constantIbLb1EE,@function
_ZNSt14_Function_base13_Base_managerIPFvN4sycl3_V114exception_listEEE9_M_createIRKS5_EEvRSt9_Any_dataOT_St17integral_constantIbLb1EE: # @_ZNSt14_Function_base13_Base_managerIPFvN4sycl3_V114exception_listEEE9_M_createIRKS5_EEvRSt9_Any_dataOT_St17integral_constantIbLb1EE
	.cfi_startproc
# %bb.0:                                # %entry
	pushq	%rbp
	.cfi_def_cfa_offset 16
	.cfi_offset %rbp, -16
	movq	%rsp, %rbp
	.cfi_def_cfa_register %rbp
	subq	$32, %rsp
	movq	%rdi, -16(%rbp)
	movq	%rsi, -24(%rbp)
	movq	-16(%rbp), %rdi
	callq	_ZNSt9_Any_data9_M_accessEv
	movq	-24(%rbp), %rcx
	movq	(%rcx), %rcx
	movq	%rcx, (%rax)
	addq	$32, %rsp
	popq	%rbp
	.cfi_def_cfa %rsp, 8
	retq
.Lfunc_end79:
	.size	_ZNSt14_Function_base13_Base_managerIPFvN4sycl3_V114exception_listEEE9_M_createIRKS5_EEvRSt9_Any_dataOT_St17integral_constantIbLb1EE, .Lfunc_end79-_ZNSt14_Function_base13_Base_managerIPFvN4sycl3_V114exception_listEEE9_M_createIRKS5_EEvRSt9_Any_dataOT_St17integral_constantIbLb1EE
	.cfi_endproc
                                        # -- End function
	.section	.text._ZNSt9_Any_data9_M_accessIPFvN4sycl3_V114exception_listEEEERT_v,"axG",@progbits,_ZNSt9_Any_data9_M_accessIPFvN4sycl3_V114exception_listEEEERT_v,comdat
	.weak	_ZNSt9_Any_data9_M_accessIPFvN4sycl3_V114exception_listEEEERT_v # -- Begin function _ZNSt9_Any_data9_M_accessIPFvN4sycl3_V114exception_listEEEERT_v
	.p2align	4
	.type	_ZNSt9_Any_data9_M_accessIPFvN4sycl3_V114exception_listEEEERT_v,@function
_ZNSt9_Any_data9_M_accessIPFvN4sycl3_V114exception_listEEEERT_v: # @_ZNSt9_Any_data9_M_accessIPFvN4sycl3_V114exception_listEEEERT_v
	.cfi_startproc
# %bb.0:                                # %entry
	pushq	%rbp
	.cfi_def_cfa_offset 16
	.cfi_offset %rbp, -16
	movq	%rsp, %rbp
	.cfi_def_cfa_register %rbp
	subq	$16, %rsp
	movq	%rdi, -8(%rbp)
	movq	-8(%rbp), %rdi
	callq	_ZNSt9_Any_data9_M_accessEv
	addq	$16, %rsp
	popq	%rbp
	.cfi_def_cfa %rsp, 8
	retq
.Lfunc_end80:
	.size	_ZNSt9_Any_data9_M_accessIPFvN4sycl3_V114exception_listEEEERT_v, .Lfunc_end80-_ZNSt9_Any_data9_M_accessIPFvN4sycl3_V114exception_listEEEERT_v
	.cfi_endproc
                                        # -- End function
	.section	.text._ZNSt8functionIFiRKN4sycl3_V16deviceEEEC2IRS5_vEEOT_,"axG",@progbits,_ZNSt8functionIFiRKN4sycl3_V16deviceEEEC2IRS5_vEEOT_,comdat
	.weak	_ZNSt8functionIFiRKN4sycl3_V16deviceEEEC2IRS5_vEEOT_ # -- Begin function _ZNSt8functionIFiRKN4sycl3_V16deviceEEEC2IRS5_vEEOT_
	.p2align	4
	.type	_ZNSt8functionIFiRKN4sycl3_V16deviceEEEC2IRS5_vEEOT_,@function
_ZNSt8functionIFiRKN4sycl3_V16deviceEEEC2IRS5_vEEOT_: # @_ZNSt8functionIFiRKN4sycl3_V16deviceEEEC2IRS5_vEEOT_
	.cfi_startproc
# %bb.0:                                # %entry
	pushq	%rbp
	.cfi_def_cfa_offset 16
	.cfi_offset %rbp, -16
	movq	%rsp, %rbp
	.cfi_def_cfa_register %rbp
	subq	$32, %rsp
	movq	%rdi, -8(%rbp)
	movq	%rsi, -16(%rbp)
	movq	-8(%rbp), %rdi
	movq	%rdi, -24(%rbp)                 # 8-byte Spill
	xorl	%esi, %esi
	movl	$24, %edx
	callq	memset@PLT
	movq	-24(%rbp), %rdi                 # 8-byte Reload
	callq	_ZNSt14_Function_baseC2Ev
	movq	-24(%rbp), %rax                 # 8-byte Reload
	movq	$0, 24(%rax)
	movq	-16(%rbp), %rdi
	callq	_ZNSt14_Function_base13_Base_managerIPFiRKN4sycl3_V16deviceEEE21_M_not_empty_functionIS6_EEbPT_
	testb	$1, %al
	jne	.LBB81_1
	jmp	.LBB81_2
.LBB81_1:                               # %if.then
	movq	-24(%rbp), %rdi                 # 8-byte Reload
	movq	-16(%rbp), %rsi
	callq	_ZNSt14_Function_base13_Base_managerIPFiRKN4sycl3_V16deviceEEE15_M_init_functorIRS6_EEvRSt9_Any_dataOT_
	movq	-24(%rbp), %rax                 # 8-byte Reload
	movabsq	$_ZNSt17_Function_handlerIFiRKN4sycl3_V16deviceEEPS5_E9_M_invokeERKSt9_Any_dataS4_, %rcx
	movq	%rcx, 24(%rax)
	movabsq	$_ZNSt17_Function_handlerIFiRKN4sycl3_V16deviceEEPS5_E10_M_managerERSt9_Any_dataRKS8_St18_Manager_operation, %rcx
	movq	%rcx, 16(%rax)
.LBB81_2:                               # %if.end
	addq	$32, %rsp
	popq	%rbp
	.cfi_def_cfa %rsp, 8
	retq
.Lfunc_end81:
	.size	_ZNSt8functionIFiRKN4sycl3_V16deviceEEEC2IRS5_vEEOT_, .Lfunc_end81-_ZNSt8functionIFiRKN4sycl3_V16deviceEEEC2IRS5_vEEOT_
	.cfi_endproc
                                        # -- End function
	.section	.text._ZN4sycl3_V16deviceD2Ev,"axG",@progbits,_ZN4sycl3_V16deviceD2Ev,comdat
	.weak	_ZN4sycl3_V16deviceD2Ev         # -- Begin function _ZN4sycl3_V16deviceD2Ev
	.p2align	4
	.type	_ZN4sycl3_V16deviceD2Ev,@function
_ZN4sycl3_V16deviceD2Ev:                # @_ZN4sycl3_V16deviceD2Ev
	.cfi_startproc
# %bb.0:                                # %entry
	pushq	%rbp
	.cfi_def_cfa_offset 16
	.cfi_offset %rbp, -16
	movq	%rsp, %rbp
	.cfi_def_cfa_register %rbp
	subq	$16, %rsp
	movq	%rdi, -8(%rbp)
	movq	-8(%rbp), %rdi
	callq	_ZNSt10shared_ptrIN4sycl3_V16detail11device_implEED2Ev
	addq	$16, %rsp
	popq	%rbp
	.cfi_def_cfa %rsp, 8
	retq
.Lfunc_end82:
	.size	_ZN4sycl3_V16deviceD2Ev, .Lfunc_end82-_ZN4sycl3_V16deviceD2Ev
	.cfi_endproc
                                        # -- End function
	.section	.text._ZNSt8functionIFiRKN4sycl3_V16deviceEEED2Ev,"axG",@progbits,_ZNSt8functionIFiRKN4sycl3_V16deviceEEED2Ev,comdat
	.weak	_ZNSt8functionIFiRKN4sycl3_V16deviceEEED2Ev # -- Begin function _ZNSt8functionIFiRKN4sycl3_V16deviceEEED2Ev
	.p2align	4
	.type	_ZNSt8functionIFiRKN4sycl3_V16deviceEEED2Ev,@function
_ZNSt8functionIFiRKN4sycl3_V16deviceEEED2Ev: # @_ZNSt8functionIFiRKN4sycl3_V16deviceEEED2Ev
	.cfi_startproc
# %bb.0:                                # %entry
	pushq	%rbp
	.cfi_def_cfa_offset 16
	.cfi_offset %rbp, -16
	movq	%rsp, %rbp
	.cfi_def_cfa_register %rbp
	subq	$16, %rsp
	movq	%rdi, -8(%rbp)
	movq	-8(%rbp), %rdi
	callq	_ZNSt14_Function_baseD2Ev
	addq	$16, %rsp
	popq	%rbp
	.cfi_def_cfa %rsp, 8
	retq
.Lfunc_end83:
	.size	_ZNSt8functionIFiRKN4sycl3_V16deviceEEED2Ev, .Lfunc_end83-_ZNSt8functionIFiRKN4sycl3_V16deviceEEED2Ev
	.cfi_endproc
                                        # -- End function
	.section	.text._ZNSt14_Function_base13_Base_managerIPFiRKN4sycl3_V16deviceEEE21_M_not_empty_functionIS6_EEbPT_,"axG",@progbits,_ZNSt14_Function_base13_Base_managerIPFiRKN4sycl3_V16deviceEEE21_M_not_empty_functionIS6_EEbPT_,comdat
	.weak	_ZNSt14_Function_base13_Base_managerIPFiRKN4sycl3_V16deviceEEE21_M_not_empty_functionIS6_EEbPT_ # -- Begin function _ZNSt14_Function_base13_Base_managerIPFiRKN4sycl3_V16deviceEEE21_M_not_empty_functionIS6_EEbPT_
	.p2align	4
	.type	_ZNSt14_Function_base13_Base_managerIPFiRKN4sycl3_V16deviceEEE21_M_not_empty_functionIS6_EEbPT_,@function
_ZNSt14_Function_base13_Base_managerIPFiRKN4sycl3_V16deviceEEE21_M_not_empty_functionIS6_EEbPT_: # @_ZNSt14_Function_base13_Base_managerIPFiRKN4sycl3_V16deviceEEE21_M_not_empty_functionIS6_EEbPT_
	.cfi_startproc
# %bb.0:                                # %entry
	pushq	%rbp
	.cfi_def_cfa_offset 16
	.cfi_offset %rbp, -16
	movq	%rsp, %rbp
	.cfi_def_cfa_register %rbp
	movq	%rdi, -8(%rbp)
	cmpq	$0, -8(%rbp)
	setne	%al
	andb	$1, %al
	popq	%rbp
	.cfi_def_cfa %rsp, 8
	retq
.Lfunc_end84:
	.size	_ZNSt14_Function_base13_Base_managerIPFiRKN4sycl3_V16deviceEEE21_M_not_empty_functionIS6_EEbPT_, .Lfunc_end84-_ZNSt14_Function_base13_Base_managerIPFiRKN4sycl3_V16deviceEEE21_M_not_empty_functionIS6_EEbPT_
	.cfi_endproc
                                        # -- End function
	.section	.text._ZNSt14_Function_base13_Base_managerIPFiRKN4sycl3_V16deviceEEE15_M_init_functorIRS6_EEvRSt9_Any_dataOT_,"axG",@progbits,_ZNSt14_Function_base13_Base_managerIPFiRKN4sycl3_V16deviceEEE15_M_init_functorIRS6_EEvRSt9_Any_dataOT_,comdat
	.weak	_ZNSt14_Function_base13_Base_managerIPFiRKN4sycl3_V16deviceEEE15_M_init_functorIRS6_EEvRSt9_Any_dataOT_ # -- Begin function _ZNSt14_Function_base13_Base_managerIPFiRKN4sycl3_V16deviceEEE15_M_init_functorIRS6_EEvRSt9_Any_dataOT_
	.p2align	4
	.type	_ZNSt14_Function_base13_Base_managerIPFiRKN4sycl3_V16deviceEEE15_M_init_functorIRS6_EEvRSt9_Any_dataOT_,@function
_ZNSt14_Function_base13_Base_managerIPFiRKN4sycl3_V16deviceEEE15_M_init_functorIRS6_EEvRSt9_Any_dataOT_: # @_ZNSt14_Function_base13_Base_managerIPFiRKN4sycl3_V16deviceEEE15_M_init_functorIRS6_EEvRSt9_Any_dataOT_
.Lfunc_begin14:
	.cfi_startproc
	.cfi_personality 3, __gxx_personality_v0
	.cfi_lsda 3, .Lexception14
# %bb.0:                                # %entry
	pushq	%rbp
	.cfi_def_cfa_offset 16
	.cfi_offset %rbp, -16
	movq	%rsp, %rbp
	.cfi_def_cfa_register %rbp
	subq	$32, %rsp
	movq	%rdi, -8(%rbp)
	movq	%rsi, -16(%rbp)
	movq	-8(%rbp), %rdi
	movq	-16(%rbp), %rsi
.Ltmp106:                               # EH_LABEL
	callq	_ZNSt14_Function_base13_Base_managerIPFiRKN4sycl3_V16deviceEEE9_M_createIRS6_EEvRSt9_Any_dataOT_St17integral_constantIbLb1EE
.Ltmp107:                               # EH_LABEL
	jmp	.LBB85_1
.LBB85_1:                               # %invoke.cont
	addq	$32, %rsp
	popq	%rbp
	.cfi_def_cfa %rsp, 8
	retq
.LBB85_2:                               # %terminate.lpad
	.cfi_def_cfa %rbp, 16
.Ltmp108:                               # EH_LABEL
	movq	%rax, %rdi
                                        # kill: def $eax killed $edx killed $rdx
	callq	__clang_call_terminate
.Lfunc_end85:
	.size	_ZNSt14_Function_base13_Base_managerIPFiRKN4sycl3_V16deviceEEE15_M_init_functorIRS6_EEvRSt9_Any_dataOT_, .Lfunc_end85-_ZNSt14_Function_base13_Base_managerIPFiRKN4sycl3_V16deviceEEE15_M_init_functorIRS6_EEvRSt9_Any_dataOT_
	.cfi_endproc
	.section	.gcc_except_table._ZNSt14_Function_base13_Base_managerIPFiRKN4sycl3_V16deviceEEE15_M_init_functorIRS6_EEvRSt9_Any_dataOT_,"aG",@progbits,_ZNSt14_Function_base13_Base_managerIPFiRKN4sycl3_V16deviceEEE15_M_init_functorIRS6_EEvRSt9_Any_dataOT_,comdat
	.p2align	2, 0x0
GCC_except_table85:
.Lexception14:
	.byte	255                             # @LPStart Encoding = omit
	.byte	3                               # @TType Encoding = udata4
	.uleb128 .Lttbase8-.Lttbaseref8
.Lttbaseref8:
	.byte	1                               # Call site Encoding = uleb128
	.uleb128 .Lcst_end14-.Lcst_begin14
.Lcst_begin14:
	.uleb128 .Ltmp106-.Lfunc_begin14        # >> Call Site 1 <<
	.uleb128 .Ltmp107-.Ltmp106              #   Call between .Ltmp106 and .Ltmp107
	.uleb128 .Ltmp108-.Lfunc_begin14        #     jumps to .Ltmp108
	.byte	1                               #   On action: 1
.Lcst_end14:
	.byte	1                               # >> Action Record 1 <<
                                        #   Catch TypeInfo 1
	.byte	0                               #   No further actions
	.p2align	2, 0x0
                                        # >> Catch TypeInfos <<
	.long	0                               # TypeInfo 1
.Lttbase8:
	.p2align	2, 0x0
                                        # -- End function
	.section	.text._ZNSt17_Function_handlerIFiRKN4sycl3_V16deviceEEPS5_E9_M_invokeERKSt9_Any_dataS4_,"axG",@progbits,_ZNSt17_Function_handlerIFiRKN4sycl3_V16deviceEEPS5_E9_M_invokeERKSt9_Any_dataS4_,comdat
	.weak	_ZNSt17_Function_handlerIFiRKN4sycl3_V16deviceEEPS5_E9_M_invokeERKSt9_Any_dataS4_ # -- Begin function _ZNSt17_Function_handlerIFiRKN4sycl3_V16deviceEEPS5_E9_M_invokeERKSt9_Any_dataS4_
	.p2align	4
	.type	_ZNSt17_Function_handlerIFiRKN4sycl3_V16deviceEEPS5_E9_M_invokeERKSt9_Any_dataS4_,@function
_ZNSt17_Function_handlerIFiRKN4sycl3_V16deviceEEPS5_E9_M_invokeERKSt9_Any_dataS4_: # @_ZNSt17_Function_handlerIFiRKN4sycl3_V16deviceEEPS5_E9_M_invokeERKSt9_Any_dataS4_
	.cfi_startproc
# %bb.0:                                # %entry
	pushq	%rbp
	.cfi_def_cfa_offset 16
	.cfi_offset %rbp, -16
	movq	%rsp, %rbp
	.cfi_def_cfa_register %rbp
	subq	$16, %rsp
	movq	%rdi, -8(%rbp)
	movq	%rsi, -16(%rbp)
	movq	-8(%rbp), %rdi
	callq	_ZNSt14_Function_base13_Base_managerIPFiRKN4sycl3_V16deviceEEE14_M_get_pointerERKSt9_Any_data
	movq	%rax, %rdi
	movq	-16(%rbp), %rsi
	callq	_ZSt10__invoke_rIiRPFiRKN4sycl3_V16deviceEEJS4_EENSt9enable_ifIX16is_invocable_r_vIT_T0_DpT1_EES9_E4typeEOSA_DpOSB_
	addq	$16, %rsp
	popq	%rbp
	.cfi_def_cfa %rsp, 8
	retq
.Lfunc_end86:
	.size	_ZNSt17_Function_handlerIFiRKN4sycl3_V16deviceEEPS5_E9_M_invokeERKSt9_Any_dataS4_, .Lfunc_end86-_ZNSt17_Function_handlerIFiRKN4sycl3_V16deviceEEPS5_E9_M_invokeERKSt9_Any_dataS4_
	.cfi_endproc
                                        # -- End function
	.section	.text._ZNSt17_Function_handlerIFiRKN4sycl3_V16deviceEEPS5_E10_M_managerERSt9_Any_dataRKS8_St18_Manager_operation,"axG",@progbits,_ZNSt17_Function_handlerIFiRKN4sycl3_V16deviceEEPS5_E10_M_managerERSt9_Any_dataRKS8_St18_Manager_operation,comdat
	.weak	_ZNSt17_Function_handlerIFiRKN4sycl3_V16deviceEEPS5_E10_M_managerERSt9_Any_dataRKS8_St18_Manager_operation # -- Begin function _ZNSt17_Function_handlerIFiRKN4sycl3_V16deviceEEPS5_E10_M_managerERSt9_Any_dataRKS8_St18_Manager_operation
	.p2align	4
	.type	_ZNSt17_Function_handlerIFiRKN4sycl3_V16deviceEEPS5_E10_M_managerERSt9_Any_dataRKS8_St18_Manager_operation,@function
_ZNSt17_Function_handlerIFiRKN4sycl3_V16deviceEEPS5_E10_M_managerERSt9_Any_dataRKS8_St18_Manager_operation: # @_ZNSt17_Function_handlerIFiRKN4sycl3_V16deviceEEPS5_E10_M_managerERSt9_Any_dataRKS8_St18_Manager_operation
	.cfi_startproc
# %bb.0:                                # %entry
	pushq	%rbp
	.cfi_def_cfa_offset 16
	.cfi_offset %rbp, -16
	movq	%rsp, %rbp
	.cfi_def_cfa_register %rbp
	subq	$32, %rsp
	movq	%rdi, -8(%rbp)
	movq	%rsi, -16(%rbp)
	movl	%edx, -20(%rbp)
	movl	-20(%rbp), %eax
	movl	%eax, -24(%rbp)                 # 4-byte Spill
	testl	%eax, %eax
	je	.LBB87_1
	jmp	.LBB87_5
.LBB87_5:                               # %entry
	movl	-24(%rbp), %eax                 # 4-byte Reload
	subl	$1, %eax
	je	.LBB87_2
	jmp	.LBB87_3
.LBB87_1:                               # %sw.bb
	movq	-8(%rbp), %rdi
	callq	_ZNSt9_Any_data9_M_accessIPKSt9type_infoEERT_v
	movabsq	$_ZTIPFiRKN4sycl3_V16deviceEE, %rcx
	movq	%rcx, (%rax)
	jmp	.LBB87_4
.LBB87_2:                               # %sw.bb1
	movq	-16(%rbp), %rdi
	callq	_ZNSt14_Function_base13_Base_managerIPFiRKN4sycl3_V16deviceEEE14_M_get_pointerERKSt9_Any_data
	movq	%rax, -32(%rbp)                 # 8-byte Spill
	movq	-8(%rbp), %rdi
	callq	_ZNSt9_Any_data9_M_accessIPPFiRKN4sycl3_V16deviceEEEERT_v
	movq	-32(%rbp), %rcx                 # 8-byte Reload
	movq	%rcx, (%rax)
	jmp	.LBB87_4
.LBB87_3:                               # %sw.default
	movq	-8(%rbp), %rdi
	movq	-16(%rbp), %rsi
	movl	-20(%rbp), %edx
	callq	_ZNSt14_Function_base13_Base_managerIPFiRKN4sycl3_V16deviceEEE10_M_managerERSt9_Any_dataRKS9_St18_Manager_operation
.LBB87_4:                               # %sw.epilog
	xorl	%eax, %eax
                                        # kill: def $al killed $al killed $eax
	andb	$1, %al
	addq	$32, %rsp
	popq	%rbp
	.cfi_def_cfa %rsp, 8
	retq
.Lfunc_end87:
	.size	_ZNSt17_Function_handlerIFiRKN4sycl3_V16deviceEEPS5_E10_M_managerERSt9_Any_dataRKS8_St18_Manager_operation, .Lfunc_end87-_ZNSt17_Function_handlerIFiRKN4sycl3_V16deviceEEPS5_E10_M_managerERSt9_Any_dataRKS8_St18_Manager_operation
	.cfi_endproc
                                        # -- End function
	.section	.text._ZNSt14_Function_base13_Base_managerIPFiRKN4sycl3_V16deviceEEE9_M_createIRS6_EEvRSt9_Any_dataOT_St17integral_constantIbLb1EE,"axG",@progbits,_ZNSt14_Function_base13_Base_managerIPFiRKN4sycl3_V16deviceEEE9_M_createIRS6_EEvRSt9_Any_dataOT_St17integral_constantIbLb1EE,comdat
	.weak	_ZNSt14_Function_base13_Base_managerIPFiRKN4sycl3_V16deviceEEE9_M_createIRS6_EEvRSt9_Any_dataOT_St17integral_constantIbLb1EE # -- Begin function _ZNSt14_Function_base13_Base_managerIPFiRKN4sycl3_V16deviceEEE9_M_createIRS6_EEvRSt9_Any_dataOT_St17integral_constantIbLb1EE
	.p2align	4
	.type	_ZNSt14_Function_base13_Base_managerIPFiRKN4sycl3_V16deviceEEE9_M_createIRS6_EEvRSt9_Any_dataOT_St17integral_constantIbLb1EE,@function
_ZNSt14_Function_base13_Base_managerIPFiRKN4sycl3_V16deviceEEE9_M_createIRS6_EEvRSt9_Any_dataOT_St17integral_constantIbLb1EE: # @_ZNSt14_Function_base13_Base_managerIPFiRKN4sycl3_V16deviceEEE9_M_createIRS6_EEvRSt9_Any_dataOT_St17integral_constantIbLb1EE
	.cfi_startproc
# %bb.0:                                # %entry
	pushq	%rbp
	.cfi_def_cfa_offset 16
	.cfi_offset %rbp, -16
	movq	%rsp, %rbp
	.cfi_def_cfa_register %rbp
	subq	$32, %rsp
	movq	%rdi, -16(%rbp)
	movq	%rsi, -24(%rbp)
	movq	-16(%rbp), %rdi
	callq	_ZNSt9_Any_data9_M_accessEv
	movq	-24(%rbp), %rcx
	movq	%rcx, (%rax)
	addq	$32, %rsp
	popq	%rbp
	.cfi_def_cfa %rsp, 8
	retq
.Lfunc_end88:
	.size	_ZNSt14_Function_base13_Base_managerIPFiRKN4sycl3_V16deviceEEE9_M_createIRS6_EEvRSt9_Any_dataOT_St17integral_constantIbLb1EE, .Lfunc_end88-_ZNSt14_Function_base13_Base_managerIPFiRKN4sycl3_V16deviceEEE9_M_createIRS6_EEvRSt9_Any_dataOT_St17integral_constantIbLb1EE
	.cfi_endproc
                                        # -- End function
	.section	.text._ZSt10__invoke_rIiRPFiRKN4sycl3_V16deviceEEJS4_EENSt9enable_ifIX16is_invocable_r_vIT_T0_DpT1_EES9_E4typeEOSA_DpOSB_,"axG",@progbits,_ZSt10__invoke_rIiRPFiRKN4sycl3_V16deviceEEJS4_EENSt9enable_ifIX16is_invocable_r_vIT_T0_DpT1_EES9_E4typeEOSA_DpOSB_,comdat
	.weak	_ZSt10__invoke_rIiRPFiRKN4sycl3_V16deviceEEJS4_EENSt9enable_ifIX16is_invocable_r_vIT_T0_DpT1_EES9_E4typeEOSA_DpOSB_ # -- Begin function _ZSt10__invoke_rIiRPFiRKN4sycl3_V16deviceEEJS4_EENSt9enable_ifIX16is_invocable_r_vIT_T0_DpT1_EES9_E4typeEOSA_DpOSB_
	.p2align	4
	.type	_ZSt10__invoke_rIiRPFiRKN4sycl3_V16deviceEEJS4_EENSt9enable_ifIX16is_invocable_r_vIT_T0_DpT1_EES9_E4typeEOSA_DpOSB_,@function
_ZSt10__invoke_rIiRPFiRKN4sycl3_V16deviceEEJS4_EENSt9enable_ifIX16is_invocable_r_vIT_T0_DpT1_EES9_E4typeEOSA_DpOSB_: # @_ZSt10__invoke_rIiRPFiRKN4sycl3_V16deviceEEJS4_EENSt9enable_ifIX16is_invocable_r_vIT_T0_DpT1_EES9_E4typeEOSA_DpOSB_
	.cfi_startproc
# %bb.0:                                # %entry
	pushq	%rbp
	.cfi_def_cfa_offset 16
	.cfi_offset %rbp, -16
	movq	%rsp, %rbp
	.cfi_def_cfa_register %rbp
	subq	$32, %rsp
	movq	%rdi, -8(%rbp)
	movq	%rsi, -16(%rbp)
	movq	-8(%rbp), %rdi
	movq	-16(%rbp), %rsi
	callq	_ZSt13__invoke_implIiRPFiRKN4sycl3_V16deviceEEJS4_EET_St14__invoke_otherOT0_DpOT1_
	addq	$32, %rsp
	popq	%rbp
	.cfi_def_cfa %rsp, 8
	retq
.Lfunc_end89:
	.size	_ZSt10__invoke_rIiRPFiRKN4sycl3_V16deviceEEJS4_EENSt9enable_ifIX16is_invocable_r_vIT_T0_DpT1_EES9_E4typeEOSA_DpOSB_, .Lfunc_end89-_ZSt10__invoke_rIiRPFiRKN4sycl3_V16deviceEEJS4_EENSt9enable_ifIX16is_invocable_r_vIT_T0_DpT1_EES9_E4typeEOSA_DpOSB_
	.cfi_endproc
                                        # -- End function
	.section	.text._ZNSt14_Function_base13_Base_managerIPFiRKN4sycl3_V16deviceEEE14_M_get_pointerERKSt9_Any_data,"axG",@progbits,_ZNSt14_Function_base13_Base_managerIPFiRKN4sycl3_V16deviceEEE14_M_get_pointerERKSt9_Any_data,comdat
	.weak	_ZNSt14_Function_base13_Base_managerIPFiRKN4sycl3_V16deviceEEE14_M_get_pointerERKSt9_Any_data # -- Begin function _ZNSt14_Function_base13_Base_managerIPFiRKN4sycl3_V16deviceEEE14_M_get_pointerERKSt9_Any_data
	.p2align	4
	.type	_ZNSt14_Function_base13_Base_managerIPFiRKN4sycl3_V16deviceEEE14_M_get_pointerERKSt9_Any_data,@function
_ZNSt14_Function_base13_Base_managerIPFiRKN4sycl3_V16deviceEEE14_M_get_pointerERKSt9_Any_data: # @_ZNSt14_Function_base13_Base_managerIPFiRKN4sycl3_V16deviceEEE14_M_get_pointerERKSt9_Any_data
	.cfi_startproc
# %bb.0:                                # %entry
	pushq	%rbp
	.cfi_def_cfa_offset 16
	.cfi_offset %rbp, -16
	movq	%rsp, %rbp
	.cfi_def_cfa_register %rbp
	subq	$16, %rsp
	movq	%rdi, -8(%rbp)
	movq	-8(%rbp), %rdi
	callq	_ZNKSt9_Any_data9_M_accessIPFiRKN4sycl3_V16deviceEEEERKT_v
	movq	%rax, -16(%rbp)
	movq	-16(%rbp), %rax
	addq	$16, %rsp
	popq	%rbp
	.cfi_def_cfa %rsp, 8
	retq
.Lfunc_end90:
	.size	_ZNSt14_Function_base13_Base_managerIPFiRKN4sycl3_V16deviceEEE14_M_get_pointerERKSt9_Any_data, .Lfunc_end90-_ZNSt14_Function_base13_Base_managerIPFiRKN4sycl3_V16deviceEEE14_M_get_pointerERKSt9_Any_data
	.cfi_endproc
                                        # -- End function
	.section	.text._ZSt13__invoke_implIiRPFiRKN4sycl3_V16deviceEEJS4_EET_St14__invoke_otherOT0_DpOT1_,"axG",@progbits,_ZSt13__invoke_implIiRPFiRKN4sycl3_V16deviceEEJS4_EET_St14__invoke_otherOT0_DpOT1_,comdat
	.weak	_ZSt13__invoke_implIiRPFiRKN4sycl3_V16deviceEEJS4_EET_St14__invoke_otherOT0_DpOT1_ # -- Begin function _ZSt13__invoke_implIiRPFiRKN4sycl3_V16deviceEEJS4_EET_St14__invoke_otherOT0_DpOT1_
	.p2align	4
	.type	_ZSt13__invoke_implIiRPFiRKN4sycl3_V16deviceEEJS4_EET_St14__invoke_otherOT0_DpOT1_,@function
_ZSt13__invoke_implIiRPFiRKN4sycl3_V16deviceEEJS4_EET_St14__invoke_otherOT0_DpOT1_: # @_ZSt13__invoke_implIiRPFiRKN4sycl3_V16deviceEEJS4_EET_St14__invoke_otherOT0_DpOT1_
	.cfi_startproc
# %bb.0:                                # %entry
	pushq	%rbp
	.cfi_def_cfa_offset 16
	.cfi_offset %rbp, -16
	movq	%rsp, %rbp
	.cfi_def_cfa_register %rbp
	subq	$32, %rsp
	movq	%rdi, -16(%rbp)
	movq	%rsi, -24(%rbp)
	movq	-16(%rbp), %rax
	movq	(%rax), %rax
	movq	-24(%rbp), %rdi
	callq	*%rax
	addq	$32, %rsp
	popq	%rbp
	.cfi_def_cfa %rsp, 8
	retq
.Lfunc_end91:
	.size	_ZSt13__invoke_implIiRPFiRKN4sycl3_V16deviceEEJS4_EET_St14__invoke_otherOT0_DpOT1_, .Lfunc_end91-_ZSt13__invoke_implIiRPFiRKN4sycl3_V16deviceEEJS4_EET_St14__invoke_otherOT0_DpOT1_
	.cfi_endproc
                                        # -- End function
	.section	.text._ZNKSt9_Any_data9_M_accessIPFiRKN4sycl3_V16deviceEEEERKT_v,"axG",@progbits,_ZNKSt9_Any_data9_M_accessIPFiRKN4sycl3_V16deviceEEEERKT_v,comdat
	.weak	_ZNKSt9_Any_data9_M_accessIPFiRKN4sycl3_V16deviceEEEERKT_v # -- Begin function _ZNKSt9_Any_data9_M_accessIPFiRKN4sycl3_V16deviceEEEERKT_v
	.p2align	4
	.type	_ZNKSt9_Any_data9_M_accessIPFiRKN4sycl3_V16deviceEEEERKT_v,@function
_ZNKSt9_Any_data9_M_accessIPFiRKN4sycl3_V16deviceEEEERKT_v: # @_ZNKSt9_Any_data9_M_accessIPFiRKN4sycl3_V16deviceEEEERKT_v
	.cfi_startproc
# %bb.0:                                # %entry
	pushq	%rbp
	.cfi_def_cfa_offset 16
	.cfi_offset %rbp, -16
	movq	%rsp, %rbp
	.cfi_def_cfa_register %rbp
	subq	$16, %rsp
	movq	%rdi, -8(%rbp)
	movq	-8(%rbp), %rdi
	callq	_ZNKSt9_Any_data9_M_accessEv
	addq	$16, %rsp
	popq	%rbp
	.cfi_def_cfa %rsp, 8
	retq
.Lfunc_end92:
	.size	_ZNKSt9_Any_data9_M_accessIPFiRKN4sycl3_V16deviceEEEERKT_v, .Lfunc_end92-_ZNKSt9_Any_data9_M_accessIPFiRKN4sycl3_V16deviceEEEERKT_v
	.cfi_endproc
                                        # -- End function
	.section	.text._ZNSt9_Any_data9_M_accessIPPFiRKN4sycl3_V16deviceEEEERT_v,"axG",@progbits,_ZNSt9_Any_data9_M_accessIPPFiRKN4sycl3_V16deviceEEEERT_v,comdat
	.weak	_ZNSt9_Any_data9_M_accessIPPFiRKN4sycl3_V16deviceEEEERT_v # -- Begin function _ZNSt9_Any_data9_M_accessIPPFiRKN4sycl3_V16deviceEEEERT_v
	.p2align	4
	.type	_ZNSt9_Any_data9_M_accessIPPFiRKN4sycl3_V16deviceEEEERT_v,@function
_ZNSt9_Any_data9_M_accessIPPFiRKN4sycl3_V16deviceEEEERT_v: # @_ZNSt9_Any_data9_M_accessIPPFiRKN4sycl3_V16deviceEEEERT_v
	.cfi_startproc
# %bb.0:                                # %entry
	pushq	%rbp
	.cfi_def_cfa_offset 16
	.cfi_offset %rbp, -16
	movq	%rsp, %rbp
	.cfi_def_cfa_register %rbp
	subq	$16, %rsp
	movq	%rdi, -8(%rbp)
	movq	-8(%rbp), %rdi
	callq	_ZNSt9_Any_data9_M_accessEv
	addq	$16, %rsp
	popq	%rbp
	.cfi_def_cfa %rsp, 8
	retq
.Lfunc_end93:
	.size	_ZNSt9_Any_data9_M_accessIPPFiRKN4sycl3_V16deviceEEEERT_v, .Lfunc_end93-_ZNSt9_Any_data9_M_accessIPPFiRKN4sycl3_V16deviceEEEERT_v
	.cfi_endproc
                                        # -- End function
	.section	.text._ZNSt14_Function_base13_Base_managerIPFiRKN4sycl3_V16deviceEEE10_M_managerERSt9_Any_dataRKS9_St18_Manager_operation,"axG",@progbits,_ZNSt14_Function_base13_Base_managerIPFiRKN4sycl3_V16deviceEEE10_M_managerERSt9_Any_dataRKS9_St18_Manager_operation,comdat
	.weak	_ZNSt14_Function_base13_Base_managerIPFiRKN4sycl3_V16deviceEEE10_M_managerERSt9_Any_dataRKS9_St18_Manager_operation # -- Begin function _ZNSt14_Function_base13_Base_managerIPFiRKN4sycl3_V16deviceEEE10_M_managerERSt9_Any_dataRKS9_St18_Manager_operation
	.p2align	4
	.type	_ZNSt14_Function_base13_Base_managerIPFiRKN4sycl3_V16deviceEEE10_M_managerERSt9_Any_dataRKS9_St18_Manager_operation,@function
_ZNSt14_Function_base13_Base_managerIPFiRKN4sycl3_V16deviceEEE10_M_managerERSt9_Any_dataRKS9_St18_Manager_operation: # @_ZNSt14_Function_base13_Base_managerIPFiRKN4sycl3_V16deviceEEE10_M_managerERSt9_Any_dataRKS9_St18_Manager_operation
	.cfi_startproc
# %bb.0:                                # %entry
	pushq	%rbp
	.cfi_def_cfa_offset 16
	.cfi_offset %rbp, -16
	movq	%rsp, %rbp
	.cfi_def_cfa_register %rbp
	subq	$48, %rsp
	movq	%rdi, -8(%rbp)
	movq	%rsi, -16(%rbp)
	movl	%edx, -20(%rbp)
	movl	-20(%rbp), %eax
                                        # kill: def $rax killed $eax
	movq	%rax, -32(%rbp)                 # 8-byte Spill
	subq	$3, %rax
	ja	.LBB94_5
# %bb.6:                                # %entry
	movq	-32(%rbp), %rax                 # 8-byte Reload
	movq	.LJTI94_0(,%rax,8), %rax
	jmpq	*%rax
.LBB94_1:                               # %sw.bb
	movq	-8(%rbp), %rdi
	callq	_ZNSt9_Any_data9_M_accessIPKSt9type_infoEERT_v
	movabsq	$_ZTIPFiRKN4sycl3_V16deviceEE, %rcx
	movq	%rcx, (%rax)
	jmp	.LBB94_5
.LBB94_2:                               # %sw.bb1
	movq	-16(%rbp), %rdi
	callq	_ZNSt14_Function_base13_Base_managerIPFiRKN4sycl3_V16deviceEEE14_M_get_pointerERKSt9_Any_data
	movq	%rax, -40(%rbp)                 # 8-byte Spill
	movq	-8(%rbp), %rdi
	callq	_ZNSt9_Any_data9_M_accessIPPFiRKN4sycl3_V16deviceEEEERT_v
	movq	-40(%rbp), %rcx                 # 8-byte Reload
	movq	%rcx, (%rax)
	jmp	.LBB94_5
.LBB94_3:                               # %sw.bb4
	movq	-8(%rbp), %rax
	movq	%rax, -48(%rbp)                 # 8-byte Spill
	movq	-16(%rbp), %rdi
	callq	_ZNSt14_Function_base13_Base_managerIPFiRKN4sycl3_V16deviceEEE14_M_get_pointerERKSt9_Any_data
	movq	-48(%rbp), %rdi                 # 8-byte Reload
	movq	%rax, %rsi
	callq	_ZNSt14_Function_base13_Base_managerIPFiRKN4sycl3_V16deviceEEE15_M_init_functorIRKS7_EEvRSt9_Any_dataOT_
	jmp	.LBB94_5
.LBB94_4:                               # %sw.bb6
	movq	-8(%rbp), %rdi
	callq	_ZNSt14_Function_base13_Base_managerIPFiRKN4sycl3_V16deviceEEE10_M_destroyERSt9_Any_dataSt17integral_constantIbLb1EE
.LBB94_5:                               # %sw.epilog
	xorl	%eax, %eax
                                        # kill: def $al killed $al killed $eax
	andb	$1, %al
	addq	$48, %rsp
	popq	%rbp
	.cfi_def_cfa %rsp, 8
	retq
.Lfunc_end94:
	.size	_ZNSt14_Function_base13_Base_managerIPFiRKN4sycl3_V16deviceEEE10_M_managerERSt9_Any_dataRKS9_St18_Manager_operation, .Lfunc_end94-_ZNSt14_Function_base13_Base_managerIPFiRKN4sycl3_V16deviceEEE10_M_managerERSt9_Any_dataRKS9_St18_Manager_operation
	.cfi_endproc
	.section	.rodata._ZNSt14_Function_base13_Base_managerIPFiRKN4sycl3_V16deviceEEE10_M_managerERSt9_Any_dataRKS9_St18_Manager_operation,"aG",@progbits,_ZNSt14_Function_base13_Base_managerIPFiRKN4sycl3_V16deviceEEE10_M_managerERSt9_Any_dataRKS9_St18_Manager_operation,comdat
	.p2align	3, 0x0
.LJTI94_0:
	.quad	.LBB94_1
	.quad	.LBB94_2
	.quad	.LBB94_3
	.quad	.LBB94_4
                                        # -- End function
	.section	.text._ZNSt14_Function_base13_Base_managerIPFiRKN4sycl3_V16deviceEEE15_M_init_functorIRKS7_EEvRSt9_Any_dataOT_,"axG",@progbits,_ZNSt14_Function_base13_Base_managerIPFiRKN4sycl3_V16deviceEEE15_M_init_functorIRKS7_EEvRSt9_Any_dataOT_,comdat
	.weak	_ZNSt14_Function_base13_Base_managerIPFiRKN4sycl3_V16deviceEEE15_M_init_functorIRKS7_EEvRSt9_Any_dataOT_ # -- Begin function _ZNSt14_Function_base13_Base_managerIPFiRKN4sycl3_V16deviceEEE15_M_init_functorIRKS7_EEvRSt9_Any_dataOT_
	.p2align	4
	.type	_ZNSt14_Function_base13_Base_managerIPFiRKN4sycl3_V16deviceEEE15_M_init_functorIRKS7_EEvRSt9_Any_dataOT_,@function
_ZNSt14_Function_base13_Base_managerIPFiRKN4sycl3_V16deviceEEE15_M_init_functorIRKS7_EEvRSt9_Any_dataOT_: # @_ZNSt14_Function_base13_Base_managerIPFiRKN4sycl3_V16deviceEEE15_M_init_functorIRKS7_EEvRSt9_Any_dataOT_
.Lfunc_begin15:
	.cfi_startproc
	.cfi_personality 3, __gxx_personality_v0
	.cfi_lsda 3, .Lexception15
# %bb.0:                                # %entry
	pushq	%rbp
	.cfi_def_cfa_offset 16
	.cfi_offset %rbp, -16
	movq	%rsp, %rbp
	.cfi_def_cfa_register %rbp
	subq	$32, %rsp
	movq	%rdi, -8(%rbp)
	movq	%rsi, -16(%rbp)
	movq	-8(%rbp), %rdi
	movq	-16(%rbp), %rsi
.Ltmp109:                               # EH_LABEL
	callq	_ZNSt14_Function_base13_Base_managerIPFiRKN4sycl3_V16deviceEEE9_M_createIRKS7_EEvRSt9_Any_dataOT_St17integral_constantIbLb1EE
.Ltmp110:                               # EH_LABEL
	jmp	.LBB95_1
.LBB95_1:                               # %invoke.cont
	addq	$32, %rsp
	popq	%rbp
	.cfi_def_cfa %rsp, 8
	retq
.LBB95_2:                               # %terminate.lpad
	.cfi_def_cfa %rbp, 16
.Ltmp111:                               # EH_LABEL
	movq	%rax, %rdi
                                        # kill: def $eax killed $edx killed $rdx
	callq	__clang_call_terminate
.Lfunc_end95:
	.size	_ZNSt14_Function_base13_Base_managerIPFiRKN4sycl3_V16deviceEEE15_M_init_functorIRKS7_EEvRSt9_Any_dataOT_, .Lfunc_end95-_ZNSt14_Function_base13_Base_managerIPFiRKN4sycl3_V16deviceEEE15_M_init_functorIRKS7_EEvRSt9_Any_dataOT_
	.cfi_endproc
	.section	.gcc_except_table._ZNSt14_Function_base13_Base_managerIPFiRKN4sycl3_V16deviceEEE15_M_init_functorIRKS7_EEvRSt9_Any_dataOT_,"aG",@progbits,_ZNSt14_Function_base13_Base_managerIPFiRKN4sycl3_V16deviceEEE15_M_init_functorIRKS7_EEvRSt9_Any_dataOT_,comdat
	.p2align	2, 0x0
GCC_except_table95:
.Lexception15:
	.byte	255                             # @LPStart Encoding = omit
	.byte	3                               # @TType Encoding = udata4
	.uleb128 .Lttbase9-.Lttbaseref9
.Lttbaseref9:
	.byte	1                               # Call site Encoding = uleb128
	.uleb128 .Lcst_end15-.Lcst_begin15
.Lcst_begin15:
	.uleb128 .Ltmp109-.Lfunc_begin15        # >> Call Site 1 <<
	.uleb128 .Ltmp110-.Ltmp109              #   Call between .Ltmp109 and .Ltmp110
	.uleb128 .Ltmp111-.Lfunc_begin15        #     jumps to .Ltmp111
	.byte	1                               #   On action: 1
.Lcst_end15:
	.byte	1                               # >> Action Record 1 <<
                                        #   Catch TypeInfo 1
	.byte	0                               #   No further actions
	.p2align	2, 0x0
                                        # >> Catch TypeInfos <<
	.long	0                               # TypeInfo 1
.Lttbase9:
	.p2align	2, 0x0
                                        # -- End function
	.section	.text._ZNSt14_Function_base13_Base_managerIPFiRKN4sycl3_V16deviceEEE10_M_destroyERSt9_Any_dataSt17integral_constantIbLb1EE,"axG",@progbits,_ZNSt14_Function_base13_Base_managerIPFiRKN4sycl3_V16deviceEEE10_M_destroyERSt9_Any_dataSt17integral_constantIbLb1EE,comdat
	.weak	_ZNSt14_Function_base13_Base_managerIPFiRKN4sycl3_V16deviceEEE10_M_destroyERSt9_Any_dataSt17integral_constantIbLb1EE # -- Begin function _ZNSt14_Function_base13_Base_managerIPFiRKN4sycl3_V16deviceEEE10_M_destroyERSt9_Any_dataSt17integral_constantIbLb1EE
	.p2align	4
	.type	_ZNSt14_Function_base13_Base_managerIPFiRKN4sycl3_V16deviceEEE10_M_destroyERSt9_Any_dataSt17integral_constantIbLb1EE,@function
_ZNSt14_Function_base13_Base_managerIPFiRKN4sycl3_V16deviceEEE10_M_destroyERSt9_Any_dataSt17integral_constantIbLb1EE: # @_ZNSt14_Function_base13_Base_managerIPFiRKN4sycl3_V16deviceEEE10_M_destroyERSt9_Any_dataSt17integral_constantIbLb1EE
	.cfi_startproc
# %bb.0:                                # %entry
	pushq	%rbp
	.cfi_def_cfa_offset 16
	.cfi_offset %rbp, -16
	movq	%rsp, %rbp
	.cfi_def_cfa_register %rbp
	subq	$16, %rsp
	movq	%rdi, -16(%rbp)
	movq	-16(%rbp), %rdi
	callq	_ZNSt9_Any_data9_M_accessIPFiRKN4sycl3_V16deviceEEEERT_v
	addq	$16, %rsp
	popq	%rbp
	.cfi_def_cfa %rsp, 8
	retq
.Lfunc_end96:
	.size	_ZNSt14_Function_base13_Base_managerIPFiRKN4sycl3_V16deviceEEE10_M_destroyERSt9_Any_dataSt17integral_constantIbLb1EE, .Lfunc_end96-_ZNSt14_Function_base13_Base_managerIPFiRKN4sycl3_V16deviceEEE10_M_destroyERSt9_Any_dataSt17integral_constantIbLb1EE
	.cfi_endproc
                                        # -- End function
	.section	.text._ZNSt14_Function_base13_Base_managerIPFiRKN4sycl3_V16deviceEEE9_M_createIRKS7_EEvRSt9_Any_dataOT_St17integral_constantIbLb1EE,"axG",@progbits,_ZNSt14_Function_base13_Base_managerIPFiRKN4sycl3_V16deviceEEE9_M_createIRKS7_EEvRSt9_Any_dataOT_St17integral_constantIbLb1EE,comdat
	.weak	_ZNSt14_Function_base13_Base_managerIPFiRKN4sycl3_V16deviceEEE9_M_createIRKS7_EEvRSt9_Any_dataOT_St17integral_constantIbLb1EE # -- Begin function _ZNSt14_Function_base13_Base_managerIPFiRKN4sycl3_V16deviceEEE9_M_createIRKS7_EEvRSt9_Any_dataOT_St17integral_constantIbLb1EE
	.p2align	4
	.type	_ZNSt14_Function_base13_Base_managerIPFiRKN4sycl3_V16deviceEEE9_M_createIRKS7_EEvRSt9_Any_dataOT_St17integral_constantIbLb1EE,@function
_ZNSt14_Function_base13_Base_managerIPFiRKN4sycl3_V16deviceEEE9_M_createIRKS7_EEvRSt9_Any_dataOT_St17integral_constantIbLb1EE: # @_ZNSt14_Function_base13_Base_managerIPFiRKN4sycl3_V16deviceEEE9_M_createIRKS7_EEvRSt9_Any_dataOT_St17integral_constantIbLb1EE
	.cfi_startproc
# %bb.0:                                # %entry
	pushq	%rbp
	.cfi_def_cfa_offset 16
	.cfi_offset %rbp, -16
	movq	%rsp, %rbp
	.cfi_def_cfa_register %rbp
	subq	$32, %rsp
	movq	%rdi, -16(%rbp)
	movq	%rsi, -24(%rbp)
	movq	-16(%rbp), %rdi
	callq	_ZNSt9_Any_data9_M_accessEv
	movq	-24(%rbp), %rcx
	movq	(%rcx), %rcx
	movq	%rcx, (%rax)
	addq	$32, %rsp
	popq	%rbp
	.cfi_def_cfa %rsp, 8
	retq
.Lfunc_end97:
	.size	_ZNSt14_Function_base13_Base_managerIPFiRKN4sycl3_V16deviceEEE9_M_createIRKS7_EEvRSt9_Any_dataOT_St17integral_constantIbLb1EE, .Lfunc_end97-_ZNSt14_Function_base13_Base_managerIPFiRKN4sycl3_V16deviceEEE9_M_createIRKS7_EEvRSt9_Any_dataOT_St17integral_constantIbLb1EE
	.cfi_endproc
                                        # -- End function
	.section	.text._ZNSt9_Any_data9_M_accessIPFiRKN4sycl3_V16deviceEEEERT_v,"axG",@progbits,_ZNSt9_Any_data9_M_accessIPFiRKN4sycl3_V16deviceEEEERT_v,comdat
	.weak	_ZNSt9_Any_data9_M_accessIPFiRKN4sycl3_V16deviceEEEERT_v # -- Begin function _ZNSt9_Any_data9_M_accessIPFiRKN4sycl3_V16deviceEEEERT_v
	.p2align	4
	.type	_ZNSt9_Any_data9_M_accessIPFiRKN4sycl3_V16deviceEEEERT_v,@function
_ZNSt9_Any_data9_M_accessIPFiRKN4sycl3_V16deviceEEEERT_v: # @_ZNSt9_Any_data9_M_accessIPFiRKN4sycl3_V16deviceEEEERT_v
	.cfi_startproc
# %bb.0:                                # %entry
	pushq	%rbp
	.cfi_def_cfa_offset 16
	.cfi_offset %rbp, -16
	movq	%rsp, %rbp
	.cfi_def_cfa_register %rbp
	subq	$16, %rsp
	movq	%rdi, -8(%rbp)
	movq	-8(%rbp), %rdi
	callq	_ZNSt9_Any_data9_M_accessEv
	addq	$16, %rsp
	popq	%rbp
	.cfi_def_cfa %rsp, 8
	retq
.Lfunc_end98:
	.size	_ZNSt9_Any_data9_M_accessIPFiRKN4sycl3_V16deviceEEEERT_v, .Lfunc_end98-_ZNSt9_Any_data9_M_accessIPFiRKN4sycl3_V16deviceEEEERT_v
	.cfi_endproc
                                        # -- End function
	.section	.text._ZNSt10shared_ptrIN4sycl3_V16detail11device_implEED2Ev,"axG",@progbits,_ZNSt10shared_ptrIN4sycl3_V16detail11device_implEED2Ev,comdat
	.weak	_ZNSt10shared_ptrIN4sycl3_V16detail11device_implEED2Ev # -- Begin function _ZNSt10shared_ptrIN4sycl3_V16detail11device_implEED2Ev
	.p2align	4
	.type	_ZNSt10shared_ptrIN4sycl3_V16detail11device_implEED2Ev,@function
_ZNSt10shared_ptrIN4sycl3_V16detail11device_implEED2Ev: # @_ZNSt10shared_ptrIN4sycl3_V16detail11device_implEED2Ev
	.cfi_startproc
# %bb.0:                                # %entry
	pushq	%rbp
	.cfi_def_cfa_offset 16
	.cfi_offset %rbp, -16
	movq	%rsp, %rbp
	.cfi_def_cfa_register %rbp
	subq	$16, %rsp
	movq	%rdi, -8(%rbp)
	movq	-8(%rbp), %rdi
	callq	_ZNSt12__shared_ptrIN4sycl3_V16detail11device_implELN9__gnu_cxx12_Lock_policyE2EED2Ev
	addq	$16, %rsp
	popq	%rbp
	.cfi_def_cfa %rsp, 8
	retq
.Lfunc_end99:
	.size	_ZNSt10shared_ptrIN4sycl3_V16detail11device_implEED2Ev, .Lfunc_end99-_ZNSt10shared_ptrIN4sycl3_V16detail11device_implEED2Ev
	.cfi_endproc
                                        # -- End function
	.section	.text._ZNSt12__shared_ptrIN4sycl3_V16detail11device_implELN9__gnu_cxx12_Lock_policyE2EED2Ev,"axG",@progbits,_ZNSt12__shared_ptrIN4sycl3_V16detail11device_implELN9__gnu_cxx12_Lock_policyE2EED2Ev,comdat
	.weak	_ZNSt12__shared_ptrIN4sycl3_V16detail11device_implELN9__gnu_cxx12_Lock_policyE2EED2Ev # -- Begin function _ZNSt12__shared_ptrIN4sycl3_V16detail11device_implELN9__gnu_cxx12_Lock_policyE2EED2Ev
	.p2align	4
	.type	_ZNSt12__shared_ptrIN4sycl3_V16detail11device_implELN9__gnu_cxx12_Lock_policyE2EED2Ev,@function
_ZNSt12__shared_ptrIN4sycl3_V16detail11device_implELN9__gnu_cxx12_Lock_policyE2EED2Ev: # @_ZNSt12__shared_ptrIN4sycl3_V16detail11device_implELN9__gnu_cxx12_Lock_policyE2EED2Ev
	.cfi_startproc
# %bb.0:                                # %entry
	pushq	%rbp
	.cfi_def_cfa_offset 16
	.cfi_offset %rbp, -16
	movq	%rsp, %rbp
	.cfi_def_cfa_register %rbp
	subq	$16, %rsp
	movq	%rdi, -8(%rbp)
	movq	-8(%rbp), %rdi
	addq	$8, %rdi
	callq	_ZNSt14__shared_countILN9__gnu_cxx12_Lock_policyE2EED2Ev
	addq	$16, %rsp
	popq	%rbp
	.cfi_def_cfa %rsp, 8
	retq
.Lfunc_end100:
	.size	_ZNSt12__shared_ptrIN4sycl3_V16detail11device_implELN9__gnu_cxx12_Lock_policyE2EED2Ev, .Lfunc_end100-_ZNSt12__shared_ptrIN4sycl3_V16detail11device_implELN9__gnu_cxx12_Lock_policyE2EED2Ev
	.cfi_endproc
                                        # -- End function
	.section	.text._ZNSt14_Function_baseD2Ev,"axG",@progbits,_ZNSt14_Function_baseD2Ev,comdat
	.weak	_ZNSt14_Function_baseD2Ev       # -- Begin function _ZNSt14_Function_baseD2Ev
	.p2align	4
	.type	_ZNSt14_Function_baseD2Ev,@function
_ZNSt14_Function_baseD2Ev:              # @_ZNSt14_Function_baseD2Ev
.Lfunc_begin16:
	.cfi_startproc
	.cfi_personality 3, __gxx_personality_v0
	.cfi_lsda 3, .Lexception16
# %bb.0:                                # %entry
	pushq	%rbp
	.cfi_def_cfa_offset 16
	.cfi_offset %rbp, -16
	movq	%rsp, %rbp
	.cfi_def_cfa_register %rbp
	subq	$16, %rsp
	movq	%rdi, -8(%rbp)
	movq	-8(%rbp), %rax
	movq	%rax, -16(%rbp)                 # 8-byte Spill
	cmpq	$0, 16(%rax)
	je	.LBB101_3
# %bb.1:                                # %if.then
	movq	-16(%rbp), %rsi                 # 8-byte Reload
	movq	16(%rsi), %rax
.Ltmp112:                               # EH_LABEL
	movl	$3, %edx
	movq	%rsi, %rdi
	callq	*%rax
.Ltmp113:                               # EH_LABEL
	jmp	.LBB101_2
.LBB101_2:                              # %invoke.cont
	jmp	.LBB101_3
.LBB101_3:                              # %if.end
	addq	$16, %rsp
	popq	%rbp
	.cfi_def_cfa %rsp, 8
	retq
.LBB101_4:                              # %terminate.lpad
	.cfi_def_cfa %rbp, 16
.Ltmp114:                               # EH_LABEL
	movq	%rax, %rdi
                                        # kill: def $eax killed $edx killed $rdx
	callq	__clang_call_terminate
.Lfunc_end101:
	.size	_ZNSt14_Function_baseD2Ev, .Lfunc_end101-_ZNSt14_Function_baseD2Ev
	.cfi_endproc
	.section	.gcc_except_table._ZNSt14_Function_baseD2Ev,"aG",@progbits,_ZNSt14_Function_baseD2Ev,comdat
	.p2align	2, 0x0
GCC_except_table101:
.Lexception16:
	.byte	255                             # @LPStart Encoding = omit
	.byte	3                               # @TType Encoding = udata4
	.uleb128 .Lttbase10-.Lttbaseref10
.Lttbaseref10:
	.byte	1                               # Call site Encoding = uleb128
	.uleb128 .Lcst_end16-.Lcst_begin16
.Lcst_begin16:
	.uleb128 .Ltmp112-.Lfunc_begin16        # >> Call Site 1 <<
	.uleb128 .Ltmp113-.Ltmp112              #   Call between .Ltmp112 and .Ltmp113
	.uleb128 .Ltmp114-.Lfunc_begin16        #     jumps to .Ltmp114
	.byte	1                               #   On action: 1
.Lcst_end16:
	.byte	1                               # >> Action Record 1 <<
                                        #   Catch TypeInfo 1
	.byte	0                               #   No further actions
	.p2align	2, 0x0
                                        # >> Catch TypeInfos <<
	.long	0                               # TypeInfo 1
.Lttbase10:
	.p2align	2, 0x0
                                        # -- End function
	.section	.text._ZNSt10shared_ptrIN4sycl3_V16detail10event_implEED2Ev,"axG",@progbits,_ZNSt10shared_ptrIN4sycl3_V16detail10event_implEED2Ev,comdat
	.weak	_ZNSt10shared_ptrIN4sycl3_V16detail10event_implEED2Ev # -- Begin function _ZNSt10shared_ptrIN4sycl3_V16detail10event_implEED2Ev
	.p2align	4
	.type	_ZNSt10shared_ptrIN4sycl3_V16detail10event_implEED2Ev,@function
_ZNSt10shared_ptrIN4sycl3_V16detail10event_implEED2Ev: # @_ZNSt10shared_ptrIN4sycl3_V16detail10event_implEED2Ev
	.cfi_startproc
# %bb.0:                                # %entry
	pushq	%rbp
	.cfi_def_cfa_offset 16
	.cfi_offset %rbp, -16
	movq	%rsp, %rbp
	.cfi_def_cfa_register %rbp
	subq	$16, %rsp
	movq	%rdi, -8(%rbp)
	movq	-8(%rbp), %rdi
	callq	_ZNSt12__shared_ptrIN4sycl3_V16detail10event_implELN9__gnu_cxx12_Lock_policyE2EED2Ev
	addq	$16, %rsp
	popq	%rbp
	.cfi_def_cfa %rsp, 8
	retq
.Lfunc_end102:
	.size	_ZNSt10shared_ptrIN4sycl3_V16detail10event_implEED2Ev, .Lfunc_end102-_ZNSt10shared_ptrIN4sycl3_V16detail10event_implEED2Ev
	.cfi_endproc
                                        # -- End function
	.section	.text._ZNSt12__shared_ptrIN4sycl3_V16detail10event_implELN9__gnu_cxx12_Lock_policyE2EED2Ev,"axG",@progbits,_ZNSt12__shared_ptrIN4sycl3_V16detail10event_implELN9__gnu_cxx12_Lock_policyE2EED2Ev,comdat
	.weak	_ZNSt12__shared_ptrIN4sycl3_V16detail10event_implELN9__gnu_cxx12_Lock_policyE2EED2Ev # -- Begin function _ZNSt12__shared_ptrIN4sycl3_V16detail10event_implELN9__gnu_cxx12_Lock_policyE2EED2Ev
	.p2align	4
	.type	_ZNSt12__shared_ptrIN4sycl3_V16detail10event_implELN9__gnu_cxx12_Lock_policyE2EED2Ev,@function
_ZNSt12__shared_ptrIN4sycl3_V16detail10event_implELN9__gnu_cxx12_Lock_policyE2EED2Ev: # @_ZNSt12__shared_ptrIN4sycl3_V16detail10event_implELN9__gnu_cxx12_Lock_policyE2EED2Ev
	.cfi_startproc
# %bb.0:                                # %entry
	pushq	%rbp
	.cfi_def_cfa_offset 16
	.cfi_offset %rbp, -16
	movq	%rsp, %rbp
	.cfi_def_cfa_register %rbp
	subq	$16, %rsp
	movq	%rdi, -8(%rbp)
	movq	-8(%rbp), %rdi
	addq	$8, %rdi
	callq	_ZNSt14__shared_countILN9__gnu_cxx12_Lock_policyE2EED2Ev
	addq	$16, %rsp
	popq	%rbp
	.cfi_def_cfa %rsp, 8
	retq
.Lfunc_end103:
	.size	_ZNSt12__shared_ptrIN4sycl3_V16detail10event_implELN9__gnu_cxx12_Lock_policyE2EED2Ev, .Lfunc_end103-_ZNSt12__shared_ptrIN4sycl3_V16detail10event_implELN9__gnu_cxx12_Lock_policyE2EED2Ev
	.cfi_endproc
                                        # -- End function
	.section	.text._ZN4sycl3_V18accessorImLi1ELNS0_6access4modeE1024ELNS2_6targetE2018ELNS2_11placeholderE0ENS0_3ext6oneapi22accessor_property_listIJEEEED2Ev,"axG",@progbits,_ZN4sycl3_V18accessorImLi1ELNS0_6access4modeE1024ELNS2_6targetE2018ELNS2_11placeholderE0ENS0_3ext6oneapi22accessor_property_listIJEEEED2Ev,comdat
	.weak	_ZN4sycl3_V18accessorImLi1ELNS0_6access4modeE1024ELNS2_6targetE2018ELNS2_11placeholderE0ENS0_3ext6oneapi22accessor_property_listIJEEEED2Ev # -- Begin function _ZN4sycl3_V18accessorImLi1ELNS0_6access4modeE1024ELNS2_6targetE2018ELNS2_11placeholderE0ENS0_3ext6oneapi22accessor_property_listIJEEEED2Ev
	.p2align	4
	.type	_ZN4sycl3_V18accessorImLi1ELNS0_6access4modeE1024ELNS2_6targetE2018ELNS2_11placeholderE0ENS0_3ext6oneapi22accessor_property_listIJEEEED2Ev,@function
_ZN4sycl3_V18accessorImLi1ELNS0_6access4modeE1024ELNS2_6targetE2018ELNS2_11placeholderE0ENS0_3ext6oneapi22accessor_property_listIJEEEED2Ev: # @_ZN4sycl3_V18accessorImLi1ELNS0_6access4modeE1024ELNS2_6targetE2018ELNS2_11placeholderE0ENS0_3ext6oneapi22accessor_property_listIJEEEED2Ev
	.cfi_startproc
# %bb.0:                                # %entry
	pushq	%rbp
	.cfi_def_cfa_offset 16
	.cfi_offset %rbp, -16
	movq	%rsp, %rbp
	.cfi_def_cfa_register %rbp
	subq	$16, %rsp
	movq	%rdi, -8(%rbp)
	movq	-8(%rbp), %rdi
	callq	_ZN4sycl3_V16detail16AccessorBaseHostD2Ev
	addq	$16, %rsp
	popq	%rbp
	.cfi_def_cfa %rsp, 8
	retq
.Lfunc_end104:
	.size	_ZN4sycl3_V18accessorImLi1ELNS0_6access4modeE1024ELNS2_6targetE2018ELNS2_11placeholderE0ENS0_3ext6oneapi22accessor_property_listIJEEEED2Ev, .Lfunc_end104-_ZN4sycl3_V18accessorImLi1ELNS0_6access4modeE1024ELNS2_6targetE2018ELNS2_11placeholderE0ENS0_3ext6oneapi22accessor_property_listIJEEEED2Ev
	.cfi_endproc
                                        # -- End function
	.section	.text._ZN4sycl3_V16detail16AccessorBaseHostD2Ev,"axG",@progbits,_ZN4sycl3_V16detail16AccessorBaseHostD2Ev,comdat
	.weak	_ZN4sycl3_V16detail16AccessorBaseHostD2Ev # -- Begin function _ZN4sycl3_V16detail16AccessorBaseHostD2Ev
	.p2align	4
	.type	_ZN4sycl3_V16detail16AccessorBaseHostD2Ev,@function
_ZN4sycl3_V16detail16AccessorBaseHostD2Ev: # @_ZN4sycl3_V16detail16AccessorBaseHostD2Ev
	.cfi_startproc
# %bb.0:                                # %entry
	pushq	%rbp
	.cfi_def_cfa_offset 16
	.cfi_offset %rbp, -16
	movq	%rsp, %rbp
	.cfi_def_cfa_register %rbp
	subq	$16, %rsp
	movq	%rdi, -8(%rbp)
	movq	-8(%rbp), %rdi
	callq	_ZNSt10shared_ptrIN4sycl3_V16detail16AccessorImplHostEED2Ev
	addq	$16, %rsp
	popq	%rbp
	.cfi_def_cfa %rsp, 8
	retq
.Lfunc_end105:
	.size	_ZN4sycl3_V16detail16AccessorBaseHostD2Ev, .Lfunc_end105-_ZN4sycl3_V16detail16AccessorBaseHostD2Ev
	.cfi_endproc
                                        # -- End function
	.section	.text._ZNSt10shared_ptrIN4sycl3_V16detail16AccessorImplHostEED2Ev,"axG",@progbits,_ZNSt10shared_ptrIN4sycl3_V16detail16AccessorImplHostEED2Ev,comdat
	.weak	_ZNSt10shared_ptrIN4sycl3_V16detail16AccessorImplHostEED2Ev # -- Begin function _ZNSt10shared_ptrIN4sycl3_V16detail16AccessorImplHostEED2Ev
	.p2align	4
	.type	_ZNSt10shared_ptrIN4sycl3_V16detail16AccessorImplHostEED2Ev,@function
_ZNSt10shared_ptrIN4sycl3_V16detail16AccessorImplHostEED2Ev: # @_ZNSt10shared_ptrIN4sycl3_V16detail16AccessorImplHostEED2Ev
	.cfi_startproc
# %bb.0:                                # %entry
	pushq	%rbp
	.cfi_def_cfa_offset 16
	.cfi_offset %rbp, -16
	movq	%rsp, %rbp
	.cfi_def_cfa_register %rbp
	subq	$16, %rsp
	movq	%rdi, -8(%rbp)
	movq	-8(%rbp), %rdi
	callq	_ZNSt12__shared_ptrIN4sycl3_V16detail16AccessorImplHostELN9__gnu_cxx12_Lock_policyE2EED2Ev
	addq	$16, %rsp
	popq	%rbp
	.cfi_def_cfa %rsp, 8
	retq
.Lfunc_end106:
	.size	_ZNSt10shared_ptrIN4sycl3_V16detail16AccessorImplHostEED2Ev, .Lfunc_end106-_ZNSt10shared_ptrIN4sycl3_V16detail16AccessorImplHostEED2Ev
	.cfi_endproc
                                        # -- End function
	.section	.text._ZNSt12__shared_ptrIN4sycl3_V16detail16AccessorImplHostELN9__gnu_cxx12_Lock_policyE2EED2Ev,"axG",@progbits,_ZNSt12__shared_ptrIN4sycl3_V16detail16AccessorImplHostELN9__gnu_cxx12_Lock_policyE2EED2Ev,comdat
	.weak	_ZNSt12__shared_ptrIN4sycl3_V16detail16AccessorImplHostELN9__gnu_cxx12_Lock_policyE2EED2Ev # -- Begin function _ZNSt12__shared_ptrIN4sycl3_V16detail16AccessorImplHostELN9__gnu_cxx12_Lock_policyE2EED2Ev
	.p2align	4
	.type	_ZNSt12__shared_ptrIN4sycl3_V16detail16AccessorImplHostELN9__gnu_cxx12_Lock_policyE2EED2Ev,@function
_ZNSt12__shared_ptrIN4sycl3_V16detail16AccessorImplHostELN9__gnu_cxx12_Lock_policyE2EED2Ev: # @_ZNSt12__shared_ptrIN4sycl3_V16detail16AccessorImplHostELN9__gnu_cxx12_Lock_policyE2EED2Ev
	.cfi_startproc
# %bb.0:                                # %entry
	pushq	%rbp
	.cfi_def_cfa_offset 16
	.cfi_offset %rbp, -16
	movq	%rsp, %rbp
	.cfi_def_cfa_register %rbp
	subq	$16, %rsp
	movq	%rdi, -8(%rbp)
	movq	-8(%rbp), %rdi
	addq	$8, %rdi
	callq	_ZNSt14__shared_countILN9__gnu_cxx12_Lock_policyE2EED2Ev
	addq	$16, %rsp
	popq	%rbp
	.cfi_def_cfa %rsp, 8
	retq
.Lfunc_end107:
	.size	_ZNSt12__shared_ptrIN4sycl3_V16detail16AccessorImplHostELN9__gnu_cxx12_Lock_policyE2EED2Ev, .Lfunc_end107-_ZNSt12__shared_ptrIN4sycl3_V16detail16AccessorImplHostELN9__gnu_cxx12_Lock_policyE2EED2Ev
	.cfi_endproc
                                        # -- End function
	.section	.text._ZNSt10shared_ptrIN4sycl3_V16detail10queue_implEED2Ev,"axG",@progbits,_ZNSt10shared_ptrIN4sycl3_V16detail10queue_implEED2Ev,comdat
	.weak	_ZNSt10shared_ptrIN4sycl3_V16detail10queue_implEED2Ev # -- Begin function _ZNSt10shared_ptrIN4sycl3_V16detail10queue_implEED2Ev
	.p2align	4
	.type	_ZNSt10shared_ptrIN4sycl3_V16detail10queue_implEED2Ev,@function
_ZNSt10shared_ptrIN4sycl3_V16detail10queue_implEED2Ev: # @_ZNSt10shared_ptrIN4sycl3_V16detail10queue_implEED2Ev
	.cfi_startproc
# %bb.0:                                # %entry
	pushq	%rbp
	.cfi_def_cfa_offset 16
	.cfi_offset %rbp, -16
	movq	%rsp, %rbp
	.cfi_def_cfa_register %rbp
	subq	$16, %rsp
	movq	%rdi, -8(%rbp)
	movq	-8(%rbp), %rdi
	callq	_ZNSt12__shared_ptrIN4sycl3_V16detail10queue_implELN9__gnu_cxx12_Lock_policyE2EED2Ev
	addq	$16, %rsp
	popq	%rbp
	.cfi_def_cfa %rsp, 8
	retq
.Lfunc_end108:
	.size	_ZNSt10shared_ptrIN4sycl3_V16detail10queue_implEED2Ev, .Lfunc_end108-_ZNSt10shared_ptrIN4sycl3_V16detail10queue_implEED2Ev
	.cfi_endproc
                                        # -- End function
	.section	.text._ZNSt12__shared_ptrIN4sycl3_V16detail10queue_implELN9__gnu_cxx12_Lock_policyE2EED2Ev,"axG",@progbits,_ZNSt12__shared_ptrIN4sycl3_V16detail10queue_implELN9__gnu_cxx12_Lock_policyE2EED2Ev,comdat
	.weak	_ZNSt12__shared_ptrIN4sycl3_V16detail10queue_implELN9__gnu_cxx12_Lock_policyE2EED2Ev # -- Begin function _ZNSt12__shared_ptrIN4sycl3_V16detail10queue_implELN9__gnu_cxx12_Lock_policyE2EED2Ev
	.p2align	4
	.type	_ZNSt12__shared_ptrIN4sycl3_V16detail10queue_implELN9__gnu_cxx12_Lock_policyE2EED2Ev,@function
_ZNSt12__shared_ptrIN4sycl3_V16detail10queue_implELN9__gnu_cxx12_Lock_policyE2EED2Ev: # @_ZNSt12__shared_ptrIN4sycl3_V16detail10queue_implELN9__gnu_cxx12_Lock_policyE2EED2Ev
	.cfi_startproc
# %bb.0:                                # %entry
	pushq	%rbp
	.cfi_def_cfa_offset 16
	.cfi_offset %rbp, -16
	movq	%rsp, %rbp
	.cfi_def_cfa_register %rbp
	subq	$16, %rsp
	movq	%rdi, -8(%rbp)
	movq	-8(%rbp), %rdi
	addq	$8, %rdi
	callq	_ZNSt14__shared_countILN9__gnu_cxx12_Lock_policyE2EED2Ev
	addq	$16, %rsp
	popq	%rbp
	.cfi_def_cfa %rsp, 8
	retq
.Lfunc_end109:
	.size	_ZNSt12__shared_ptrIN4sycl3_V16detail10queue_implELN9__gnu_cxx12_Lock_policyE2EED2Ev, .Lfunc_end109-_ZNSt12__shared_ptrIN4sycl3_V16detail10queue_implELN9__gnu_cxx12_Lock_policyE2EED2Ev
	.cfi_endproc
                                        # -- End function
	.section	.text._ZN4sycl3_V16detail5arrayILi1EEC2ILi1EEENSt9enable_ifIXeqT_Li1EEmE4typeE,"axG",@progbits,_ZN4sycl3_V16detail5arrayILi1EEC2ILi1EEENSt9enable_ifIXeqT_Li1EEmE4typeE,comdat
	.weak	_ZN4sycl3_V16detail5arrayILi1EEC2ILi1EEENSt9enable_ifIXeqT_Li1EEmE4typeE # -- Begin function _ZN4sycl3_V16detail5arrayILi1EEC2ILi1EEENSt9enable_ifIXeqT_Li1EEmE4typeE
	.p2align	4
	.type	_ZN4sycl3_V16detail5arrayILi1EEC2ILi1EEENSt9enable_ifIXeqT_Li1EEmE4typeE,@function
_ZN4sycl3_V16detail5arrayILi1EEC2ILi1EEENSt9enable_ifIXeqT_Li1EEmE4typeE: # @_ZN4sycl3_V16detail5arrayILi1EEC2ILi1EEENSt9enable_ifIXeqT_Li1EEmE4typeE
	.cfi_startproc
# %bb.0:                                # %entry
	pushq	%rbp
	.cfi_def_cfa_offset 16
	.cfi_offset %rbp, -16
	movq	%rsp, %rbp
	.cfi_def_cfa_register %rbp
	movq	%rdi, -8(%rbp)
	movq	%rsi, -16(%rbp)
	movq	-8(%rbp), %rax
	movq	-16(%rbp), %rcx
	movq	%rcx, (%rax)
	popq	%rbp
	.cfi_def_cfa %rsp, 8
	retq
.Lfunc_end110:
	.size	_ZN4sycl3_V16detail5arrayILi1EEC2ILi1EEENSt9enable_ifIXeqT_Li1EEmE4typeE, .Lfunc_end110-_ZN4sycl3_V16detail5arrayILi1EEC2ILi1EEENSt9enable_ifIXeqT_Li1EEmE4typeE
	.cfi_endproc
                                        # -- End function
	.section	.text._ZNSt6bitsetILm32EEC2Ey,"axG",@progbits,_ZNSt6bitsetILm32EEC2Ey,comdat
	.weak	_ZNSt6bitsetILm32EEC2Ey         # -- Begin function _ZNSt6bitsetILm32EEC2Ey
	.p2align	4
	.type	_ZNSt6bitsetILm32EEC2Ey,@function
_ZNSt6bitsetILm32EEC2Ey:                # @_ZNSt6bitsetILm32EEC2Ey
.Lfunc_begin17:
	.cfi_startproc
	.cfi_personality 3, __gxx_personality_v0
	.cfi_lsda 3, .Lexception17
# %bb.0:                                # %entry
	pushq	%rbp
	.cfi_def_cfa_offset 16
	.cfi_offset %rbp, -16
	movq	%rsp, %rbp
	.cfi_def_cfa_register %rbp
	subq	$32, %rsp
	movq	%rdi, -8(%rbp)
	movq	%rsi, -16(%rbp)
	movq	-8(%rbp), %rax
	movq	%rax, -32(%rbp)                 # 8-byte Spill
	movq	-16(%rbp), %rdi
.Ltmp115:                               # EH_LABEL
	callq	_ZNSt13_Sanitize_valILm32ELb1EE18_S_do_sanitize_valEy
.Ltmp116:                               # EH_LABEL
	movq	%rax, -24(%rbp)                 # 8-byte Spill
	jmp	.LBB111_1
.LBB111_1:                              # %invoke.cont
	movq	-24(%rbp), %rsi                 # 8-byte Reload
	movq	-32(%rbp), %rdi                 # 8-byte Reload
	callq	_ZNSt12_Base_bitsetILm1EEC2Ey
	addq	$32, %rsp
	popq	%rbp
	.cfi_def_cfa %rsp, 8
	retq
.LBB111_2:                              # %terminate.lpad
	.cfi_def_cfa %rbp, 16
.Ltmp117:                               # EH_LABEL
	movq	%rax, %rdi
                                        # kill: def $eax killed $edx killed $rdx
	callq	__clang_call_terminate
.Lfunc_end111:
	.size	_ZNSt6bitsetILm32EEC2Ey, .Lfunc_end111-_ZNSt6bitsetILm32EEC2Ey
	.cfi_endproc
	.section	.gcc_except_table._ZNSt6bitsetILm32EEC2Ey,"aG",@progbits,_ZNSt6bitsetILm32EEC2Ey,comdat
	.p2align	2, 0x0
GCC_except_table111:
.Lexception17:
	.byte	255                             # @LPStart Encoding = omit
	.byte	3                               # @TType Encoding = udata4
	.uleb128 .Lttbase11-.Lttbaseref11
.Lttbaseref11:
	.byte	1                               # Call site Encoding = uleb128
	.uleb128 .Lcst_end17-.Lcst_begin17
.Lcst_begin17:
	.uleb128 .Ltmp115-.Lfunc_begin17        # >> Call Site 1 <<
	.uleb128 .Ltmp116-.Ltmp115              #   Call between .Ltmp115 and .Ltmp116
	.uleb128 .Ltmp117-.Lfunc_begin17        #     jumps to .Ltmp117
	.byte	1                               #   On action: 1
.Lcst_end17:
	.byte	1                               # >> Action Record 1 <<
                                        #   Catch TypeInfo 1
	.byte	0                               #   No further actions
	.p2align	2, 0x0
                                        # >> Catch TypeInfos <<
	.long	0                               # TypeInfo 1
.Lttbase11:
	.p2align	2, 0x0
                                        # -- End function
	.section	.text._ZN4sycl3_V16detail16PropertyListBaseC2ESt6bitsetILm32EE,"axG",@progbits,_ZN4sycl3_V16detail16PropertyListBaseC2ESt6bitsetILm32EE,comdat
	.weak	_ZN4sycl3_V16detail16PropertyListBaseC2ESt6bitsetILm32EE # -- Begin function _ZN4sycl3_V16detail16PropertyListBaseC2ESt6bitsetILm32EE
	.p2align	4
	.type	_ZN4sycl3_V16detail16PropertyListBaseC2ESt6bitsetILm32EE,@function
_ZN4sycl3_V16detail16PropertyListBaseC2ESt6bitsetILm32EE: # @_ZN4sycl3_V16detail16PropertyListBaseC2ESt6bitsetILm32EE
	.cfi_startproc
# %bb.0:                                # %entry
	pushq	%rbp
	.cfi_def_cfa_offset 16
	.cfi_offset %rbp, -16
	movq	%rsp, %rbp
	.cfi_def_cfa_register %rbp
	subq	$16, %rsp
	movq	%rsi, -8(%rbp)
	movq	%rdi, -16(%rbp)
	movq	-16(%rbp), %rdi
	movq	-8(%rbp), %rax
	movq	%rax, (%rdi)
	addq	$8, %rdi
	callq	_ZNSt6vectorISt10shared_ptrIN4sycl3_V16detail20PropertyWithDataBaseEESaIS5_EEC2Ev
	addq	$16, %rsp
	popq	%rbp
	.cfi_def_cfa %rsp, 8
	retq
.Lfunc_end112:
	.size	_ZN4sycl3_V16detail16PropertyListBaseC2ESt6bitsetILm32EE, .Lfunc_end112-_ZN4sycl3_V16detail16PropertyListBaseC2ESt6bitsetILm32EE
	.cfi_endproc
                                        # -- End function
	.section	.text._ZN4sycl3_V16detail16PropertyListBase10ctorHelperEv,"axG",@progbits,_ZN4sycl3_V16detail16PropertyListBase10ctorHelperEv,comdat
	.weak	_ZN4sycl3_V16detail16PropertyListBase10ctorHelperEv # -- Begin function _ZN4sycl3_V16detail16PropertyListBase10ctorHelperEv
	.p2align	4
	.type	_ZN4sycl3_V16detail16PropertyListBase10ctorHelperEv,@function
_ZN4sycl3_V16detail16PropertyListBase10ctorHelperEv: # @_ZN4sycl3_V16detail16PropertyListBase10ctorHelperEv
	.cfi_startproc
# %bb.0:                                # %entry
	pushq	%rbp
	.cfi_def_cfa_offset 16
	.cfi_offset %rbp, -16
	movq	%rsp, %rbp
	.cfi_def_cfa_register %rbp
	movq	%rdi, -8(%rbp)
	popq	%rbp
	.cfi_def_cfa %rsp, 8
	retq
.Lfunc_end113:
	.size	_ZN4sycl3_V16detail16PropertyListBase10ctorHelperEv, .Lfunc_end113-_ZN4sycl3_V16detail16PropertyListBase10ctorHelperEv
	.cfi_endproc
                                        # -- End function
	.section	.text._ZNSt13_Sanitize_valILm32ELb1EE18_S_do_sanitize_valEy,"axG",@progbits,_ZNSt13_Sanitize_valILm32ELb1EE18_S_do_sanitize_valEy,comdat
	.weak	_ZNSt13_Sanitize_valILm32ELb1EE18_S_do_sanitize_valEy # -- Begin function _ZNSt13_Sanitize_valILm32ELb1EE18_S_do_sanitize_valEy
	.p2align	4
	.type	_ZNSt13_Sanitize_valILm32ELb1EE18_S_do_sanitize_valEy,@function
_ZNSt13_Sanitize_valILm32ELb1EE18_S_do_sanitize_valEy: # @_ZNSt13_Sanitize_valILm32ELb1EE18_S_do_sanitize_valEy
	.cfi_startproc
# %bb.0:                                # %entry
	pushq	%rbp
	.cfi_def_cfa_offset 16
	.cfi_offset %rbp, -16
	movq	%rsp, %rbp
	.cfi_def_cfa_register %rbp
	movq	%rdi, -8(%rbp)
	movabsq	$4294967295, %rax               # imm = 0xFFFFFFFF
	andq	-8(%rbp), %rax
	popq	%rbp
	.cfi_def_cfa %rsp, 8
	retq
.Lfunc_end114:
	.size	_ZNSt13_Sanitize_valILm32ELb1EE18_S_do_sanitize_valEy, .Lfunc_end114-_ZNSt13_Sanitize_valILm32ELb1EE18_S_do_sanitize_valEy
	.cfi_endproc
                                        # -- End function
	.section	.text._ZNSt12_Base_bitsetILm1EEC2Ey,"axG",@progbits,_ZNSt12_Base_bitsetILm1EEC2Ey,comdat
	.weak	_ZNSt12_Base_bitsetILm1EEC2Ey   # -- Begin function _ZNSt12_Base_bitsetILm1EEC2Ey
	.p2align	4
	.type	_ZNSt12_Base_bitsetILm1EEC2Ey,@function
_ZNSt12_Base_bitsetILm1EEC2Ey:          # @_ZNSt12_Base_bitsetILm1EEC2Ey
	.cfi_startproc
# %bb.0:                                # %entry
	pushq	%rbp
	.cfi_def_cfa_offset 16
	.cfi_offset %rbp, -16
	movq	%rsp, %rbp
	.cfi_def_cfa_register %rbp
	movq	%rdi, -8(%rbp)
	movq	%rsi, -16(%rbp)
	movq	-8(%rbp), %rax
	movq	-16(%rbp), %rcx
	movq	%rcx, (%rax)
	popq	%rbp
	.cfi_def_cfa %rsp, 8
	retq
.Lfunc_end115:
	.size	_ZNSt12_Base_bitsetILm1EEC2Ey, .Lfunc_end115-_ZNSt12_Base_bitsetILm1EEC2Ey
	.cfi_endproc
                                        # -- End function
	.section	.text._ZNSt6vectorISt10shared_ptrIN4sycl3_V16detail20PropertyWithDataBaseEESaIS5_EEC2Ev,"axG",@progbits,_ZNSt6vectorISt10shared_ptrIN4sycl3_V16detail20PropertyWithDataBaseEESaIS5_EEC2Ev,comdat
	.weak	_ZNSt6vectorISt10shared_ptrIN4sycl3_V16detail20PropertyWithDataBaseEESaIS5_EEC2Ev # -- Begin function _ZNSt6vectorISt10shared_ptrIN4sycl3_V16detail20PropertyWithDataBaseEESaIS5_EEC2Ev
	.p2align	4
	.type	_ZNSt6vectorISt10shared_ptrIN4sycl3_V16detail20PropertyWithDataBaseEESaIS5_EEC2Ev,@function
_ZNSt6vectorISt10shared_ptrIN4sycl3_V16detail20PropertyWithDataBaseEESaIS5_EEC2Ev: # @_ZNSt6vectorISt10shared_ptrIN4sycl3_V16detail20PropertyWithDataBaseEESaIS5_EEC2Ev
	.cfi_startproc
# %bb.0:                                # %entry
	pushq	%rbp
	.cfi_def_cfa_offset 16
	.cfi_offset %rbp, -16
	movq	%rsp, %rbp
	.cfi_def_cfa_register %rbp
	subq	$16, %rsp
	movq	%rdi, -8(%rbp)
	movq	-8(%rbp), %rdi
	callq	_ZNSt12_Vector_baseISt10shared_ptrIN4sycl3_V16detail20PropertyWithDataBaseEESaIS5_EEC2Ev
	addq	$16, %rsp
	popq	%rbp
	.cfi_def_cfa %rsp, 8
	retq
.Lfunc_end116:
	.size	_ZNSt6vectorISt10shared_ptrIN4sycl3_V16detail20PropertyWithDataBaseEESaIS5_EEC2Ev, .Lfunc_end116-_ZNSt6vectorISt10shared_ptrIN4sycl3_V16detail20PropertyWithDataBaseEESaIS5_EEC2Ev
	.cfi_endproc
                                        # -- End function
	.section	.text._ZNSt12_Vector_baseISt10shared_ptrIN4sycl3_V16detail20PropertyWithDataBaseEESaIS5_EEC2Ev,"axG",@progbits,_ZNSt12_Vector_baseISt10shared_ptrIN4sycl3_V16detail20PropertyWithDataBaseEESaIS5_EEC2Ev,comdat
	.weak	_ZNSt12_Vector_baseISt10shared_ptrIN4sycl3_V16detail20PropertyWithDataBaseEESaIS5_EEC2Ev # -- Begin function _ZNSt12_Vector_baseISt10shared_ptrIN4sycl3_V16detail20PropertyWithDataBaseEESaIS5_EEC2Ev
	.p2align	4
	.type	_ZNSt12_Vector_baseISt10shared_ptrIN4sycl3_V16detail20PropertyWithDataBaseEESaIS5_EEC2Ev,@function
_ZNSt12_Vector_baseISt10shared_ptrIN4sycl3_V16detail20PropertyWithDataBaseEESaIS5_EEC2Ev: # @_ZNSt12_Vector_baseISt10shared_ptrIN4sycl3_V16detail20PropertyWithDataBaseEESaIS5_EEC2Ev
	.cfi_startproc
# %bb.0:                                # %entry
	pushq	%rbp
	.cfi_def_cfa_offset 16
	.cfi_offset %rbp, -16
	movq	%rsp, %rbp
	.cfi_def_cfa_register %rbp
	subq	$16, %rsp
	movq	%rdi, -8(%rbp)
	movq	-8(%rbp), %rdi
	callq	_ZNSt12_Vector_baseISt10shared_ptrIN4sycl3_V16detail20PropertyWithDataBaseEESaIS5_EE12_Vector_implC2Ev
	addq	$16, %rsp
	popq	%rbp
	.cfi_def_cfa %rsp, 8
	retq
.Lfunc_end117:
	.size	_ZNSt12_Vector_baseISt10shared_ptrIN4sycl3_V16detail20PropertyWithDataBaseEESaIS5_EEC2Ev, .Lfunc_end117-_ZNSt12_Vector_baseISt10shared_ptrIN4sycl3_V16detail20PropertyWithDataBaseEESaIS5_EEC2Ev
	.cfi_endproc
                                        # -- End function
	.section	.text._ZNSt12_Vector_baseISt10shared_ptrIN4sycl3_V16detail20PropertyWithDataBaseEESaIS5_EE12_Vector_implC2Ev,"axG",@progbits,_ZNSt12_Vector_baseISt10shared_ptrIN4sycl3_V16detail20PropertyWithDataBaseEESaIS5_EE12_Vector_implC2Ev,comdat
	.weak	_ZNSt12_Vector_baseISt10shared_ptrIN4sycl3_V16detail20PropertyWithDataBaseEESaIS5_EE12_Vector_implC2Ev # -- Begin function _ZNSt12_Vector_baseISt10shared_ptrIN4sycl3_V16detail20PropertyWithDataBaseEESaIS5_EE12_Vector_implC2Ev
	.p2align	4
	.type	_ZNSt12_Vector_baseISt10shared_ptrIN4sycl3_V16detail20PropertyWithDataBaseEESaIS5_EE12_Vector_implC2Ev,@function
_ZNSt12_Vector_baseISt10shared_ptrIN4sycl3_V16detail20PropertyWithDataBaseEESaIS5_EE12_Vector_implC2Ev: # @_ZNSt12_Vector_baseISt10shared_ptrIN4sycl3_V16detail20PropertyWithDataBaseEESaIS5_EE12_Vector_implC2Ev
	.cfi_startproc
# %bb.0:                                # %entry
	pushq	%rbp
	.cfi_def_cfa_offset 16
	.cfi_offset %rbp, -16
	movq	%rsp, %rbp
	.cfi_def_cfa_register %rbp
	subq	$32, %rsp
	movq	%rdi, -24(%rbp)
	movq	-24(%rbp), %rdi
	movq	%rdi, -16(%rbp)
	movq	-16(%rbp), %rax
	movq	%rax, -8(%rbp)
	callq	_ZNSt12_Vector_baseISt10shared_ptrIN4sycl3_V16detail20PropertyWithDataBaseEESaIS5_EE17_Vector_impl_dataC2Ev
	addq	$32, %rsp
	popq	%rbp
	.cfi_def_cfa %rsp, 8
	retq
.Lfunc_end118:
	.size	_ZNSt12_Vector_baseISt10shared_ptrIN4sycl3_V16detail20PropertyWithDataBaseEESaIS5_EE12_Vector_implC2Ev, .Lfunc_end118-_ZNSt12_Vector_baseISt10shared_ptrIN4sycl3_V16detail20PropertyWithDataBaseEESaIS5_EE12_Vector_implC2Ev
	.cfi_endproc
                                        # -- End function
	.section	.text._ZNSt12_Vector_baseISt10shared_ptrIN4sycl3_V16detail20PropertyWithDataBaseEESaIS5_EE17_Vector_impl_dataC2Ev,"axG",@progbits,_ZNSt12_Vector_baseISt10shared_ptrIN4sycl3_V16detail20PropertyWithDataBaseEESaIS5_EE17_Vector_impl_dataC2Ev,comdat
	.weak	_ZNSt12_Vector_baseISt10shared_ptrIN4sycl3_V16detail20PropertyWithDataBaseEESaIS5_EE17_Vector_impl_dataC2Ev # -- Begin function _ZNSt12_Vector_baseISt10shared_ptrIN4sycl3_V16detail20PropertyWithDataBaseEESaIS5_EE17_Vector_impl_dataC2Ev
	.p2align	4
	.type	_ZNSt12_Vector_baseISt10shared_ptrIN4sycl3_V16detail20PropertyWithDataBaseEESaIS5_EE17_Vector_impl_dataC2Ev,@function
_ZNSt12_Vector_baseISt10shared_ptrIN4sycl3_V16detail20PropertyWithDataBaseEESaIS5_EE17_Vector_impl_dataC2Ev: # @_ZNSt12_Vector_baseISt10shared_ptrIN4sycl3_V16detail20PropertyWithDataBaseEESaIS5_EE17_Vector_impl_dataC2Ev
	.cfi_startproc
# %bb.0:                                # %entry
	pushq	%rbp
	.cfi_def_cfa_offset 16
	.cfi_offset %rbp, -16
	movq	%rsp, %rbp
	.cfi_def_cfa_register %rbp
	movq	%rdi, -8(%rbp)
	movq	-8(%rbp), %rax
	movq	$0, (%rax)
	movq	$0, 8(%rax)
	movq	$0, 16(%rax)
	popq	%rbp
	.cfi_def_cfa %rsp, 8
	retq
.Lfunc_end119:
	.size	_ZNSt12_Vector_baseISt10shared_ptrIN4sycl3_V16detail20PropertyWithDataBaseEESaIS5_EE17_Vector_impl_dataC2Ev, .Lfunc_end119-_ZNSt12_Vector_baseISt10shared_ptrIN4sycl3_V16detail20PropertyWithDataBaseEESaIS5_EE17_Vector_impl_dataC2Ev
	.cfi_endproc
                                        # -- End function
	.section	.text._ZNK4sycl3_V15rangeILi1EE4sizeEv,"axG",@progbits,_ZNK4sycl3_V15rangeILi1EE4sizeEv,comdat
	.weak	_ZNK4sycl3_V15rangeILi1EE4sizeEv # -- Begin function _ZNK4sycl3_V15rangeILi1EE4sizeEv
	.p2align	4
	.type	_ZNK4sycl3_V15rangeILi1EE4sizeEv,@function
_ZNK4sycl3_V15rangeILi1EE4sizeEv:       # @_ZNK4sycl3_V15rangeILi1EE4sizeEv
	.cfi_startproc
# %bb.0:                                # %entry
	pushq	%rbp
	.cfi_def_cfa_offset 16
	.cfi_offset %rbp, -16
	movq	%rsp, %rbp
	.cfi_def_cfa_register %rbp
	movq	%rdi, -8(%rbp)
	movq	-8(%rbp), %rax
	movq	%rax, -32(%rbp)                 # 8-byte Spill
	movq	$1, -16(%rbp)
	movl	$0, -20(%rbp)
.LBB120_1:                              # %for.cond
                                        # =>This Inner Loop Header: Depth=1
	cmpl	$1, -20(%rbp)
	jge	.LBB120_4
# %bb.2:                                # %for.body
                                        #   in Loop: Header=BB120_1 Depth=1
	movq	-32(%rbp), %rax                 # 8-byte Reload
	movslq	-20(%rbp), %rcx
	movq	(%rax,%rcx,8), %rax
	imulq	-16(%rbp), %rax
	movq	%rax, -16(%rbp)
# %bb.3:                                # %for.inc
                                        #   in Loop: Header=BB120_1 Depth=1
	movl	-20(%rbp), %eax
	addl	$1, %eax
	movl	%eax, -20(%rbp)
	jmp	.LBB120_1
.LBB120_4:                              # %for.end
	movq	-16(%rbp), %rax
	popq	%rbp
	.cfi_def_cfa %rsp, 8
	retq
.Lfunc_end120:
	.size	_ZNK4sycl3_V15rangeILi1EE4sizeEv, .Lfunc_end120-_ZNK4sycl3_V15rangeILi1EE4sizeEv
	.cfi_endproc
                                        # -- End function
	.section	.text._ZSt11make_uniqueIN4sycl3_V16detail25SYCLMemObjAllocatorHolderINS2_17aligned_allocatorImEEmEEJEENSt8__detail9_MakeUniqIT_E15__single_objectEDpOT0_,"axG",@progbits,_ZSt11make_uniqueIN4sycl3_V16detail25SYCLMemObjAllocatorHolderINS2_17aligned_allocatorImEEmEEJEENSt8__detail9_MakeUniqIT_E15__single_objectEDpOT0_,comdat
	.weak	_ZSt11make_uniqueIN4sycl3_V16detail25SYCLMemObjAllocatorHolderINS2_17aligned_allocatorImEEmEEJEENSt8__detail9_MakeUniqIT_E15__single_objectEDpOT0_ # -- Begin function _ZSt11make_uniqueIN4sycl3_V16detail25SYCLMemObjAllocatorHolderINS2_17aligned_allocatorImEEmEEJEENSt8__detail9_MakeUniqIT_E15__single_objectEDpOT0_
	.p2align	4
	.type	_ZSt11make_uniqueIN4sycl3_V16detail25SYCLMemObjAllocatorHolderINS2_17aligned_allocatorImEEmEEJEENSt8__detail9_MakeUniqIT_E15__single_objectEDpOT0_,@function
_ZSt11make_uniqueIN4sycl3_V16detail25SYCLMemObjAllocatorHolderINS2_17aligned_allocatorImEEmEEJEENSt8__detail9_MakeUniqIT_E15__single_objectEDpOT0_: # @_ZSt11make_uniqueIN4sycl3_V16detail25SYCLMemObjAllocatorHolderINS2_17aligned_allocatorImEEmEEJEENSt8__detail9_MakeUniqIT_E15__single_objectEDpOT0_
.Lfunc_begin18:
	.cfi_startproc
	.cfi_personality 3, __gxx_personality_v0
	.cfi_lsda 3, .Lexception18
# %bb.0:                                # %entry
	pushq	%rbp
	.cfi_def_cfa_offset 16
	.cfi_offset %rbp, -16
	movq	%rsp, %rbp
	.cfi_def_cfa_register %rbp
	subq	$48, %rsp
	movq	%rdi, -48(%rbp)                 # 8-byte Spill
	movq	%rdi, %rax
	movq	%rax, -40(%rbp)                 # 8-byte Spill
	movq	%rdi, -8(%rbp)
	movl	$24, %edi
	callq	_Znwm
	movq	%rax, %rdi
	movq	%rdi, %rax
	movq	%rax, -32(%rbp)                 # 8-byte Spill
.Ltmp118:                               # EH_LABEL
	callq	_ZN4sycl3_V16detail25SYCLMemObjAllocatorHolderINS1_17aligned_allocatorImEEmEC2Ev
.Ltmp119:                               # EH_LABEL
	jmp	.LBB121_1
.LBB121_1:                              # %invoke.cont
	movq	-32(%rbp), %rsi                 # 8-byte Reload
	movq	-48(%rbp), %rdi                 # 8-byte Reload
	callq	_ZNSt10unique_ptrIN4sycl3_V16detail25SYCLMemObjAllocatorHolderINS2_17aligned_allocatorImEEmEESt14default_deleteIS6_EEC2IS8_vEEPS6_
	movq	-40(%rbp), %rax                 # 8-byte Reload
	addq	$48, %rsp
	popq	%rbp
	.cfi_def_cfa %rsp, 8
	retq
.LBB121_2:                              # %lpad
	.cfi_def_cfa %rbp, 16
.Ltmp120:                               # EH_LABEL
	movq	-32(%rbp), %rdi                 # 8-byte Reload
	movq	%rax, %rcx
	movl	%edx, %eax
	movq	%rcx, -16(%rbp)
	movl	%eax, -20(%rbp)
	movl	$24, %esi
	callq	_ZdlPvm
# %bb.3:                                # %eh.resume
	movq	-16(%rbp), %rdi
	callq	_Unwind_Resume@PLT
.Lfunc_end121:
	.size	_ZSt11make_uniqueIN4sycl3_V16detail25SYCLMemObjAllocatorHolderINS2_17aligned_allocatorImEEmEEJEENSt8__detail9_MakeUniqIT_E15__single_objectEDpOT0_, .Lfunc_end121-_ZSt11make_uniqueIN4sycl3_V16detail25SYCLMemObjAllocatorHolderINS2_17aligned_allocatorImEEmEEJEENSt8__detail9_MakeUniqIT_E15__single_objectEDpOT0_
	.cfi_endproc
	.section	.gcc_except_table._ZSt11make_uniqueIN4sycl3_V16detail25SYCLMemObjAllocatorHolderINS2_17aligned_allocatorImEEmEEJEENSt8__detail9_MakeUniqIT_E15__single_objectEDpOT0_,"aG",@progbits,_ZSt11make_uniqueIN4sycl3_V16detail25SYCLMemObjAllocatorHolderINS2_17aligned_allocatorImEEmEEJEENSt8__detail9_MakeUniqIT_E15__single_objectEDpOT0_,comdat
	.p2align	2, 0x0
GCC_except_table121:
.Lexception18:
	.byte	255                             # @LPStart Encoding = omit
	.byte	255                             # @TType Encoding = omit
	.byte	1                               # Call site Encoding = uleb128
	.uleb128 .Lcst_end18-.Lcst_begin18
.Lcst_begin18:
	.uleb128 .Lfunc_begin18-.Lfunc_begin18  # >> Call Site 1 <<
	.uleb128 .Ltmp118-.Lfunc_begin18        #   Call between .Lfunc_begin18 and .Ltmp118
	.byte	0                               #     has no landing pad
	.byte	0                               #   On action: cleanup
	.uleb128 .Ltmp118-.Lfunc_begin18        # >> Call Site 2 <<
	.uleb128 .Ltmp119-.Ltmp118              #   Call between .Ltmp118 and .Ltmp119
	.uleb128 .Ltmp120-.Lfunc_begin18        #     jumps to .Ltmp120
	.byte	0                               #   On action: cleanup
	.uleb128 .Ltmp119-.Lfunc_begin18        # >> Call Site 3 <<
	.uleb128 .Lfunc_end121-.Ltmp119         #   Call between .Ltmp119 and .Lfunc_end121
	.byte	0                               #     has no landing pad
	.byte	0                               #   On action: cleanup
.Lcst_end18:
	.p2align	2, 0x0
                                        # -- End function
	.section	.text._ZNSt10unique_ptrIN4sycl3_V16detail19SYCLMemObjAllocatorESt14default_deleteIS3_EEC2INS2_25SYCLMemObjAllocatorHolderINS2_17aligned_allocatorImEEmEES4_ISB_EvEEOS_IT_T0_E,"axG",@progbits,_ZNSt10unique_ptrIN4sycl3_V16detail19SYCLMemObjAllocatorESt14default_deleteIS3_EEC2INS2_25SYCLMemObjAllocatorHolderINS2_17aligned_allocatorImEEmEES4_ISB_EvEEOS_IT_T0_E,comdat
	.weak	_ZNSt10unique_ptrIN4sycl3_V16detail19SYCLMemObjAllocatorESt14default_deleteIS3_EEC2INS2_25SYCLMemObjAllocatorHolderINS2_17aligned_allocatorImEEmEES4_ISB_EvEEOS_IT_T0_E # -- Begin function _ZNSt10unique_ptrIN4sycl3_V16detail19SYCLMemObjAllocatorESt14default_deleteIS3_EEC2INS2_25SYCLMemObjAllocatorHolderINS2_17aligned_allocatorImEEmEES4_ISB_EvEEOS_IT_T0_E
	.p2align	4
	.type	_ZNSt10unique_ptrIN4sycl3_V16detail19SYCLMemObjAllocatorESt14default_deleteIS3_EEC2INS2_25SYCLMemObjAllocatorHolderINS2_17aligned_allocatorImEEmEES4_ISB_EvEEOS_IT_T0_E,@function
_ZNSt10unique_ptrIN4sycl3_V16detail19SYCLMemObjAllocatorESt14default_deleteIS3_EEC2INS2_25SYCLMemObjAllocatorHolderINS2_17aligned_allocatorImEEmEES4_ISB_EvEEOS_IT_T0_E: # @_ZNSt10unique_ptrIN4sycl3_V16detail19SYCLMemObjAllocatorESt14default_deleteIS3_EEC2INS2_25SYCLMemObjAllocatorHolderINS2_17aligned_allocatorImEEmEES4_ISB_EvEEOS_IT_T0_E
.Lfunc_begin19:
	.cfi_startproc
	.cfi_personality 3, __gxx_personality_v0
	.cfi_lsda 3, .Lexception19
# %bb.0:                                # %entry
	pushq	%rbp
	.cfi_def_cfa_offset 16
	.cfi_offset %rbp, -16
	movq	%rsp, %rbp
	.cfi_def_cfa_register %rbp
	subq	$32, %rsp
	movq	%rdi, -8(%rbp)
	movq	%rsi, -16(%rbp)
	movq	-8(%rbp), %rax
	movq	%rax, -32(%rbp)                 # 8-byte Spill
	movq	-16(%rbp), %rdi
	callq	_ZNSt10unique_ptrIN4sycl3_V16detail25SYCLMemObjAllocatorHolderINS2_17aligned_allocatorImEEmEESt14default_deleteIS6_EE7releaseEv
	movq	%rax, -24(%rbp)                 # 8-byte Spill
	movq	-16(%rbp), %rdi
	callq	_ZNSt10unique_ptrIN4sycl3_V16detail25SYCLMemObjAllocatorHolderINS2_17aligned_allocatorImEEmEESt14default_deleteIS6_EE11get_deleterEv
	movq	-32(%rbp), %rdi                 # 8-byte Reload
	movq	-24(%rbp), %rsi                 # 8-byte Reload
	movq	%rax, %rdx
.Ltmp121:                               # EH_LABEL
	callq	_ZNSt15__uniq_ptr_dataIN4sycl3_V16detail19SYCLMemObjAllocatorESt14default_deleteIS3_ELb1ELb1EECI2St15__uniq_ptr_implIS3_S5_EIS4_INS2_25SYCLMemObjAllocatorHolderINS2_17aligned_allocatorImEEmEEEEEPS3_OT_
.Ltmp122:                               # EH_LABEL
	jmp	.LBB122_1
.LBB122_1:                              # %invoke.cont
	addq	$32, %rsp
	popq	%rbp
	.cfi_def_cfa %rsp, 8
	retq
.LBB122_2:                              # %terminate.lpad
	.cfi_def_cfa %rbp, 16
.Ltmp123:                               # EH_LABEL
	movq	%rax, %rdi
                                        # kill: def $eax killed $edx killed $rdx
	callq	__clang_call_terminate
.Lfunc_end122:
	.size	_ZNSt10unique_ptrIN4sycl3_V16detail19SYCLMemObjAllocatorESt14default_deleteIS3_EEC2INS2_25SYCLMemObjAllocatorHolderINS2_17aligned_allocatorImEEmEES4_ISB_EvEEOS_IT_T0_E, .Lfunc_end122-_ZNSt10unique_ptrIN4sycl3_V16detail19SYCLMemObjAllocatorESt14default_deleteIS3_EEC2INS2_25SYCLMemObjAllocatorHolderINS2_17aligned_allocatorImEEmEES4_ISB_EvEEOS_IT_T0_E
	.cfi_endproc
	.section	.gcc_except_table._ZNSt10unique_ptrIN4sycl3_V16detail19SYCLMemObjAllocatorESt14default_deleteIS3_EEC2INS2_25SYCLMemObjAllocatorHolderINS2_17aligned_allocatorImEEmEES4_ISB_EvEEOS_IT_T0_E,"aG",@progbits,_ZNSt10unique_ptrIN4sycl3_V16detail19SYCLMemObjAllocatorESt14default_deleteIS3_EEC2INS2_25SYCLMemObjAllocatorHolderINS2_17aligned_allocatorImEEmEES4_ISB_EvEEOS_IT_T0_E,comdat
	.p2align	2, 0x0
GCC_except_table122:
.Lexception19:
	.byte	255                             # @LPStart Encoding = omit
	.byte	3                               # @TType Encoding = udata4
	.uleb128 .Lttbase12-.Lttbaseref12
.Lttbaseref12:
	.byte	1                               # Call site Encoding = uleb128
	.uleb128 .Lcst_end19-.Lcst_begin19
.Lcst_begin19:
	.uleb128 .Ltmp121-.Lfunc_begin19        # >> Call Site 1 <<
	.uleb128 .Ltmp122-.Ltmp121              #   Call between .Ltmp121 and .Ltmp122
	.uleb128 .Ltmp123-.Lfunc_begin19        #     jumps to .Ltmp123
	.byte	1                               #   On action: 1
.Lcst_end19:
	.byte	1                               # >> Action Record 1 <<
                                        #   Catch TypeInfo 1
	.byte	0                               #   No further actions
	.p2align	2, 0x0
                                        # >> Catch TypeInfos <<
	.long	0                               # TypeInfo 1
.Lttbase12:
	.p2align	2, 0x0
                                        # -- End function
	.section	.text._ZNSt10unique_ptrIN4sycl3_V16detail19SYCLMemObjAllocatorESt14default_deleteIS3_EED2Ev,"axG",@progbits,_ZNSt10unique_ptrIN4sycl3_V16detail19SYCLMemObjAllocatorESt14default_deleteIS3_EED2Ev,comdat
	.weak	_ZNSt10unique_ptrIN4sycl3_V16detail19SYCLMemObjAllocatorESt14default_deleteIS3_EED2Ev # -- Begin function _ZNSt10unique_ptrIN4sycl3_V16detail19SYCLMemObjAllocatorESt14default_deleteIS3_EED2Ev
	.p2align	4
	.type	_ZNSt10unique_ptrIN4sycl3_V16detail19SYCLMemObjAllocatorESt14default_deleteIS3_EED2Ev,@function
_ZNSt10unique_ptrIN4sycl3_V16detail19SYCLMemObjAllocatorESt14default_deleteIS3_EED2Ev: # @_ZNSt10unique_ptrIN4sycl3_V16detail19SYCLMemObjAllocatorESt14default_deleteIS3_EED2Ev
.Lfunc_begin20:
	.cfi_startproc
	.cfi_personality 3, __gxx_personality_v0
	.cfi_lsda 3, .Lexception20
# %bb.0:                                # %entry
	pushq	%rbp
	.cfi_def_cfa_offset 16
	.cfi_offset %rbp, -16
	movq	%rsp, %rbp
	.cfi_def_cfa_register %rbp
	subq	$32, %rsp
	movq	%rdi, -8(%rbp)
	movq	-8(%rbp), %rdi
	movq	%rdi, -24(%rbp)                 # 8-byte Spill
	callq	_ZNSt15__uniq_ptr_implIN4sycl3_V16detail19SYCLMemObjAllocatorESt14default_deleteIS3_EE6_M_ptrEv
	movq	%rax, -16(%rbp)
	movq	-16(%rbp), %rax
	cmpq	$0, (%rax)
	je	.LBB123_3
# %bb.1:                                # %if.then
	movq	-24(%rbp), %rdi                 # 8-byte Reload
	callq	_ZNSt10unique_ptrIN4sycl3_V16detail19SYCLMemObjAllocatorESt14default_deleteIS3_EE11get_deleterEv
	movq	%rax, %rdi
	movq	-16(%rbp), %rax
	movq	(%rax), %rsi
.Ltmp124:                               # EH_LABEL
	callq	_ZNKSt14default_deleteIN4sycl3_V16detail19SYCLMemObjAllocatorEEclEPS3_
.Ltmp125:                               # EH_LABEL
	jmp	.LBB123_2
.LBB123_2:                              # %invoke.cont
	jmp	.LBB123_3
.LBB123_3:                              # %if.end
	movq	-16(%rbp), %rax
	movq	$0, (%rax)
	addq	$32, %rsp
	popq	%rbp
	.cfi_def_cfa %rsp, 8
	retq
.LBB123_4:                              # %terminate.lpad
	.cfi_def_cfa %rbp, 16
.Ltmp126:                               # EH_LABEL
	movq	%rax, %rdi
                                        # kill: def $eax killed $edx killed $rdx
	callq	__clang_call_terminate
.Lfunc_end123:
	.size	_ZNSt10unique_ptrIN4sycl3_V16detail19SYCLMemObjAllocatorESt14default_deleteIS3_EED2Ev, .Lfunc_end123-_ZNSt10unique_ptrIN4sycl3_V16detail19SYCLMemObjAllocatorESt14default_deleteIS3_EED2Ev
	.cfi_endproc
	.section	.gcc_except_table._ZNSt10unique_ptrIN4sycl3_V16detail19SYCLMemObjAllocatorESt14default_deleteIS3_EED2Ev,"aG",@progbits,_ZNSt10unique_ptrIN4sycl3_V16detail19SYCLMemObjAllocatorESt14default_deleteIS3_EED2Ev,comdat
	.p2align	2, 0x0
GCC_except_table123:
.Lexception20:
	.byte	255                             # @LPStart Encoding = omit
	.byte	3                               # @TType Encoding = udata4
	.uleb128 .Lttbase13-.Lttbaseref13
.Lttbaseref13:
	.byte	1                               # Call site Encoding = uleb128
	.uleb128 .Lcst_end20-.Lcst_begin20
.Lcst_begin20:
	.uleb128 .Ltmp124-.Lfunc_begin20        # >> Call Site 1 <<
	.uleb128 .Ltmp125-.Ltmp124              #   Call between .Ltmp124 and .Ltmp125
	.uleb128 .Ltmp126-.Lfunc_begin20        #     jumps to .Ltmp126
	.byte	1                               #   On action: 1
.Lcst_end20:
	.byte	1                               # >> Action Record 1 <<
                                        #   Catch TypeInfo 1
	.byte	0                               #   No further actions
	.p2align	2, 0x0
                                        # >> Catch TypeInfos <<
	.long	0                               # TypeInfo 1
.Lttbase13:
	.p2align	2, 0x0
                                        # -- End function
	.section	.text._ZNSt10unique_ptrIN4sycl3_V16detail25SYCLMemObjAllocatorHolderINS2_17aligned_allocatorImEEmEESt14default_deleteIS6_EED2Ev,"axG",@progbits,_ZNSt10unique_ptrIN4sycl3_V16detail25SYCLMemObjAllocatorHolderINS2_17aligned_allocatorImEEmEESt14default_deleteIS6_EED2Ev,comdat
	.weak	_ZNSt10unique_ptrIN4sycl3_V16detail25SYCLMemObjAllocatorHolderINS2_17aligned_allocatorImEEmEESt14default_deleteIS6_EED2Ev # -- Begin function _ZNSt10unique_ptrIN4sycl3_V16detail25SYCLMemObjAllocatorHolderINS2_17aligned_allocatorImEEmEESt14default_deleteIS6_EED2Ev
	.p2align	4
	.type	_ZNSt10unique_ptrIN4sycl3_V16detail25SYCLMemObjAllocatorHolderINS2_17aligned_allocatorImEEmEESt14default_deleteIS6_EED2Ev,@function
_ZNSt10unique_ptrIN4sycl3_V16detail25SYCLMemObjAllocatorHolderINS2_17aligned_allocatorImEEmEESt14default_deleteIS6_EED2Ev: # @_ZNSt10unique_ptrIN4sycl3_V16detail25SYCLMemObjAllocatorHolderINS2_17aligned_allocatorImEEmEESt14default_deleteIS6_EED2Ev
.Lfunc_begin21:
	.cfi_startproc
	.cfi_personality 3, __gxx_personality_v0
	.cfi_lsda 3, .Lexception21
# %bb.0:                                # %entry
	pushq	%rbp
	.cfi_def_cfa_offset 16
	.cfi_offset %rbp, -16
	movq	%rsp, %rbp
	.cfi_def_cfa_register %rbp
	subq	$32, %rsp
	movq	%rdi, -8(%rbp)
	movq	-8(%rbp), %rdi
	movq	%rdi, -24(%rbp)                 # 8-byte Spill
	callq	_ZNSt15__uniq_ptr_implIN4sycl3_V16detail25SYCLMemObjAllocatorHolderINS2_17aligned_allocatorImEEmEESt14default_deleteIS6_EE6_M_ptrEv
	movq	%rax, -16(%rbp)
	movq	-16(%rbp), %rax
	cmpq	$0, (%rax)
	je	.LBB124_3
# %bb.1:                                # %if.then
	movq	-24(%rbp), %rdi                 # 8-byte Reload
	callq	_ZNSt10unique_ptrIN4sycl3_V16detail25SYCLMemObjAllocatorHolderINS2_17aligned_allocatorImEEmEESt14default_deleteIS6_EE11get_deleterEv
	movq	%rax, %rdi
	movq	-16(%rbp), %rax
	movq	(%rax), %rsi
.Ltmp127:                               # EH_LABEL
	callq	_ZNKSt14default_deleteIN4sycl3_V16detail25SYCLMemObjAllocatorHolderINS2_17aligned_allocatorImEEmEEEclEPS6_
.Ltmp128:                               # EH_LABEL
	jmp	.LBB124_2
.LBB124_2:                              # %invoke.cont
	jmp	.LBB124_3
.LBB124_3:                              # %if.end
	movq	-16(%rbp), %rax
	movq	$0, (%rax)
	addq	$32, %rsp
	popq	%rbp
	.cfi_def_cfa %rsp, 8
	retq
.LBB124_4:                              # %terminate.lpad
	.cfi_def_cfa %rbp, 16
.Ltmp129:                               # EH_LABEL
	movq	%rax, %rdi
                                        # kill: def $eax killed $edx killed $rdx
	callq	__clang_call_terminate
.Lfunc_end124:
