	.file	"free_function_kernels.cpp"
                                        # Start of file scope inline assembly
	.globl	_ZSt21ios_base_library_initv

                                        # End of file scope inline assembly
	.text
	.globl	_ZN4sycl3_V13ext6oneapi12experimental13get_kernel_idITnPDaXadL_Z4ff_0EEEENSt9enable_ifIX11is_kernel_vIXT_EEENS0_9kernel_idEE4typeEv # -- Begin function _ZN4sycl3_V13ext6oneapi12experimental13get_kernel_idITnPDaXadL_Z4ff_0EEEENSt9enable_ifIX11is_kernel_vIXT_EEENS0_9kernel_idEE4typeEv
	.p2align	4
	.type	_ZN4sycl3_V13ext6oneapi12experimental13get_kernel_idITnPDaXadL_Z4ff_0EEEENSt9enable_ifIX11is_kernel_vIXT_EEENS0_9kernel_idEE4typeEv,@function
_ZN4sycl3_V13ext6oneapi12experimental13get_kernel_idITnPDaXadL_Z4ff_0EEEENSt9enable_ifIX11is_kernel_vIXT_EEENS0_9kernel_idEE4typeEv: # @_ZN4sycl3_V13ext6oneapi12experimental13get_kernel_idITnPDaXadL_Z4ff_0EEEENSt9enable_ifIX11is_kernel_vIXT_EEENS0_9kernel_idEE4typeEv
	.cfi_startproc
# %bb.0:                                # %entry
	pushq	%rbp
	.cfi_def_cfa_offset 16
	.cfi_offset %rbp, -16
	movq	%rsp, %rbp
	.cfi_def_cfa_register %rbp
	subq	$48, %rsp
	movq	%rdi, -48(%rbp)                 # 8-byte Spill
	movq	%rdi, %rax
	movq	%rax, -40(%rbp)                 # 8-byte Spill
	movq	%rdi, -8(%rbp)
	leaq	-32(%rbp), %rdi
	movabsq	$.L.str, %rsi
	callq	_ZNSt17basic_string_viewIcSt11char_traitsIcEEC2EPKc
	movq	-32(%rbp), %rsi
	movq	-24(%rbp), %rdx
	leaq	-16(%rbp), %rdi
	callq	_ZN4sycl3_V16detail11string_viewC2ESt17basic_string_viewIcSt11char_traitsIcEE
	movq	-48(%rbp), %rdi                 # 8-byte Reload
	movq	-16(%rbp), %rsi
	callq	_ZN4sycl3_V16detail18get_kernel_id_implENS1_11string_viewE
	movq	-40(%rbp), %rax                 # 8-byte Reload
	addq	$48, %rsp
	popq	%rbp
	.cfi_def_cfa %rsp, 8
	retq
.Lfunc_end0:
	.size	_ZN4sycl3_V13ext6oneapi12experimental13get_kernel_idITnPDaXadL_Z4ff_0EEEENSt9enable_ifIX11is_kernel_vIXT_EEENS0_9kernel_idEE4typeEv, .Lfunc_end0-_ZN4sycl3_V13ext6oneapi12experimental13get_kernel_idITnPDaXadL_Z4ff_0EEEENSt9enable_ifIX11is_kernel_vIXT_EEENS0_9kernel_idEE4typeEv
	.cfi_endproc
                                        # -- End function
	.section	.text._ZNSt17basic_string_viewIcSt11char_traitsIcEEC2EPKc,"axG",@progbits,_ZNSt17basic_string_viewIcSt11char_traitsIcEEC2EPKc,comdat
	.weak	_ZNSt17basic_string_viewIcSt11char_traitsIcEEC2EPKc # -- Begin function _ZNSt17basic_string_viewIcSt11char_traitsIcEEC2EPKc
	.p2align	4
	.type	_ZNSt17basic_string_viewIcSt11char_traitsIcEEC2EPKc,@function
_ZNSt17basic_string_viewIcSt11char_traitsIcEEC2EPKc: # @_ZNSt17basic_string_viewIcSt11char_traitsIcEEC2EPKc
.Lfunc_begin0:
	.cfi_startproc
	.cfi_personality 3, __gxx_personality_v0
	.cfi_lsda 3, .Lexception0
# %bb.0:                                # %entry
	pushq	%rbp
	.cfi_def_cfa_offset 16
	.cfi_offset %rbp, -16
	movq	%rsp, %rbp
	.cfi_def_cfa_register %rbp
	subq	$48, %rsp
	movq	%rdi, -8(%rbp)
	movq	%rsi, -16(%rbp)
	movq	-8(%rbp), %rax
	movq	%rax, -40(%rbp)                 # 8-byte Spill
	movq	%rax, -32(%rbp)                 # 8-byte Spill
	movq	-16(%rbp), %rdi
.Ltmp0:
	callq	_ZNSt11char_traitsIcE6lengthEPKc
.Ltmp1:
	movq	%rax, -24(%rbp)                 # 8-byte Spill
	jmp	.LBB1_1
.LBB1_1:                                # %invoke.cont
	movq	-32(%rbp), %rax                 # 8-byte Reload
	movq	-40(%rbp), %rcx                 # 8-byte Reload
	movq	-24(%rbp), %rdx                 # 8-byte Reload
	movq	%rdx, (%rcx)
	movq	-16(%rbp), %rcx
	movq	%rcx, 8(%rax)
	addq	$48, %rsp
	popq	%rbp
	.cfi_def_cfa %rsp, 8
	retq
.LBB1_2:                                # %terminate.lpad
	.cfi_def_cfa %rbp, 16
.Ltmp2:
	movq	%rax, %rdi
                                        # kill: def $eax killed $edx killed $rdx
	callq	__clang_call_terminate
.Lfunc_end1:
	.size	_ZNSt17basic_string_viewIcSt11char_traitsIcEEC2EPKc, .Lfunc_end1-_ZNSt17basic_string_viewIcSt11char_traitsIcEEC2EPKc
	.cfi_endproc
	.section	.gcc_except_table._ZNSt17basic_string_viewIcSt11char_traitsIcEEC2EPKc,"aG",@progbits,_ZNSt17basic_string_viewIcSt11char_traitsIcEEC2EPKc,comdat
	.p2align	2, 0x0
GCC_except_table1:
.Lexception0:
	.byte	255                             # @LPStart Encoding = omit
	.byte	3                               # @TType Encoding = udata4
	.uleb128 .Lttbase0-.Lttbaseref0
.Lttbaseref0:
	.byte	1                               # Call site Encoding = uleb128
	.uleb128 .Lcst_end0-.Lcst_begin0
.Lcst_begin0:
	.uleb128 .Ltmp0-.Lfunc_begin0           # >> Call Site 1 <<
	.uleb128 .Ltmp1-.Ltmp0                  #   Call between .Ltmp0 and .Ltmp1
	.uleb128 .Ltmp2-.Lfunc_begin0           #     jumps to .Ltmp2
	.byte	1                               #   On action: 1
.Lcst_end0:
	.byte	1                               # >> Action Record 1 <<
                                        #   Catch TypeInfo 1
	.byte	0                               #   No further actions
	.p2align	2, 0x0
                                        # >> Catch TypeInfos <<
	.long	0                               # TypeInfo 1
.Lttbase0:
	.p2align	2, 0x0
                                        # -- End function
	.section	.text._ZN4sycl3_V16detail11string_viewC2ESt17basic_string_viewIcSt11char_traitsIcEE,"axG",@progbits,_ZN4sycl3_V16detail11string_viewC2ESt17basic_string_viewIcSt11char_traitsIcEE,comdat
	.weak	_ZN4sycl3_V16detail11string_viewC2ESt17basic_string_viewIcSt11char_traitsIcEE # -- Begin function _ZN4sycl3_V16detail11string_viewC2ESt17basic_string_viewIcSt11char_traitsIcEE
	.p2align	4
	.type	_ZN4sycl3_V16detail11string_viewC2ESt17basic_string_viewIcSt11char_traitsIcEE,@function
_ZN4sycl3_V16detail11string_viewC2ESt17basic_string_viewIcSt11char_traitsIcEE: # @_ZN4sycl3_V16detail11string_viewC2ESt17basic_string_viewIcSt11char_traitsIcEE
	.cfi_startproc
# %bb.0:                                # %entry
	pushq	%rbp
	.cfi_def_cfa_offset 16
	.cfi_offset %rbp, -16
	movq	%rsp, %rbp
	.cfi_def_cfa_register %rbp
	subq	$32, %rsp
	movq	%rsi, -16(%rbp)
	movq	%rdx, -8(%rbp)
	movq	%rdi, -24(%rbp)
	movq	-24(%rbp), %rax
	movq	%rax, -32(%rbp)                 # 8-byte Spill
	leaq	-16(%rbp), %rdi
	callq	_ZNKSt17basic_string_viewIcSt11char_traitsIcEE4dataEv
	movq	%rax, %rcx
	movq	-32(%rbp), %rax                 # 8-byte Reload
	movq	%rcx, (%rax)
	addq	$32, %rsp
	popq	%rbp
	.cfi_def_cfa %rsp, 8
	retq
.Lfunc_end2:
	.size	_ZN4sycl3_V16detail11string_viewC2ESt17basic_string_viewIcSt11char_traitsIcEE, .Lfunc_end2-_ZN4sycl3_V16detail11string_viewC2ESt17basic_string_viewIcSt11char_traitsIcEE
	.cfi_endproc
                                        # -- End function
	.text
	.globl	_ZN4sycl3_V13ext6oneapi12experimental13get_kernel_idITnPDaXadL_Z4ff_1PiiiEEEENSt9enable_ifIX11is_kernel_vIXT_EEENS0_9kernel_idEE4typeEv # -- Begin function _ZN4sycl3_V13ext6oneapi12experimental13get_kernel_idITnPDaXadL_Z4ff_1PiiiEEEENSt9enable_ifIX11is_kernel_vIXT_EEENS0_9kernel_idEE4typeEv
	.p2align	4
	.type	_ZN4sycl3_V13ext6oneapi12experimental13get_kernel_idITnPDaXadL_Z4ff_1PiiiEEEENSt9enable_ifIX11is_kernel_vIXT_EEENS0_9kernel_idEE4typeEv,@function
_ZN4sycl3_V13ext6oneapi12experimental13get_kernel_idITnPDaXadL_Z4ff_1PiiiEEEENSt9enable_ifIX11is_kernel_vIXT_EEENS0_9kernel_idEE4typeEv: # @_ZN4sycl3_V13ext6oneapi12experimental13get_kernel_idITnPDaXadL_Z4ff_1PiiiEEEENSt9enable_ifIX11is_kernel_vIXT_EEENS0_9kernel_idEE4typeEv
	.cfi_startproc
# %bb.0:                                # %entry
	pushq	%rbp
	.cfi_def_cfa_offset 16
	.cfi_offset %rbp, -16
	movq	%rsp, %rbp
	.cfi_def_cfa_register %rbp
	subq	$48, %rsp
	movq	%rdi, -48(%rbp)                 # 8-byte Spill
	movq	%rdi, %rax
	movq	%rax, -40(%rbp)                 # 8-byte Spill
	movq	%rdi, -8(%rbp)
	leaq	-32(%rbp), %rdi
	movabsq	$.L.str.1, %rsi
	callq	_ZNSt17basic_string_viewIcSt11char_traitsIcEEC2EPKc
	movq	-32(%rbp), %rsi
	movq	-24(%rbp), %rdx
	leaq	-16(%rbp), %rdi
	callq	_ZN4sycl3_V16detail11string_viewC2ESt17basic_string_viewIcSt11char_traitsIcEE
	movq	-48(%rbp), %rdi                 # 8-byte Reload
	movq	-16(%rbp), %rsi
	callq	_ZN4sycl3_V16detail18get_kernel_id_implENS1_11string_viewE
	movq	-40(%rbp), %rax                 # 8-byte Reload
	addq	$48, %rsp
	popq	%rbp
	.cfi_def_cfa %rsp, 8
	retq
.Lfunc_end3:
	.size	_ZN4sycl3_V13ext6oneapi12experimental13get_kernel_idITnPDaXadL_Z4ff_1PiiiEEEENSt9enable_ifIX11is_kernel_vIXT_EEENS0_9kernel_idEE4typeEv, .Lfunc_end3-_ZN4sycl3_V13ext6oneapi12experimental13get_kernel_idITnPDaXadL_Z4ff_1PiiiEEEENSt9enable_ifIX11is_kernel_vIXT_EEENS0_9kernel_idEE4typeEv
	.cfi_endproc
                                        # -- End function
	.globl	_ZN4sycl3_V13ext6oneapi12experimental13get_kernel_idITnPDaXadL_Z4ff_1PiiEEEENSt9enable_ifIX11is_kernel_vIXT_EEENS0_9kernel_idEE4typeEv # -- Begin function _ZN4sycl3_V13ext6oneapi12experimental13get_kernel_idITnPDaXadL_Z4ff_1PiiEEEENSt9enable_ifIX11is_kernel_vIXT_EEENS0_9kernel_idEE4typeEv
	.p2align	4
	.type	_ZN4sycl3_V13ext6oneapi12experimental13get_kernel_idITnPDaXadL_Z4ff_1PiiEEEENSt9enable_ifIX11is_kernel_vIXT_EEENS0_9kernel_idEE4typeEv,@function
_ZN4sycl3_V13ext6oneapi12experimental13get_kernel_idITnPDaXadL_Z4ff_1PiiEEEENSt9enable_ifIX11is_kernel_vIXT_EEENS0_9kernel_idEE4typeEv: # @_ZN4sycl3_V13ext6oneapi12experimental13get_kernel_idITnPDaXadL_Z4ff_1PiiEEEENSt9enable_ifIX11is_kernel_vIXT_EEENS0_9kernel_idEE4typeEv
	.cfi_startproc
# %bb.0:                                # %entry
	pushq	%rbp
	.cfi_def_cfa_offset 16
	.cfi_offset %rbp, -16
	movq	%rsp, %rbp
	.cfi_def_cfa_register %rbp
	subq	$48, %rsp
	movq	%rdi, -48(%rbp)                 # 8-byte Spill
	movq	%rdi, %rax
	movq	%rax, -40(%rbp)                 # 8-byte Spill
	movq	%rdi, -8(%rbp)
	leaq	-32(%rbp), %rdi
	movabsq	$.L.str.2, %rsi
	callq	_ZNSt17basic_string_viewIcSt11char_traitsIcEEC2EPKc
	movq	-32(%rbp), %rsi
	movq	-24(%rbp), %rdx
	leaq	-16(%rbp), %rdi
	callq	_ZN4sycl3_V16detail11string_viewC2ESt17basic_string_viewIcSt11char_traitsIcEE
	movq	-48(%rbp), %rdi                 # 8-byte Reload
	movq	-16(%rbp), %rsi
	callq	_ZN4sycl3_V16detail18get_kernel_id_implENS1_11string_viewE
	movq	-40(%rbp), %rax                 # 8-byte Reload
	addq	$48, %rsp
	popq	%rbp
	.cfi_def_cfa %rsp, 8
	retq
.Lfunc_end4:
	.size	_ZN4sycl3_V13ext6oneapi12experimental13get_kernel_idITnPDaXadL_Z4ff_1PiiEEEENSt9enable_ifIX11is_kernel_vIXT_EEENS0_9kernel_idEE4typeEv, .Lfunc_end4-_ZN4sycl3_V13ext6oneapi12experimental13get_kernel_idITnPDaXadL_Z4ff_1PiiEEEENSt9enable_ifIX11is_kernel_vIXT_EEENS0_9kernel_idEE4typeEv
	.cfi_endproc
                                        # -- End function
	.globl	_ZN4sycl3_V13ext6oneapi12experimental13get_kernel_idITnPDaXadL_Z4ff_3IiEvPT_S7_EEEENSt9enable_ifIX11is_kernel_vIXT_EEENS0_9kernel_idEE4typeEv # -- Begin function _ZN4sycl3_V13ext6oneapi12experimental13get_kernel_idITnPDaXadL_Z4ff_3IiEvPT_S7_EEEENSt9enable_ifIX11is_kernel_vIXT_EEENS0_9kernel_idEE4typeEv
	.p2align	4
	.type	_ZN4sycl3_V13ext6oneapi12experimental13get_kernel_idITnPDaXadL_Z4ff_3IiEvPT_S7_EEEENSt9enable_ifIX11is_kernel_vIXT_EEENS0_9kernel_idEE4typeEv,@function
_ZN4sycl3_V13ext6oneapi12experimental13get_kernel_idITnPDaXadL_Z4ff_3IiEvPT_S7_EEEENSt9enable_ifIX11is_kernel_vIXT_EEENS0_9kernel_idEE4typeEv: # @_ZN4sycl3_V13ext6oneapi12experimental13get_kernel_idITnPDaXadL_Z4ff_3IiEvPT_S7_EEEENSt9enable_ifIX11is_kernel_vIXT_EEENS0_9kernel_idEE4typeEv
	.cfi_startproc
# %bb.0:                                # %entry
	pushq	%rbp
	.cfi_def_cfa_offset 16
	.cfi_offset %rbp, -16
	movq	%rsp, %rbp
	.cfi_def_cfa_register %rbp
	subq	$48, %rsp
	movq	%rdi, -48(%rbp)                 # 8-byte Spill
	movq	%rdi, %rax
	movq	%rax, -40(%rbp)                 # 8-byte Spill
	movq	%rdi, -8(%rbp)
	leaq	-32(%rbp), %rdi
	movabsq	$.L.str.3, %rsi
	callq	_ZNSt17basic_string_viewIcSt11char_traitsIcEEC2EPKc
	movq	-32(%rbp), %rsi
	movq	-24(%rbp), %rdx
	leaq	-16(%rbp), %rdi
	callq	_ZN4sycl3_V16detail11string_viewC2ESt17basic_string_viewIcSt11char_traitsIcEE
	movq	-48(%rbp), %rdi                 # 8-byte Reload
	movq	-16(%rbp), %rsi
	callq	_ZN4sycl3_V16detail18get_kernel_id_implENS1_11string_viewE
	movq	-40(%rbp), %rax                 # 8-byte Reload
	addq	$48, %rsp
	popq	%rbp
	.cfi_def_cfa %rsp, 8
	retq
.Lfunc_end5:
	.size	_ZN4sycl3_V13ext6oneapi12experimental13get_kernel_idITnPDaXadL_Z4ff_3IiEvPT_S7_EEEENSt9enable_ifIX11is_kernel_vIXT_EEENS0_9kernel_idEE4typeEv, .Lfunc_end5-_ZN4sycl3_V13ext6oneapi12experimental13get_kernel_idITnPDaXadL_Z4ff_3IiEvPT_S7_EEEENSt9enable_ifIX11is_kernel_vIXT_EEENS0_9kernel_idEE4typeEv
	.cfi_endproc
                                        # -- End function
	.globl	_Z8printUSMPii                  # -- Begin function _Z8printUSMPii
	.p2align	4
	.type	_Z8printUSMPii,@function
_Z8printUSMPii:                         # @_Z8printUSMPii
	.cfi_startproc
# %bb.0:                                # %entry
	pushq	%rbp
	.cfi_def_cfa_offset 16
	.cfi_offset %rbp, -16
	movq	%rsp, %rbp
	.cfi_def_cfa_register %rbp
	subq	$16, %rsp
	movq	%rdi, -8(%rbp)
	movl	%esi, -12(%rbp)
	movabsq	$_ZSt4cout, %rdi
	movabsq	$.L.str.4, %rsi
	callq	_ZStlsISt11char_traitsIcEERSt13basic_ostreamIcT_ES5_PKc
	movl	$0, -16(%rbp)
.LBB6_1:                                # %for.cond
                                        # =>This Inner Loop Header: Depth=1
	movl	-16(%rbp), %eax
	cmpl	-12(%rbp), %eax
	jge	.LBB6_4
# %bb.2:                                # %for.body
                                        #   in Loop: Header=BB6_1 Depth=1
	movq	-8(%rbp), %rax
	movslq	-16(%rbp), %rcx
	movl	(%rax,%rcx,4), %esi
	movabsq	$_ZSt4cout, %rdi
	callq	_ZNSolsEi
	movq	%rax, %rdi
	movabsq	$.L.str.5, %rsi
	callq	_ZStlsISt11char_traitsIcEERSt13basic_ostreamIcT_ES5_PKc
# %bb.3:                                # %for.inc
                                        #   in Loop: Header=BB6_1 Depth=1
	movl	-16(%rbp), %eax
	addl	$1, %eax
	movl	%eax, -16(%rbp)
	jmp	.LBB6_1
.LBB6_4:                                # %for.end
	movabsq	$_ZSt4cout, %rdi
	movabsq	$.L.str.6, %rsi
	callq	_ZStlsISt11char_traitsIcEERSt13basic_ostreamIcT_ES5_PKc
	addq	$16, %rsp
	popq	%rbp
	.cfi_def_cfa %rsp, 8
	retq
.Lfunc_end6:
	.size	_Z8printUSMPii, .Lfunc_end6-_Z8printUSMPii
	.cfi_endproc
                                        # -- End function
	.globl	_Z8checkUSMPiiS_                # -- Begin function _Z8checkUSMPiiS_
	.p2align	4
	.type	_Z8checkUSMPiiS_,@function
_Z8checkUSMPiiS_:                       # @_Z8checkUSMPiiS_
	.cfi_startproc
# %bb.0:                                # %entry
	pushq	%rbp
	.cfi_def_cfa_offset 16
	.cfi_offset %rbp, -16
	movq	%rsp, %rbp
	.cfi_def_cfa_register %rbp
	subq	$48, %rsp
	movq	%rdi, -16(%rbp)
	movl	%esi, -20(%rbp)
	movq	%rdx, -32(%rbp)
	movb	$1, -33(%rbp)
	movl	$0, -40(%rbp)
.LBB7_1:                                # %for.cond
                                        # =>This Inner Loop Header: Depth=1
	movl	-40(%rbp), %eax
	cmpl	-20(%rbp), %eax
	jge	.LBB7_6
# %bb.2:                                # %for.body
                                        #   in Loop: Header=BB7_1 Depth=1
	movq	-16(%rbp), %rax
	movslq	-40(%rbp), %rcx
	movl	(%rax,%rcx,4), %eax
	movq	-32(%rbp), %rcx
	movslq	-40(%rbp), %rdx
	cmpl	(%rcx,%rdx,4), %eax
	je	.LBB7_4
# %bb.3:                                # %if.then
	movb	$0, -33(%rbp)
	jmp	.LBB7_6
.LBB7_4:                                # %if.end
                                        #   in Loop: Header=BB7_1 Depth=1
	jmp	.LBB7_5
.LBB7_5:                                # %for.inc
                                        #   in Loop: Header=BB7_1 Depth=1
	movl	-40(%rbp), %eax
	addl	$1, %eax
	movl	%eax, -40(%rbp)
	jmp	.LBB7_1
.LBB7_6:                                # %for.end
	testb	$1, -33(%rbp)
	je	.LBB7_8
# %bb.7:                                # %if.then4
	movb	$1, -1(%rbp)
	jmp	.LBB7_17
.LBB7_8:                                # %if.end5
	movabsq	$_ZSt4cout, %rdi
	movabsq	$.L.str.7, %rsi
	callq	_ZStlsISt11char_traitsIcEERSt13basic_ostreamIcT_ES5_PKc
	movl	$0, -44(%rbp)
.LBB7_9:                                # %for.cond7
                                        # =>This Inner Loop Header: Depth=1
	movl	-44(%rbp), %eax
	cmpl	-20(%rbp), %eax
	jge	.LBB7_12
# %bb.10:                               # %for.body9
                                        #   in Loop: Header=BB7_9 Depth=1
	movq	-32(%rbp), %rax
	movslq	-44(%rbp), %rcx
	movl	(%rax,%rcx,4), %esi
	movabsq	$_ZSt4cout, %rdi
	callq	_ZNSolsEi
	movq	%rax, %rdi
	movabsq	$.L.str.5, %rsi
	callq	_ZStlsISt11char_traitsIcEERSt13basic_ostreamIcT_ES5_PKc
# %bb.11:                               # %for.inc14
                                        #   in Loop: Header=BB7_9 Depth=1
	movl	-44(%rbp), %eax
	addl	$1, %eax
	movl	%eax, -44(%rbp)
	jmp	.LBB7_9
.LBB7_12:                               # %for.end16
	movabsq	$_ZSt4cout, %rdi
	movabsq	$.L.str.6, %rsi
	callq	_ZStlsISt11char_traitsIcEERSt13basic_ostreamIcT_ES5_PKc
	movabsq	$_ZSt4cout, %rdi
	movabsq	$.L.str.8, %rsi
	callq	_ZStlsISt11char_traitsIcEERSt13basic_ostreamIcT_ES5_PKc
	movl	$0, -48(%rbp)
.LBB7_13:                               # %for.cond20
                                        # =>This Inner Loop Header: Depth=1
	movl	-48(%rbp), %eax
	cmpl	-20(%rbp), %eax
	jge	.LBB7_16
# %bb.14:                               # %for.body22
                                        #   in Loop: Header=BB7_13 Depth=1
	movq	-16(%rbp), %rax
	movslq	-48(%rbp), %rcx
	movl	(%rax,%rcx,4), %esi
	movabsq	$_ZSt4cout, %rdi
	callq	_ZNSolsEi
	movq	%rax, %rdi
	movabsq	$.L.str.5, %rsi
	callq	_ZStlsISt11char_traitsIcEERSt13basic_ostreamIcT_ES5_PKc
# %bb.15:                               # %for.inc27
                                        #   in Loop: Header=BB7_13 Depth=1
	movl	-48(%rbp), %eax
	addl	$1, %eax
	movl	%eax, -48(%rbp)
	jmp	.LBB7_13
.LBB7_16:                               # %for.end29
	movabsq	$_ZSt4cout, %rdi
	movabsq	$.L.str.6, %rsi
	callq	_ZStlsISt11char_traitsIcEERSt13basic_ostreamIcT_ES5_PKc
	movb	$0, -1(%rbp)
.LBB7_17:                               # %return
	movb	-1(%rbp), %al
	andb	$1, %al
	addq	$48, %rsp
	popq	%rbp
	.cfi_def_cfa %rsp, 8
	retq
.Lfunc_end7:
	.size	_Z8checkUSMPiiS_, .Lfunc_end7-_Z8checkUSMPiiS_
	.cfi_endproc
                                        # -- End function
	.globl	ff_0                            # -- Begin function ff_0
	.p2align	4
	.type	ff_0,@function
ff_0:                                   # @ff_0
	.cfi_startproc
# %bb.0:                                # %entry
	pushq	%rbp
	.cfi_def_cfa_offset 16
	.cfi_offset %rbp, -16
	movq	%rsp, %rbp
	.cfi_def_cfa_register %rbp
	movq	%rdi, -8(%rbp)
	movl	%esi, -12(%rbp)
	movl	%edx, -16(%rbp)
	movl	-12(%rbp), %eax
	movl	%eax, -20(%rbp)
.LBB8_1:                                # %for.cond
                                        # =>This Inner Loop Header: Depth=1
	movl	-20(%rbp), %eax
	cmpl	-16(%rbp), %eax
	jg	.LBB8_4
# %bb.2:                                # %for.body
                                        #   in Loop: Header=BB8_1 Depth=1
	movl	-12(%rbp), %edx
	addl	-16(%rbp), %edx
	movq	-8(%rbp), %rax
	movslq	-20(%rbp), %rcx
	movl	%edx, (%rax,%rcx,4)
# %bb.3:                                # %for.inc
                                        #   in Loop: Header=BB8_1 Depth=1
	movl	-20(%rbp), %eax
	addl	$1, %eax
	movl	%eax, -20(%rbp)
	jmp	.LBB8_1
.LBB8_4:                                # %for.end
	popq	%rbp
	.cfi_def_cfa %rsp, 8
	retq
.Lfunc_end8:
	.size	ff_0, .Lfunc_end8-ff_0
	.cfi_endproc
                                        # -- End function
	.globl	_Z6test_0N4sycl3_V15queueE      # -- Begin function _Z6test_0N4sycl3_V15queueE
	.p2align	4
	.type	_Z6test_0N4sycl3_V15queueE,@function
_Z6test_0N4sycl3_V15queueE:             # @_Z6test_0N4sycl3_V15queueE
.Lfunc_begin1:
	.cfi_startproc
	.cfi_personality 3, __gxx_personality_v0
	.cfi_lsda 3, .Lexception1
# %bb.0:                                # %entry
	pushq	%rbp
	.cfi_def_cfa_offset 16
	.cfi_offset %rbp, -16
	movq	%rsp, %rbp
	.cfi_def_cfa_register %rbp
	subq	$656, %rsp                      # imm = 0x290
	movq	%rdi, -520(%rbp)                # 8-byte Spill
	movq	%rdi, -8(%rbp)
	movl	$10, -12(%rbp)
	leaq	-56(%rbp), %rdi
	movq	%rdi, -512(%rbp)                # 8-byte Spill
	callq	_ZN4sycl3_V113property_listC2IJEvEEDpT_
	movl	$.L.str.9, %esi
	movl	$.L.str.10, %edx
	leaq	-88(%rbp), %rdi
	movq	%rdi, -504(%rbp)                # 8-byte Spill
	movl	$57, %ecx
	movl	$17, %r8d
	callq	_ZN4sycl3_V16detail13code_location7currentEPKcS4_mm
	movq	-520(%rbp), %rsi                # 8-byte Reload
	movq	-512(%rbp), %rdx                # 8-byte Reload
	movq	-504(%rbp), %rcx                # 8-byte Reload
.Ltmp3:
	movl	$10, %edi
	callq	_ZN4sycl3_V113malloc_sharedIiEEPT_mRKNS0_5queueERKNS0_13property_listERKNS0_6detail13code_locationE
.Ltmp4:
	movq	%rax, -496(%rbp)                # 8-byte Spill
	jmp	.LBB9_1
.LBB9_1:                                # %invoke.cont
	leaq	-56(%rbp), %rdi
	callq	_ZN4sycl3_V113property_listD2Ev
	movq	-496(%rbp), %rax                # 8-byte Reload
	movq	%rax, -24(%rbp)
	movl	$3, -104(%rbp)
	movl	$5, -108(%rbp)
	leaq	-160(%rbp), %rdi
	xorl	%esi, %esi
	movl	$40, %edx
	callq	memset@PLT
	movl	$8, -148(%rbp)
	movl	$8, -144(%rbp)
	movl	$8, -140(%rbp)
	leaq	-168(%rbp), %rdi
	movl	$10, %esi
	callq	_ZN4sycl3_V15rangeILi1EEC2ILi1EEENSt9enable_ifIXeqT_Li1EEmE4typeE
	movq	-24(%rbp), %rdi
	xorl	%esi, %esi
	movl	$40, %edx
	callq	memset@PLT
	leaq	-104(%rbp), %rax
	movq	%rax, -208(%rbp)
	leaq	-108(%rbp), %rax
	movq	%rax, -200(%rbp)
	leaq	-24(%rbp), %rax
	movq	%rax, -192(%rbp)
	leaq	-240(%rbp), %rdi
	movabsq	$.L.str.9, %rsi
	movabsq	$.L.str.10, %rdx
	movl	$64, %ecx
	movl	$9, %r8d
	callq	_ZN4sycl3_V16detail13code_location7currentEPKcS4_mm
	movq	-520(%rbp), %rsi                # 8-byte Reload
	leaq	-184(%rbp), %rdi
	leaq	-208(%rbp), %rax
	leaq	-240(%rbp), %rdx
	movq	(%rax), %rcx
	movq	%rcx, (%rsp)
	movq	8(%rax), %rcx
	movq	%rcx, 8(%rsp)
	movq	16(%rax), %rax
	movq	%rax, 16(%rsp)
	callq	_ZN4sycl3_V15queue6submitIZ6test_0S1_EUlRNS0_7handlerEE_EENSt9enable_ifIXsr3stdE16is_invocable_r_vIvT_S4_EENS0_5eventEE4typeES7_RKNS0_6detail13code_locationE
	leaq	-184(%rbp), %rdi
	callq	_ZN4sycl3_V15eventD2Ev
	leaq	-272(%rbp), %rdi
	movabsq	$.L.str.9, %rsi
	movabsq	$.L.str.10, %rdx
	movl	$70, %ecx
	movl	$9, %r8d
	callq	_ZN4sycl3_V16detail13code_location7currentEPKcS4_mm
	movq	-520(%rbp), %rdi                # 8-byte Reload
	leaq	-272(%rbp), %rsi
	callq	_ZN4sycl3_V15queue4waitERKNS0_6detail13code_locationE
	movq	-24(%rbp), %rdi
	leaq	-160(%rbp), %rdx
	movl	$10, %esi
	callq	_Z8checkUSMPiiS_
	andb	$1, %al
	movb	%al, -273(%rbp)
	movabsq	$_ZSt4cout, %rdi
	movabsq	$.L.str.11, %rsi
	callq	_ZStlsISt11char_traitsIcEERSt13basic_ostreamIcT_ES5_PKc
	movq	%rax, -528(%rbp)                # 8-byte Spill
	testb	$1, -273(%rbp)
	je	.LBB9_3
# %bb.2:                                # %cond.true
	movabsq	$.L.str.12, %rax
	movq	%rax, -536(%rbp)                # 8-byte Spill
	jmp	.LBB9_4
.LBB9_3:                                # %cond.false
	movabsq	$.L.str.13, %rax
	movq	%rax, -536(%rbp)                # 8-byte Spill
	jmp	.LBB9_4
.LBB9_4:                                # %cond.end
	movq	-528(%rbp), %rdi                # 8-byte Reload
	movq	-536(%rbp), %rsi                # 8-byte Reload
	callq	_ZStlsISt11char_traitsIcEERSt13basic_ostreamIcT_ES5_PKc
	movq	%rax, %rdi
	movl	$_ZSt4endlIcSt11char_traitsIcEERSt13basic_ostreamIT_T0_ES6_, %esi
	callq	_ZNSolsEPFRSoS_E
	movq	-520(%rbp), %rsi                # 8-byte Reload
	movb	$0, -274(%rbp)
	leaq	-312(%rbp), %rdi
	movq	%rdi, -544(%rbp)                # 8-byte Spill
	callq	_ZNK4sycl3_V15queue11get_contextEv
	movq	-544(%rbp), %rsi                # 8-byte Reload
.Ltmp6:
	leaq	-296(%rbp), %rdi
	callq	_ZN4sycl3_V117get_kernel_bundleILNS0_12bundle_stateE2EEENS0_13kernel_bundleIXT_EEERKNS0_7contextE
.Ltmp7:
	jmp	.LBB9_5
.LBB9_5:                                # %invoke.cont14
	leaq	-312(%rbp), %rdi
	callq	_ZN4sycl3_V17contextD2Ev
.Ltmp9:
	leaq	-328(%rbp), %rdi
	callq	_ZN4sycl3_V13ext6oneapi12experimental13get_kernel_idITnPDaXadL_Z4ff_0EEEENSt9enable_ifIX11is_kernel_vIXT_EEENS0_9kernel_idEE4typeEv
.Ltmp10:
	jmp	.LBB9_6
.LBB9_6:                                # %invoke.cont16
.Ltmp12:
	leaq	-344(%rbp), %rdi
	leaq	-296(%rbp), %rsi
	leaq	-328(%rbp), %rdx
	callq	_ZNK4sycl3_V113kernel_bundleILNS0_12bundle_stateE2EE10get_kernelILS2_2EvEENS0_6kernelERKNS0_9kernel_idE
.Ltmp13:
	jmp	.LBB9_7
.LBB9_7:                                # %invoke.cont18
	movq	-24(%rbp), %rax
	xorps	%xmm0, %xmm0
	movups	%xmm0, 16(%rax)
	movups	%xmm0, (%rax)
	movq	$0, 32(%rax)
	leaq	-24(%rbp), %rax
	movq	%rax, -392(%rbp)
	leaq	-104(%rbp), %rax
	movq	%rax, -384(%rbp)
	leaq	-108(%rbp), %rax
	movq	%rax, -376(%rbp)
	leaq	-344(%rbp), %rax
	movq	%rax, -368(%rbp)
	movl	$.L.str.9, %esi
	movl	$.L.str.10, %edx
	leaq	-424(%rbp), %rdi
	movq	%rdi, -552(%rbp)                # 8-byte Spill
	movl	$81, %ecx
	movl	$9, %r8d
	callq	_ZN4sycl3_V16detail13code_location7currentEPKcS4_mm
	movq	-520(%rbp), %rsi                # 8-byte Reload
	movq	-552(%rbp), %rdx                # 8-byte Reload
.Ltmp15:
	movups	-392(%rbp), %xmm0
	movups	-376(%rbp), %xmm1
	movq	%rsp, %rax
	movups	%xmm1, 16(%rax)
	movups	%xmm0, (%rax)
	leaq	-360(%rbp), %rdi
	callq	_ZN4sycl3_V15queue6submitIZ6test_0S1_EUlRNS0_7handlerEE0_EENSt9enable_ifIXsr3stdE16is_invocable_r_vIvT_S4_EENS0_5eventEE4typeES7_RKNS0_6detail13code_locationE
.Ltmp16:
	jmp	.LBB9_8
.LBB9_8:                                # %invoke.cont27
	leaq	-360(%rbp), %rdi
	callq	_ZN4sycl3_V15eventD2Ev
	movl	$.L.str.9, %esi
	movl	$.L.str.10, %edx
	leaq	-456(%rbp), %rdi
	movq	%rdi, -560(%rbp)                # 8-byte Spill
	movl	$87, %ecx
	movl	$9, %r8d
	callq	_ZN4sycl3_V16detail13code_location7currentEPKcS4_mm
	movq	-520(%rbp), %rdi                # 8-byte Reload
	movq	-560(%rbp), %rsi                # 8-byte Reload
.Ltmp17:
	callq	_ZN4sycl3_V15queue4waitERKNS0_6detail13code_locationE
.Ltmp18:
	jmp	.LBB9_9
.LBB9_9:                                # %invoke.cont29
	movq	-24(%rbp), %rdi
.Ltmp19:
	movl	$10, %esi
	leaq	-160(%rbp), %rdx
	callq	_Z8checkUSMPiiS_
.Ltmp20:
	movb	%al, -561(%rbp)                 # 1-byte Spill
	jmp	.LBB9_10
.LBB9_10:                               # %invoke.cont31
	movb	-561(%rbp), %al                 # 1-byte Reload
	andb	$1, %al
	movb	%al, -274(%rbp)
.Ltmp21:
	movl	$_ZSt4cout, %edi
	movl	$.L.str.14, %esi
	callq	_ZStlsISt11char_traitsIcEERSt13basic_ostreamIcT_ES5_PKc
.Ltmp22:
	movq	%rax, -576(%rbp)                # 8-byte Spill
	jmp	.LBB9_11
.LBB9_11:                               # %invoke.cont34
	testb	$1, -274(%rbp)
	je	.LBB9_13
# %bb.12:                               # %cond.true37
	movabsq	$.L.str.12, %rax
	movq	%rax, -584(%rbp)                # 8-byte Spill
	jmp	.LBB9_14
.LBB9_13:                               # %cond.false38
	movabsq	$.L.str.13, %rax
	movq	%rax, -584(%rbp)                # 8-byte Spill
	jmp	.LBB9_14
.LBB9_14:                               # %cond.end39
.Ltmp23:
	movq	-576(%rbp), %rdi                # 8-byte Reload
	movq	-584(%rbp), %rsi                # 8-byte Reload
	callq	_ZStlsISt11char_traitsIcEERSt13basic_ostreamIcT_ES5_PKc
.Ltmp24:
	movq	%rax, -592(%rbp)                # 8-byte Spill
	jmp	.LBB9_15
.LBB9_15:                               # %invoke.cont42
.Ltmp25:
	movq	-592(%rbp), %rdi                # 8-byte Reload
	movl	$_ZSt4endlIcSt11char_traitsIcEERSt13basic_ostreamIT_T0_ES6_, %esi
	callq	_ZNSolsEPFRSoS_E
.Ltmp26:
	jmp	.LBB9_16
.LBB9_16:                               # %invoke.cont44
	movq	-24(%rbp), %rax
	movq	%rax, -608(%rbp)                # 8-byte Spill
	movl	$.L.str.9, %esi
	movl	$.L.str.10, %edx
	leaq	-488(%rbp), %rdi
	movq	%rdi, -600(%rbp)                # 8-byte Spill
	movl	$92, %ecx
	movl	$3, %r8d
	callq	_ZN4sycl3_V16detail13code_location7currentEPKcS4_mm
	movq	-608(%rbp), %rdi                # 8-byte Reload
	movq	-520(%rbp), %rsi                # 8-byte Reload
	movq	-600(%rbp), %rdx                # 8-byte Reload
.Ltmp27:
	callq	_ZN4sycl3_V14freeEPvRKNS0_5queueERKNS0_6detail13code_locationE
.Ltmp28:
	jmp	.LBB9_17
.LBB9_17:                               # %invoke.cont47
	xorl	%eax, %eax
                                        # kill: def $al killed $al killed $eax
	testb	$1, -273(%rbp)
	movb	%al, -609(%rbp)                 # 1-byte Spill
	je	.LBB9_19
# %bb.18:                               # %land.rhs
	movb	-274(%rbp), %al
	movb	%al, -609(%rbp)                 # 1-byte Spill
.LBB9_19:                               # %land.end
	movb	-609(%rbp), %al                 # 1-byte Reload
	movb	%al, -610(%rbp)                 # 1-byte Spill
	leaq	-344(%rbp), %rdi
	callq	_ZN4sycl3_V16kernelD2Ev
	leaq	-328(%rbp), %rdi
	callq	_ZN4sycl3_V19kernel_idD2Ev
	leaq	-296(%rbp), %rdi
	callq	_ZN4sycl3_V113kernel_bundleILNS0_12bundle_stateE2EED2Ev
	movb	-610(%rbp), %al                 # 1-byte Reload
	andb	$1, %al
	addq	$656, %rsp                      # imm = 0x290
	popq	%rbp
	.cfi_def_cfa %rsp, 8
	retq
.LBB9_20:                               # %lpad
	.cfi_def_cfa %rbp, 16
.Ltmp5:
	movq	%rax, %rcx
	movl	%edx, %eax
	movq	%rcx, -96(%rbp)
	movl	%eax, -100(%rbp)
	leaq	-56(%rbp), %rdi
	callq	_ZN4sycl3_V113property_listD2Ev
	jmp	.LBB9_27
.LBB9_21:                               # %lpad13
.Ltmp8:
	movq	%rax, %rcx
	movl	%edx, %eax
	movq	%rcx, -96(%rbp)
	movl	%eax, -100(%rbp)
	leaq	-312(%rbp), %rdi
	callq	_ZN4sycl3_V17contextD2Ev
	jmp	.LBB9_27
.LBB9_22:                               # %lpad15
.Ltmp11:
	movq	%rax, %rcx
	movl	%edx, %eax
	movq	%rcx, -96(%rbp)
	movl	%eax, -100(%rbp)
	jmp	.LBB9_26
.LBB9_23:                               # %lpad17
.Ltmp14:
	movq	%rax, %rcx
	movl	%edx, %eax
	movq	%rcx, -96(%rbp)
	movl	%eax, -100(%rbp)
	jmp	.LBB9_25
.LBB9_24:                               # %lpad26
.Ltmp29:
	movq	%rax, %rcx
	movl	%edx, %eax
	movq	%rcx, -96(%rbp)
	movl	%eax, -100(%rbp)
	leaq	-344(%rbp), %rdi
	callq	_ZN4sycl3_V16kernelD2Ev
.LBB9_25:                               # %ehcleanup
	leaq	-328(%rbp), %rdi
	callq	_ZN4sycl3_V19kernel_idD2Ev
.LBB9_26:                               # %ehcleanup50
	leaq	-296(%rbp), %rdi
	callq	_ZN4sycl3_V113kernel_bundleILNS0_12bundle_stateE2EED2Ev
.LBB9_27:                               # %eh.resume
	movq	-96(%rbp), %rdi
	callq	_Unwind_Resume@PLT
.Lfunc_end9:
	.size	_Z6test_0N4sycl3_V15queueE, .Lfunc_end9-_Z6test_0N4sycl3_V15queueE
	.cfi_endproc
	.section	.gcc_except_table,"a",@progbits
	.p2align	2, 0x0
GCC_except_table9:
.Lexception1:
	.byte	255                             # @LPStart Encoding = omit
	.byte	255                             # @TType Encoding = omit
	.byte	1                               # Call site Encoding = uleb128
	.uleb128 .Lcst_end1-.Lcst_begin1
.Lcst_begin1:
	.uleb128 .Lfunc_begin1-.Lfunc_begin1    # >> Call Site 1 <<
	.uleb128 .Ltmp3-.Lfunc_begin1           #   Call between .Lfunc_begin1 and .Ltmp3
	.byte	0                               #     has no landing pad
	.byte	0                               #   On action: cleanup
	.uleb128 .Ltmp3-.Lfunc_begin1           # >> Call Site 2 <<
	.uleb128 .Ltmp4-.Ltmp3                  #   Call between .Ltmp3 and .Ltmp4
	.uleb128 .Ltmp5-.Lfunc_begin1           #     jumps to .Ltmp5
	.byte	0                               #   On action: cleanup
	.uleb128 .Ltmp4-.Lfunc_begin1           # >> Call Site 3 <<
	.uleb128 .Ltmp6-.Ltmp4                  #   Call between .Ltmp4 and .Ltmp6
	.byte	0                               #     has no landing pad
	.byte	0                               #   On action: cleanup
	.uleb128 .Ltmp6-.Lfunc_begin1           # >> Call Site 4 <<
	.uleb128 .Ltmp7-.Ltmp6                  #   Call between .Ltmp6 and .Ltmp7
	.uleb128 .Ltmp8-.Lfunc_begin1           #     jumps to .Ltmp8
	.byte	0                               #   On action: cleanup
	.uleb128 .Ltmp9-.Lfunc_begin1           # >> Call Site 5 <<
	.uleb128 .Ltmp10-.Ltmp9                 #   Call between .Ltmp9 and .Ltmp10
	.uleb128 .Ltmp11-.Lfunc_begin1          #     jumps to .Ltmp11
	.byte	0                               #   On action: cleanup
	.uleb128 .Ltmp12-.Lfunc_begin1          # >> Call Site 6 <<
	.uleb128 .Ltmp13-.Ltmp12                #   Call between .Ltmp12 and .Ltmp13
	.uleb128 .Ltmp14-.Lfunc_begin1          #     jumps to .Ltmp14
	.byte	0                               #   On action: cleanup
	.uleb128 .Ltmp15-.Lfunc_begin1          # >> Call Site 7 <<
	.uleb128 .Ltmp28-.Ltmp15                #   Call between .Ltmp15 and .Ltmp28
	.uleb128 .Ltmp29-.Lfunc_begin1          #     jumps to .Ltmp29
	.byte	0                               #   On action: cleanup
	.uleb128 .Ltmp28-.Lfunc_begin1          # >> Call Site 8 <<
	.uleb128 .Lfunc_end9-.Ltmp28            #   Call between .Ltmp28 and .Lfunc_end9
	.byte	0                               #     has no landing pad
	.byte	0                               #   On action: cleanup
.Lcst_end1:
	.p2align	2, 0x0
                                        # -- End function
	.section	.text._ZN4sycl3_V113malloc_sharedIiEEPT_mRKNS0_5queueERKNS0_13property_listERKNS0_6detail13code_locationE,"axG",@progbits,_ZN4sycl3_V113malloc_sharedIiEEPT_mRKNS0_5queueERKNS0_13property_listERKNS0_6detail13code_locationE,comdat
	.weak	_ZN4sycl3_V113malloc_sharedIiEEPT_mRKNS0_5queueERKNS0_13property_listERKNS0_6detail13code_locationE # -- Begin function _ZN4sycl3_V113malloc_sharedIiEEPT_mRKNS0_5queueERKNS0_13property_listERKNS0_6detail13code_locationE
	.p2align	4
	.type	_ZN4sycl3_V113malloc_sharedIiEEPT_mRKNS0_5queueERKNS0_13property_listERKNS0_6detail13code_locationE,@function
_ZN4sycl3_V113malloc_sharedIiEEPT_mRKNS0_5queueERKNS0_13property_listERKNS0_6detail13code_locationE: # @_ZN4sycl3_V113malloc_sharedIiEEPT_mRKNS0_5queueERKNS0_13property_listERKNS0_6detail13code_locationE
.Lfunc_begin2:
	.cfi_startproc
	.cfi_personality 3, __gxx_personality_v0
	.cfi_lsda 3, .Lexception2
# %bb.0:                                # %entry
	pushq	%rbp
	.cfi_def_cfa_offset 16
	.cfi_offset %rbp, -16
	movq	%rsp, %rbp
	.cfi_def_cfa_register %rbp
	subq	$96, %rsp
	movq	%rdi, -8(%rbp)
	movq	%rsi, -16(%rbp)
	movq	%rdx, -24(%rbp)
	movq	%rcx, -32(%rbp)
	movq	-8(%rbp), %rax
	movq	%rax, -88(%rbp)                 # 8-byte Spill
	movq	-16(%rbp), %rsi
	leaq	-48(%rbp), %rdi
	callq	_ZNK4sycl3_V15queue10get_deviceEv
	movq	-16(%rbp), %rsi
.Ltmp30:
	leaq	-64(%rbp), %rdi
	callq	_ZNK4sycl3_V15queue11get_contextEv
.Ltmp31:
	jmp	.LBB10_1
.LBB10_1:                               # %invoke.cont
	movq	-88(%rbp), %rdi                 # 8-byte Reload
	movq	-24(%rbp), %rcx
	movq	-32(%rbp), %r8
.Ltmp33:
	leaq	-48(%rbp), %rsi
	leaq	-64(%rbp), %rdx
	callq	_ZN4sycl3_V113malloc_sharedIiEEPT_mRKNS0_6deviceERKNS0_7contextERKNS0_13property_listERKNS0_6detail13code_locationE
.Ltmp34:
	movq	%rax, -96(%rbp)                 # 8-byte Spill
	jmp	.LBB10_2
.LBB10_2:                               # %invoke.cont3
	leaq	-64(%rbp), %rdi
	callq	_ZN4sycl3_V17contextD2Ev
	leaq	-48(%rbp), %rdi
	callq	_ZN4sycl3_V16deviceD2Ev
	movq	-96(%rbp), %rax                 # 8-byte Reload
	addq	$96, %rsp
	popq	%rbp
	.cfi_def_cfa %rsp, 8
	retq
.LBB10_3:                               # %lpad
	.cfi_def_cfa %rbp, 16
.Ltmp32:
	movq	%rax, %rcx
	movl	%edx, %eax
	movq	%rcx, -72(%rbp)
	movl	%eax, -76(%rbp)
	jmp	.LBB10_5
.LBB10_4:                               # %lpad2
.Ltmp35:
	movq	%rax, %rcx
	movl	%edx, %eax
	movq	%rcx, -72(%rbp)
	movl	%eax, -76(%rbp)
	leaq	-64(%rbp), %rdi
	callq	_ZN4sycl3_V17contextD2Ev
.LBB10_5:                               # %ehcleanup
	leaq	-48(%rbp), %rdi
	callq	_ZN4sycl3_V16deviceD2Ev
# %bb.6:                                # %eh.resume
	movq	-72(%rbp), %rdi
	callq	_Unwind_Resume@PLT
.Lfunc_end10:
	.size	_ZN4sycl3_V113malloc_sharedIiEEPT_mRKNS0_5queueERKNS0_13property_listERKNS0_6detail13code_locationE, .Lfunc_end10-_ZN4sycl3_V113malloc_sharedIiEEPT_mRKNS0_5queueERKNS0_13property_listERKNS0_6detail13code_locationE
	.cfi_endproc
	.section	.gcc_except_table._ZN4sycl3_V113malloc_sharedIiEEPT_mRKNS0_5queueERKNS0_13property_listERKNS0_6detail13code_locationE,"aG",@progbits,_ZN4sycl3_V113malloc_sharedIiEEPT_mRKNS0_5queueERKNS0_13property_listERKNS0_6detail13code_locationE,comdat
	.p2align	2, 0x0
GCC_except_table10:
.Lexception2:
	.byte	255                             # @LPStart Encoding = omit
	.byte	255                             # @TType Encoding = omit
	.byte	1                               # Call site Encoding = uleb128
	.uleb128 .Lcst_end2-.Lcst_begin2
.Lcst_begin2:
	.uleb128 .Lfunc_begin2-.Lfunc_begin2    # >> Call Site 1 <<
	.uleb128 .Ltmp30-.Lfunc_begin2          #   Call between .Lfunc_begin2 and .Ltmp30
	.byte	0                               #     has no landing pad
	.byte	0                               #   On action: cleanup
	.uleb128 .Ltmp30-.Lfunc_begin2          # >> Call Site 2 <<
	.uleb128 .Ltmp31-.Ltmp30                #   Call between .Ltmp30 and .Ltmp31
	.uleb128 .Ltmp32-.Lfunc_begin2          #     jumps to .Ltmp32
	.byte	0                               #   On action: cleanup
	.uleb128 .Ltmp33-.Lfunc_begin2          # >> Call Site 3 <<
	.uleb128 .Ltmp34-.Ltmp33                #   Call between .Ltmp33 and .Ltmp34
	.uleb128 .Ltmp35-.Lfunc_begin2          #     jumps to .Ltmp35
	.byte	0                               #   On action: cleanup
	.uleb128 .Ltmp34-.Lfunc_begin2          # >> Call Site 4 <<
	.uleb128 .Lfunc_end10-.Ltmp34           #   Call between .Ltmp34 and .Lfunc_end10
	.byte	0                               #     has no landing pad
	.byte	0                               #   On action: cleanup
.Lcst_end2:
	.p2align	2, 0x0
                                        # -- End function
	.section	.text._ZN4sycl3_V113property_listC2IJEvEEDpT_,"axG",@progbits,_ZN4sycl3_V113property_listC2IJEvEEDpT_,comdat
	.weak	_ZN4sycl3_V113property_listC2IJEvEEDpT_ # -- Begin function _ZN4sycl3_V113property_listC2IJEvEEDpT_
	.p2align	4
	.type	_ZN4sycl3_V113property_listC2IJEvEEDpT_,@function
_ZN4sycl3_V113property_listC2IJEvEEDpT_: # @_ZN4sycl3_V113property_listC2IJEvEEDpT_
.Lfunc_begin3:
	.cfi_startproc
	.cfi_personality 3, __gxx_personality_v0
	.cfi_lsda 3, .Lexception3
# %bb.0:                                # %entry
	pushq	%rbp
	.cfi_def_cfa_offset 16
	.cfi_offset %rbp, -16
	movq	%rsp, %rbp
	.cfi_def_cfa_register %rbp
	subq	$48, %rsp
	movq	%rdi, -8(%rbp)
	movq	-8(%rbp), %rax
	movq	%rax, -40(%rbp)                 # 8-byte Spill
	xorl	%eax, %eax
	movl	%eax, %esi
	leaq	-16(%rbp), %rdi
	callq	_ZNSt6bitsetILm32EEC2Ey
	movq	-40(%rbp), %rdi                 # 8-byte Reload
	movq	-16(%rbp), %rsi
	callq	_ZN4sycl3_V16detail16PropertyListBaseC2ESt6bitsetILm32EE
	movq	-40(%rbp), %rdi                 # 8-byte Reload
.Ltmp36:
	callq	_ZN4sycl3_V16detail16PropertyListBase10ctorHelperEv
.Ltmp37:
	jmp	.LBB11_1
.LBB11_1:                               # %invoke.cont
	addq	$48, %rsp
	popq	%rbp
	.cfi_def_cfa %rsp, 8
	retq
.LBB11_2:                               # %lpad
	.cfi_def_cfa %rbp, 16
.Ltmp38:
	movq	-40(%rbp), %rdi                 # 8-byte Reload
	movq	%rax, %rcx
	movl	%edx, %eax
	movq	%rcx, -24(%rbp)
	movl	%eax, -28(%rbp)
	callq	_ZN4sycl3_V16detail16PropertyListBaseD2Ev
# %bb.3:                                # %eh.resume
	movq	-24(%rbp), %rdi
	callq	_Unwind_Resume@PLT
.Lfunc_end11:
	.size	_ZN4sycl3_V113property_listC2IJEvEEDpT_, .Lfunc_end11-_ZN4sycl3_V113property_listC2IJEvEEDpT_
	.cfi_endproc
	.section	.gcc_except_table._ZN4sycl3_V113property_listC2IJEvEEDpT_,"aG",@progbits,_ZN4sycl3_V113property_listC2IJEvEEDpT_,comdat
	.p2align	2, 0x0
GCC_except_table11:
.Lexception3:
	.byte	255                             # @LPStart Encoding = omit
	.byte	255                             # @TType Encoding = omit
	.byte	1                               # Call site Encoding = uleb128
	.uleb128 .Lcst_end3-.Lcst_begin3
.Lcst_begin3:
	.uleb128 .Ltmp36-.Lfunc_begin3          # >> Call Site 1 <<
	.uleb128 .Ltmp37-.Ltmp36                #   Call between .Ltmp36 and .Ltmp37
	.uleb128 .Ltmp38-.Lfunc_begin3          #     jumps to .Ltmp38
	.byte	0                               #   On action: cleanup
	.uleb128 .Ltmp37-.Lfunc_begin3          # >> Call Site 2 <<
	.uleb128 .Lfunc_end11-.Ltmp37           #   Call between .Ltmp37 and .Lfunc_end11
	.byte	0                               #     has no landing pad
	.byte	0                               #   On action: cleanup
.Lcst_end3:
	.p2align	2, 0x0
                                        # -- End function
	.section	.text._ZN4sycl3_V16detail13code_location7currentEPKcS4_mm,"axG",@progbits,_ZN4sycl3_V16detail13code_location7currentEPKcS4_mm,comdat
	.weak	_ZN4sycl3_V16detail13code_location7currentEPKcS4_mm # -- Begin function _ZN4sycl3_V16detail13code_location7currentEPKcS4_mm
	.p2align	4
	.type	_ZN4sycl3_V16detail13code_location7currentEPKcS4_mm,@function
_ZN4sycl3_V16detail13code_location7currentEPKcS4_mm: # @_ZN4sycl3_V16detail13code_location7currentEPKcS4_mm
	.cfi_startproc
# %bb.0:                                # %entry
	pushq	%rbp
	.cfi_def_cfa_offset 16
	.cfi_offset %rbp, -16
	movq	%rsp, %rbp
	.cfi_def_cfa_register %rbp
	subq	$48, %rsp
	movq	%rdi, %rax
	movq	%rax, -40(%rbp)                 # 8-byte Spill
	movq	%rsi, -8(%rbp)
	movq	%rdx, -16(%rbp)
	movq	%rcx, -24(%rbp)
	movq	%r8, -32(%rbp)
	movq	-8(%rbp), %rsi
	movq	-16(%rbp), %rdx
	movq	-24(%rbp), %rax
	movl	%eax, %ecx
	movq	-32(%rbp), %rax
	movl	%eax, %r8d
	callq	_ZN4sycl3_V16detail13code_locationC2EPKcS4_ii
	movq	-40(%rbp), %rax                 # 8-byte Reload
	addq	$48, %rsp
	popq	%rbp
	.cfi_def_cfa %rsp, 8
	retq
.Lfunc_end12:
	.size	_ZN4sycl3_V16detail13code_location7currentEPKcS4_mm, .Lfunc_end12-_ZN4sycl3_V16detail13code_location7currentEPKcS4_mm
	.cfi_endproc
                                        # -- End function
	.section	.text._ZN4sycl3_V113property_listD2Ev,"axG",@progbits,_ZN4sycl3_V113property_listD2Ev,comdat
	.weak	_ZN4sycl3_V113property_listD2Ev # -- Begin function _ZN4sycl3_V113property_listD2Ev
	.p2align	4
	.type	_ZN4sycl3_V113property_listD2Ev,@function
_ZN4sycl3_V113property_listD2Ev:        # @_ZN4sycl3_V113property_listD2Ev
	.cfi_startproc
# %bb.0:                                # %entry
	pushq	%rbp
	.cfi_def_cfa_offset 16
	.cfi_offset %rbp, -16
	movq	%rsp, %rbp
	.cfi_def_cfa_register %rbp
	subq	$16, %rsp
	movq	%rdi, -8(%rbp)
	movq	-8(%rbp), %rdi
	callq	_ZN4sycl3_V16detail16PropertyListBaseD2Ev
	addq	$16, %rsp
	popq	%rbp
	.cfi_def_cfa %rsp, 8
	retq
.Lfunc_end13:
	.size	_ZN4sycl3_V113property_listD2Ev, .Lfunc_end13-_ZN4sycl3_V113property_listD2Ev
	.cfi_endproc
                                        # -- End function
	.section	.text._ZN4sycl3_V15rangeILi1EEC2ILi1EEENSt9enable_ifIXeqT_Li1EEmE4typeE,"axG",@progbits,_ZN4sycl3_V15rangeILi1EEC2ILi1EEENSt9enable_ifIXeqT_Li1EEmE4typeE,comdat
	.weak	_ZN4sycl3_V15rangeILi1EEC2ILi1EEENSt9enable_ifIXeqT_Li1EEmE4typeE # -- Begin function _ZN4sycl3_V15rangeILi1EEC2ILi1EEENSt9enable_ifIXeqT_Li1EEmE4typeE
	.p2align	4
	.type	_ZN4sycl3_V15rangeILi1EEC2ILi1EEENSt9enable_ifIXeqT_Li1EEmE4typeE,@function
_ZN4sycl3_V15rangeILi1EEC2ILi1EEENSt9enable_ifIXeqT_Li1EEmE4typeE: # @_ZN4sycl3_V15rangeILi1EEC2ILi1EEENSt9enable_ifIXeqT_Li1EEmE4typeE
	.cfi_startproc
# %bb.0:                                # %entry
	pushq	%rbp
	.cfi_def_cfa_offset 16
	.cfi_offset %rbp, -16
	movq	%rsp, %rbp
	.cfi_def_cfa_register %rbp
	subq	$16, %rsp
	movq	%rdi, -8(%rbp)
	movq	%rsi, -16(%rbp)
	movq	-8(%rbp), %rdi
	movq	-16(%rbp), %rsi
	callq	_ZN4sycl3_V16detail5arrayILi1EEC2ILi1EEENSt9enable_ifIXeqT_Li1EEmE4typeE
	addq	$16, %rsp
	popq	%rbp
	.cfi_def_cfa %rsp, 8
	retq
.Lfunc_end14:
	.size	_ZN4sycl3_V15rangeILi1EEC2ILi1EEENSt9enable_ifIXeqT_Li1EEmE4typeE, .Lfunc_end14-_ZN4sycl3_V15rangeILi1EEC2ILi1EEENSt9enable_ifIXeqT_Li1EEmE4typeE
	.cfi_endproc
                                        # -- End function
	.text
	.p2align	4                               # -- Begin function _ZN4sycl3_V15queue6submitIZ6test_0S1_EUlRNS0_7handlerEE_EENSt9enable_ifIXsr3stdE16is_invocable_r_vIvT_S4_EENS0_5eventEE4typeES7_RKNS0_6detail13code_locationE
	.type	_ZN4sycl3_V15queue6submitIZ6test_0S1_EUlRNS0_7handlerEE_EENSt9enable_ifIXsr3stdE16is_invocable_r_vIvT_S4_EENS0_5eventEE4typeES7_RKNS0_6detail13code_locationE,@function
_ZN4sycl3_V15queue6submitIZ6test_0S1_EUlRNS0_7handlerEE_EENSt9enable_ifIXsr3stdE16is_invocable_r_vIvT_S4_EENS0_5eventEE4typeES7_RKNS0_6detail13code_locationE: # @_ZN4sycl3_V15queue6submitIZ6test_0S1_EUlRNS0_7handlerEE_EENSt9enable_ifIXsr3stdE16is_invocable_r_vIvT_S4_EENS0_5eventEE4typeES7_RKNS0_6detail13code_locationE
	.cfi_startproc
# %bb.0:                                # %entry
	pushq	%rbp
	.cfi_def_cfa_offset 16
	.cfi_offset %rbp, -16
	movq	%rsp, %rbp
	.cfi_def_cfa_register %rbp
	subq	$80, %rsp
	movq	%rsi, %rax
	movq	%rdi, -72(%rbp)                 # 8-byte Spill
	movq	%rdi, %rcx
	movq	%rcx, -56(%rbp)                 # 8-byte Spill
	leaq	16(%rbp), %rsi
	movq	%rdi, -8(%rbp)
	movq	%rax, -16(%rbp)
	movq	%rdx, -24(%rbp)
	movq	-16(%rbp), %rax
	movq	%rax, -64(%rbp)                 # 8-byte Spill
	leaq	-48(%rbp), %rdi
	callq	_ZN4sycl3_V16detail19type_erased_cgfo_tyC2IRZ6test_0NS0_5queueEEUlRNS0_7handlerEE_EEOT_
	movq	-72(%rbp), %rdi                 # 8-byte Reload
	movq	-64(%rbp), %rsi                 # 8-byte Reload
	movq	-24(%rbp), %rcx
	leaq	-48(%rbp), %rdx
	callq	_ZNK4sycl3_V15queue17submit_with_eventILb0ENS0_3ext6oneapi12experimental10propertiesINS5_6detail20properties_type_listIJEEEEEEENS0_5eventET0_RKNS0_6detail19type_erased_cgfo_tyERKNSD_13code_locationE
	movq	-56(%rbp), %rax                 # 8-byte Reload
	addq	$80, %rsp
	popq	%rbp
	.cfi_def_cfa %rsp, 8
	retq
.Lfunc_end15:
	.size	_ZN4sycl3_V15queue6submitIZ6test_0S1_EUlRNS0_7handlerEE_EENSt9enable_ifIXsr3stdE16is_invocable_r_vIvT_S4_EENS0_5eventEE4typeES7_RKNS0_6detail13code_locationE, .Lfunc_end15-_ZN4sycl3_V15queue6submitIZ6test_0S1_EUlRNS0_7handlerEE_EENSt9enable_ifIXsr3stdE16is_invocable_r_vIvT_S4_EENS0_5eventEE4typeES7_RKNS0_6detail13code_locationE
	.cfi_endproc
                                        # -- End function
	.section	.text._ZN4sycl3_V15eventD2Ev,"axG",@progbits,_ZN4sycl3_V15eventD2Ev,comdat
	.weak	_ZN4sycl3_V15eventD2Ev          # -- Begin function _ZN4sycl3_V15eventD2Ev
	.p2align	4
	.type	_ZN4sycl3_V15eventD2Ev,@function
_ZN4sycl3_V15eventD2Ev:                 # @_ZN4sycl3_V15eventD2Ev
	.cfi_startproc
# %bb.0:                                # %entry
	pushq	%rbp
	.cfi_def_cfa_offset 16
	.cfi_offset %rbp, -16
	movq	%rsp, %rbp
	.cfi_def_cfa_register %rbp
	subq	$16, %rsp
	movq	%rdi, -8(%rbp)
	movq	-8(%rbp), %rdi
	callq	_ZNSt10shared_ptrIN4sycl3_V16detail10event_implEED2Ev
	addq	$16, %rsp
	popq	%rbp
	.cfi_def_cfa %rsp, 8
	retq
.Lfunc_end16:
	.size	_ZN4sycl3_V15eventD2Ev, .Lfunc_end16-_ZN4sycl3_V15eventD2Ev
	.cfi_endproc
                                        # -- End function
	.section	.text._ZN4sycl3_V15queue4waitERKNS0_6detail13code_locationE,"axG",@progbits,_ZN4sycl3_V15queue4waitERKNS0_6detail13code_locationE,comdat
	.weak	_ZN4sycl3_V15queue4waitERKNS0_6detail13code_locationE # -- Begin function _ZN4sycl3_V15queue4waitERKNS0_6detail13code_locationE
	.p2align	4
	.type	_ZN4sycl3_V15queue4waitERKNS0_6detail13code_locationE,@function
_ZN4sycl3_V15queue4waitERKNS0_6detail13code_locationE: # @_ZN4sycl3_V15queue4waitERKNS0_6detail13code_locationE
.Lfunc_begin4:
	.cfi_startproc
	.cfi_personality 3, __gxx_personality_v0
	.cfi_lsda 3, .Lexception4
# %bb.0:                                # %entry
	pushq	%rbp
	.cfi_def_cfa_offset 16
	.cfi_offset %rbp, -16
	movq	%rsp, %rbp
	.cfi_def_cfa_register %rbp
	subq	$64, %rsp
	movq	%rdi, -8(%rbp)
	movq	%rsi, -16(%rbp)
	movq	-8(%rbp), %rax
	movq	%rax, -64(%rbp)                 # 8-byte Spill
	movq	-16(%rbp), %rsi
	leaq	-17(%rbp), %rdi
	movq	%rdi, -56(%rbp)                 # 8-byte Spill
	callq	_ZN4sycl3_V16detail14tls_code_loc_tC1ERKNS1_13code_locationE
	movq	-56(%rbp), %rdi                 # 8-byte Reload
.Ltmp39:
	callq	_ZN4sycl3_V16detail14tls_code_loc_t5queryEv
.Ltmp40:
	movq	%rax, -48(%rbp)                 # 8-byte Spill
	jmp	.LBB17_1
.LBB17_1:                               # %invoke.cont
.Ltmp41:
	movq	-48(%rbp), %rsi                 # 8-byte Reload
	movq	-64(%rbp), %rdi                 # 8-byte Reload
	callq	_ZN4sycl3_V15queue10wait_proxyERKNS0_6detail13code_locationE
.Ltmp42:
	jmp	.LBB17_2
.LBB17_2:                               # %invoke.cont2
	leaq	-17(%rbp), %rdi
	callq	_ZN4sycl3_V16detail14tls_code_loc_tD1Ev
	addq	$64, %rsp
	popq	%rbp
	.cfi_def_cfa %rsp, 8
	retq
.LBB17_3:                               # %lpad
	.cfi_def_cfa %rbp, 16
.Ltmp43:
	movq	%rax, %rcx
	movl	%edx, %eax
	movq	%rcx, -32(%rbp)
	movl	%eax, -36(%rbp)
	leaq	-17(%rbp), %rdi
	callq	_ZN4sycl3_V16detail14tls_code_loc_tD1Ev
# %bb.4:                                # %eh.resume
	movq	-32(%rbp), %rdi
	callq	_Unwind_Resume@PLT
.Lfunc_end17:
	.size	_ZN4sycl3_V15queue4waitERKNS0_6detail13code_locationE, .Lfunc_end17-_ZN4sycl3_V15queue4waitERKNS0_6detail13code_locationE
	.cfi_endproc
	.section	.gcc_except_table._ZN4sycl3_V15queue4waitERKNS0_6detail13code_locationE,"aG",@progbits,_ZN4sycl3_V15queue4waitERKNS0_6detail13code_locationE,comdat
	.p2align	2, 0x0
GCC_except_table17:
.Lexception4:
	.byte	255                             # @LPStart Encoding = omit
	.byte	255                             # @TType Encoding = omit
	.byte	1                               # Call site Encoding = uleb128
	.uleb128 .Lcst_end4-.Lcst_begin4
.Lcst_begin4:
	.uleb128 .Lfunc_begin4-.Lfunc_begin4    # >> Call Site 1 <<
	.uleb128 .Ltmp39-.Lfunc_begin4          #   Call between .Lfunc_begin4 and .Ltmp39
	.byte	0                               #     has no landing pad
	.byte	0                               #   On action: cleanup
	.uleb128 .Ltmp39-.Lfunc_begin4          # >> Call Site 2 <<
	.uleb128 .Ltmp42-.Ltmp39                #   Call between .Ltmp39 and .Ltmp42
	.uleb128 .Ltmp43-.Lfunc_begin4          #     jumps to .Ltmp43
	.byte	0                               #   On action: cleanup
	.uleb128 .Ltmp42-.Lfunc_begin4          # >> Call Site 3 <<
	.uleb128 .Lfunc_end17-.Ltmp42           #   Call between .Ltmp42 and .Lfunc_end17
	.byte	0                               #     has no landing pad
	.byte	0                               #   On action: cleanup
.Lcst_end4:
	.p2align	2, 0x0
                                        # -- End function
	.section	.text._ZN4sycl3_V117get_kernel_bundleILNS0_12bundle_stateE2EEENS0_13kernel_bundleIXT_EEERKNS0_7contextE,"axG",@progbits,_ZN4sycl3_V117get_kernel_bundleILNS0_12bundle_stateE2EEENS0_13kernel_bundleIXT_EEERKNS0_7contextE,comdat
	.weak	_ZN4sycl3_V117get_kernel_bundleILNS0_12bundle_stateE2EEENS0_13kernel_bundleIXT_EEERKNS0_7contextE # -- Begin function _ZN4sycl3_V117get_kernel_bundleILNS0_12bundle_stateE2EEENS0_13kernel_bundleIXT_EEERKNS0_7contextE
	.p2align	4
	.type	_ZN4sycl3_V117get_kernel_bundleILNS0_12bundle_stateE2EEENS0_13kernel_bundleIXT_EEERKNS0_7contextE,@function
_ZN4sycl3_V117get_kernel_bundleILNS0_12bundle_stateE2EEENS0_13kernel_bundleIXT_EEERKNS0_7contextE: # @_ZN4sycl3_V117get_kernel_bundleILNS0_12bundle_stateE2EEENS0_13kernel_bundleIXT_EEERKNS0_7contextE
.Lfunc_begin5:
	.cfi_startproc
	.cfi_personality 3, __gxx_personality_v0
	.cfi_lsda 3, .Lexception5
# %bb.0:                                # %entry
	pushq	%rbp
	.cfi_def_cfa_offset 16
	.cfi_offset %rbp, -16
	movq	%rsp, %rbp
	.cfi_def_cfa_register %rbp
	subq	$96, %rsp
	movq	%rdi, -80(%rbp)                 # 8-byte Spill
	movq	%rdi, %rax
	movq	%rax, -88(%rbp)                 # 8-byte Spill
	movq	%rdi, -8(%rbp)
	movq	%rsi, -16(%rbp)
	movq	-16(%rbp), %rsi
	movq	%rsi, -72(%rbp)                 # 8-byte Spill
	leaq	-40(%rbp), %rdi
	movq	%rdi, -64(%rbp)                 # 8-byte Spill
	callq	_ZNK4sycl3_V17context11get_devicesEv
	movq	-80(%rbp), %rdi                 # 8-byte Reload
	movq	-72(%rbp), %rsi                 # 8-byte Reload
	movq	-64(%rbp), %rdx                 # 8-byte Reload
.Ltmp44:
	callq	_ZN4sycl3_V117get_kernel_bundleILNS0_12bundle_stateE2EEENS0_13kernel_bundleIXT_EEERKNS0_7contextERKSt6vectorINS0_6deviceESaIS9_EE
.Ltmp45:
	jmp	.LBB18_1
.LBB18_1:                               # %invoke.cont
	leaq	-40(%rbp), %rdi
	callq	_ZNSt6vectorIN4sycl3_V16deviceESaIS2_EED2Ev
	movq	-88(%rbp), %rax                 # 8-byte Reload
	addq	$96, %rsp
	popq	%rbp
	.cfi_def_cfa %rsp, 8
	retq
.LBB18_2:                               # %lpad
	.cfi_def_cfa %rbp, 16
.Ltmp46:
	movq	%rax, %rcx
	movl	%edx, %eax
	movq	%rcx, -48(%rbp)
	movl	%eax, -52(%rbp)
	leaq	-40(%rbp), %rdi
	callq	_ZNSt6vectorIN4sycl3_V16deviceESaIS2_EED2Ev
# %bb.3:                                # %eh.resume
	movq	-48(%rbp), %rdi
	callq	_Unwind_Resume@PLT
.Lfunc_end18:
	.size	_ZN4sycl3_V117get_kernel_bundleILNS0_12bundle_stateE2EEENS0_13kernel_bundleIXT_EEERKNS0_7contextE, .Lfunc_end18-_ZN4sycl3_V117get_kernel_bundleILNS0_12bundle_stateE2EEENS0_13kernel_bundleIXT_EEERKNS0_7contextE
	.cfi_endproc
	.section	.gcc_except_table._ZN4sycl3_V117get_kernel_bundleILNS0_12bundle_stateE2EEENS0_13kernel_bundleIXT_EEERKNS0_7contextE,"aG",@progbits,_ZN4sycl3_V117get_kernel_bundleILNS0_12bundle_stateE2EEENS0_13kernel_bundleIXT_EEERKNS0_7contextE,comdat
	.p2align	2, 0x0
GCC_except_table18:
.Lexception5:
	.byte	255                             # @LPStart Encoding = omit
	.byte	255                             # @TType Encoding = omit
	.byte	1                               # Call site Encoding = uleb128
	.uleb128 .Lcst_end5-.Lcst_begin5
.Lcst_begin5:
	.uleb128 .Lfunc_begin5-.Lfunc_begin5    # >> Call Site 1 <<
	.uleb128 .Ltmp44-.Lfunc_begin5          #   Call between .Lfunc_begin5 and .Ltmp44
	.byte	0                               #     has no landing pad
	.byte	0                               #   On action: cleanup
	.uleb128 .Ltmp44-.Lfunc_begin5          # >> Call Site 2 <<
	.uleb128 .Ltmp45-.Ltmp44                #   Call between .Ltmp44 and .Ltmp45
	.uleb128 .Ltmp46-.Lfunc_begin5          #     jumps to .Ltmp46
	.byte	0                               #   On action: cleanup
	.uleb128 .Ltmp45-.Lfunc_begin5          # >> Call Site 3 <<
	.uleb128 .Lfunc_end18-.Ltmp45           #   Call between .Ltmp45 and .Lfunc_end18
	.byte	0                               #     has no landing pad
	.byte	0                               #   On action: cleanup
.Lcst_end5:
	.p2align	2, 0x0
                                        # -- End function
	.section	.text._ZN4sycl3_V17contextD2Ev,"axG",@progbits,_ZN4sycl3_V17contextD2Ev,comdat
	.weak	_ZN4sycl3_V17contextD2Ev        # -- Begin function _ZN4sycl3_V17contextD2Ev
	.p2align	4
	.type	_ZN4sycl3_V17contextD2Ev,@function
_ZN4sycl3_V17contextD2Ev:               # @_ZN4sycl3_V17contextD2Ev
	.cfi_startproc
# %bb.0:                                # %entry
	pushq	%rbp
	.cfi_def_cfa_offset 16
	.cfi_offset %rbp, -16
	movq	%rsp, %rbp
	.cfi_def_cfa_register %rbp
	subq	$16, %rsp
	movq	%rdi, -8(%rbp)
	movq	-8(%rbp), %rdi
	callq	_ZNSt10shared_ptrIN4sycl3_V16detail12context_implEED2Ev
	addq	$16, %rsp
	popq	%rbp
	.cfi_def_cfa %rsp, 8
	retq
.Lfunc_end19:
	.size	_ZN4sycl3_V17contextD2Ev, .Lfunc_end19-_ZN4sycl3_V17contextD2Ev
	.cfi_endproc
                                        # -- End function
	.section	.text._ZNK4sycl3_V113kernel_bundleILNS0_12bundle_stateE2EE10get_kernelILS2_2EvEENS0_6kernelERKNS0_9kernel_idE,"axG",@progbits,_ZNK4sycl3_V113kernel_bundleILNS0_12bundle_stateE2EE10get_kernelILS2_2EvEENS0_6kernelERKNS0_9kernel_idE,comdat
	.weak	_ZNK4sycl3_V113kernel_bundleILNS0_12bundle_stateE2EE10get_kernelILS2_2EvEENS0_6kernelERKNS0_9kernel_idE # -- Begin function _ZNK4sycl3_V113kernel_bundleILNS0_12bundle_stateE2EE10get_kernelILS2_2EvEENS0_6kernelERKNS0_9kernel_idE
	.p2align	4
	.type	_ZNK4sycl3_V113kernel_bundleILNS0_12bundle_stateE2EE10get_kernelILS2_2EvEENS0_6kernelERKNS0_9kernel_idE,@function
_ZNK4sycl3_V113kernel_bundleILNS0_12bundle_stateE2EE10get_kernelILS2_2EvEENS0_6kernelERKNS0_9kernel_idE: # @_ZNK4sycl3_V113kernel_bundleILNS0_12bundle_stateE2EE10get_kernelILS2_2EvEENS0_6kernelERKNS0_9kernel_idE
	.cfi_startproc
# %bb.0:                                # %entry
	pushq	%rbp
	.cfi_def_cfa_offset 16
	.cfi_offset %rbp, -16
	movq	%rsp, %rbp
	.cfi_def_cfa_register %rbp
	subq	$32, %rsp
	movq	%rdi, %rax
	movq	%rax, -32(%rbp)                 # 8-byte Spill
	movq	%rdi, -8(%rbp)
	movq	%rsi, -16(%rbp)
	movq	%rdx, -24(%rbp)
	movq	-16(%rbp), %rsi
	movq	-24(%rbp), %rdx
	callq	_ZNK4sycl3_V16detail19kernel_bundle_plain10get_kernelERKNS0_9kernel_idE
	movq	-32(%rbp), %rax                 # 8-byte Reload
	addq	$32, %rsp
	popq	%rbp
	.cfi_def_cfa %rsp, 8
	retq
.Lfunc_end20:
	.size	_ZNK4sycl3_V113kernel_bundleILNS0_12bundle_stateE2EE10get_kernelILS2_2EvEENS0_6kernelERKNS0_9kernel_idE, .Lfunc_end20-_ZNK4sycl3_V113kernel_bundleILNS0_12bundle_stateE2EE10get_kernelILS2_2EvEENS0_6kernelERKNS0_9kernel_idE
	.cfi_endproc
                                        # -- End function
	.text
	.p2align	4                               # -- Begin function _ZN4sycl3_V15queue6submitIZ6test_0S1_EUlRNS0_7handlerEE0_EENSt9enable_ifIXsr3stdE16is_invocable_r_vIvT_S4_EENS0_5eventEE4typeES7_RKNS0_6detail13code_locationE
	.type	_ZN4sycl3_V15queue6submitIZ6test_0S1_EUlRNS0_7handlerEE0_EENSt9enable_ifIXsr3stdE16is_invocable_r_vIvT_S4_EENS0_5eventEE4typeES7_RKNS0_6detail13code_locationE,@function
_ZN4sycl3_V15queue6submitIZ6test_0S1_EUlRNS0_7handlerEE0_EENSt9enable_ifIXsr3stdE16is_invocable_r_vIvT_S4_EENS0_5eventEE4typeES7_RKNS0_6detail13code_locationE: # @_ZN4sycl3_V15queue6submitIZ6test_0S1_EUlRNS0_7handlerEE0_EENSt9enable_ifIXsr3stdE16is_invocable_r_vIvT_S4_EENS0_5eventEE4typeES7_RKNS0_6detail13code_locationE
	.cfi_startproc
# %bb.0:                                # %entry
	pushq	%rbp
	.cfi_def_cfa_offset 16
	.cfi_offset %rbp, -16
	movq	%rsp, %rbp
	.cfi_def_cfa_register %rbp
	subq	$80, %rsp
	movq	%rsi, %rax
	movq	%rdi, -72(%rbp)                 # 8-byte Spill
	movq	%rdi, %rcx
	movq	%rcx, -56(%rbp)                 # 8-byte Spill
	leaq	16(%rbp), %rsi
	movq	%rdi, -8(%rbp)
	movq	%rax, -16(%rbp)
	movq	%rdx, -24(%rbp)
	movq	-16(%rbp), %rax
	movq	%rax, -64(%rbp)                 # 8-byte Spill
	leaq	-48(%rbp), %rdi
	callq	_ZN4sycl3_V16detail19type_erased_cgfo_tyC2IRZ6test_0NS0_5queueEEUlRNS0_7handlerEE0_EEOT_
	movq	-72(%rbp), %rdi                 # 8-byte Reload
	movq	-64(%rbp), %rsi                 # 8-byte Reload
	movq	-24(%rbp), %rcx
	leaq	-48(%rbp), %rdx
	callq	_ZNK4sycl3_V15queue17submit_with_eventILb0ENS0_3ext6oneapi12experimental10propertiesINS5_6detail20properties_type_listIJEEEEEEENS0_5eventET0_RKNS0_6detail19type_erased_cgfo_tyERKNSD_13code_locationE
	movq	-56(%rbp), %rax                 # 8-byte Reload
	addq	$80, %rsp
	popq	%rbp
	.cfi_def_cfa %rsp, 8
	retq
.Lfunc_end21:
	.size	_ZN4sycl3_V15queue6submitIZ6test_0S1_EUlRNS0_7handlerEE0_EENSt9enable_ifIXsr3stdE16is_invocable_r_vIvT_S4_EENS0_5eventEE4typeES7_RKNS0_6detail13code_locationE, .Lfunc_end21-_ZN4sycl3_V15queue6submitIZ6test_0S1_EUlRNS0_7handlerEE0_EENSt9enable_ifIXsr3stdE16is_invocable_r_vIvT_S4_EENS0_5eventEE4typeES7_RKNS0_6detail13code_locationE
	.cfi_endproc
                                        # -- End function
	.section	.text._ZN4sycl3_V16kernelD2Ev,"axG",@progbits,_ZN4sycl3_V16kernelD2Ev,comdat
	.weak	_ZN4sycl3_V16kernelD2Ev         # -- Begin function _ZN4sycl3_V16kernelD2Ev
	.p2align	4
	.type	_ZN4sycl3_V16kernelD2Ev,@function
_ZN4sycl3_V16kernelD2Ev:                # @_ZN4sycl3_V16kernelD2Ev
	.cfi_startproc
# %bb.0:                                # %entry
	pushq	%rbp
	.cfi_def_cfa_offset 16
	.cfi_offset %rbp, -16
	movq	%rsp, %rbp
	.cfi_def_cfa_register %rbp
	subq	$16, %rsp
	movq	%rdi, -8(%rbp)
	movq	-8(%rbp), %rdi
	callq	_ZNSt10shared_ptrIN4sycl3_V16detail11kernel_implEED2Ev
	addq	$16, %rsp
	popq	%rbp
	.cfi_def_cfa %rsp, 8
	retq
.Lfunc_end22:
	.size	_ZN4sycl3_V16kernelD2Ev, .Lfunc_end22-_ZN4sycl3_V16kernelD2Ev
	.cfi_endproc
                                        # -- End function
	.section	.text._ZN4sycl3_V19kernel_idD2Ev,"axG",@progbits,_ZN4sycl3_V19kernel_idD2Ev,comdat
	.weak	_ZN4sycl3_V19kernel_idD2Ev      # -- Begin function _ZN4sycl3_V19kernel_idD2Ev
	.p2align	4
	.type	_ZN4sycl3_V19kernel_idD2Ev,@function
_ZN4sycl3_V19kernel_idD2Ev:             # @_ZN4sycl3_V19kernel_idD2Ev
	.cfi_startproc
# %bb.0:                                # %entry
	pushq	%rbp
	.cfi_def_cfa_offset 16
	.cfi_offset %rbp, -16
	movq	%rsp, %rbp
	.cfi_def_cfa_register %rbp
	subq	$16, %rsp
	movq	%rdi, -8(%rbp)
	movq	-8(%rbp), %rdi
	callq	_ZNSt10shared_ptrIN4sycl3_V16detail14kernel_id_implEED2Ev
	addq	$16, %rsp
	popq	%rbp
	.cfi_def_cfa %rsp, 8
	retq
.Lfunc_end23:
	.size	_ZN4sycl3_V19kernel_idD2Ev, .Lfunc_end23-_ZN4sycl3_V19kernel_idD2Ev
	.cfi_endproc
                                        # -- End function
	.section	.text._ZN4sycl3_V113kernel_bundleILNS0_12bundle_stateE2EED2Ev,"axG",@progbits,_ZN4sycl3_V113kernel_bundleILNS0_12bundle_stateE2EED2Ev,comdat
	.weak	_ZN4sycl3_V113kernel_bundleILNS0_12bundle_stateE2EED2Ev # -- Begin function _ZN4sycl3_V113kernel_bundleILNS0_12bundle_stateE2EED2Ev
	.p2align	4
	.type	_ZN4sycl3_V113kernel_bundleILNS0_12bundle_stateE2EED2Ev,@function
_ZN4sycl3_V113kernel_bundleILNS0_12bundle_stateE2EED2Ev: # @_ZN4sycl3_V113kernel_bundleILNS0_12bundle_stateE2EED2Ev
	.cfi_startproc
# %bb.0:                                # %entry
	pushq	%rbp
	.cfi_def_cfa_offset 16
	.cfi_offset %rbp, -16
	movq	%rsp, %rbp
	.cfi_def_cfa_register %rbp
	subq	$16, %rsp
	movq	%rdi, -8(%rbp)
	movq	-8(%rbp), %rdi
	callq	_ZN4sycl3_V16detail19kernel_bundle_plainD2Ev
	addq	$16, %rsp
	popq	%rbp
	.cfi_def_cfa %rsp, 8
	retq
.Lfunc_end24:
	.size	_ZN4sycl3_V113kernel_bundleILNS0_12bundle_stateE2EED2Ev, .Lfunc_end24-_ZN4sycl3_V113kernel_bundleILNS0_12bundle_stateE2EED2Ev
	.cfi_endproc
                                        # -- End function
	.text
	.globl	_Z4ff_1Piii                     # -- Begin function _Z4ff_1Piii
	.p2align	4
	.type	_Z4ff_1Piii,@function
_Z4ff_1Piii:                            # @_Z4ff_1Piii
	.cfi_startproc
# %bb.0:                                # %entry
	pushq	%rbp
	.cfi_def_cfa_offset 16
	.cfi_offset %rbp, -16
	movq	%rsp, %rbp
	.cfi_def_cfa_register %rbp
	subq	$48, %rsp
	movq	%rdi, -8(%rbp)
	movl	%esi, -12(%rbp)
	movl	%edx, -16(%rbp)
	callq	_ZN4sycl3_V13ext6oneapi14this_work_item11get_nd_itemILi1EEENS0_7nd_itemIXT_EEEv
	leaq	-17(%rbp), %rdi
	callq	_ZNK4sycl3_V17nd_itemILi1EE13get_global_idEv
	movq	%rax, -32(%rbp)
	leaq	-32(%rbp), %rdi
	xorl	%esi, %esi
	callq	_ZNK4sycl3_V16detail5arrayILi1EE3getEi
	movslq	-12(%rbp), %rcx
	addq	%rcx, %rax
	movslq	-16(%rbp), %rcx
	addq	%rcx, %rax
                                        # kill: def $eax killed $eax killed $rax
	movl	%eax, -44(%rbp)                 # 4-byte Spill
	movq	-8(%rbp), %rax
	movq	%rax, -40(%rbp)                 # 8-byte Spill
	leaq	-32(%rbp), %rdi
	xorl	%esi, %esi
	callq	_ZNK4sycl3_V16detail5arrayILi1EE3getEi
	movl	-44(%rbp), %edx                 # 4-byte Reload
	movq	%rax, %rcx
	movq	-40(%rbp), %rax                 # 8-byte Reload
	movl	%edx, (%rax,%rcx,4)
	addq	$48, %rsp
	popq	%rbp
	.cfi_def_cfa %rsp, 8
	retq
.Lfunc_end25:
	.size	_Z4ff_1Piii, .Lfunc_end25-_Z4ff_1Piii
	.cfi_endproc
                                        # -- End function
	.section	.text._ZN4sycl3_V13ext6oneapi14this_work_item11get_nd_itemILi1EEENS0_7nd_itemIXT_EEEv,"axG",@progbits,_ZN4sycl3_V13ext6oneapi14this_work_item11get_nd_itemILi1EEENS0_7nd_itemIXT_EEEv,comdat
	.weak	_ZN4sycl3_V13ext6oneapi14this_work_item11get_nd_itemILi1EEENS0_7nd_itemIXT_EEEv # -- Begin function _ZN4sycl3_V13ext6oneapi14this_work_item11get_nd_itemILi1EEENS0_7nd_itemIXT_EEEv
	.p2align	4
	.type	_ZN4sycl3_V13ext6oneapi14this_work_item11get_nd_itemILi1EEENS0_7nd_itemIXT_EEEv,@function
_ZN4sycl3_V13ext6oneapi14this_work_item11get_nd_itemILi1EEENS0_7nd_itemIXT_EEEv: # @_ZN4sycl3_V13ext6oneapi14this_work_item11get_nd_itemILi1EEENS0_7nd_itemIXT_EEEv
.Lfunc_begin6:
	.cfi_startproc
	.cfi_personality 3, __gxx_personality_v0
	.cfi_lsda 3, .Lexception6
# %bb.0:                                # %entry
	pushq	%rbp
	.cfi_def_cfa_offset 16
	.cfi_offset %rbp, -16
	movq	%rsp, %rbp
	.cfi_def_cfa_register %rbp
	subq	$48, %rsp
	movl	$64, %edi
	callq	__cxa_allocate_exception
	movq	%rax, -40(%rbp)                 # 8-byte Spill
	movq	%rax, -48(%rbp)                 # 8-byte Spill
	movl	$12, %edi
	callq	_ZN4sycl3_V115make_error_codeENS0_4errcE
	movq	-40(%rbp), %rdi                 # 8-byte Reload
	movl	%eax, -16(%rbp)
	movq	%rdx, -8(%rbp)
	movl	-16(%rbp), %esi
	movq	-8(%rbp), %rdx
.Ltmp47:
	movl	$.L.str.37, %ecx
	callq	_ZN4sycl3_V19exceptionC1ESt10error_codePKc
.Ltmp48:
	jmp	.LBB26_1
.LBB26_1:                               # %invoke.cont
	movq	-48(%rbp), %rdi                 # 8-byte Reload
	movabsq	$_ZTIN4sycl3_V19exceptionE, %rsi
	movabsq	$_ZN4sycl3_V19exceptionD1Ev, %rdx
	callq	__cxa_throw
.LBB26_2:                               # %lpad
.Ltmp49:
	movq	-48(%rbp), %rdi                 # 8-byte Reload
	movq	%rax, %rcx
	movl	%edx, %eax
	movq	%rcx, -24(%rbp)
	movl	%eax, -28(%rbp)
	callq	__cxa_free_exception
# %bb.3:                                # %eh.resume
	movq	-24(%rbp), %rdi
	callq	_Unwind_Resume@PLT
.Lfunc_end26:
	.size	_ZN4sycl3_V13ext6oneapi14this_work_item11get_nd_itemILi1EEENS0_7nd_itemIXT_EEEv, .Lfunc_end26-_ZN4sycl3_V13ext6oneapi14this_work_item11get_nd_itemILi1EEENS0_7nd_itemIXT_EEEv
	.cfi_endproc
	.section	.gcc_except_table._ZN4sycl3_V13ext6oneapi14this_work_item11get_nd_itemILi1EEENS0_7nd_itemIXT_EEEv,"aG",@progbits,_ZN4sycl3_V13ext6oneapi14this_work_item11get_nd_itemILi1EEENS0_7nd_itemIXT_EEEv,comdat
	.p2align	2, 0x0
GCC_except_table26:
.Lexception6:
	.byte	255                             # @LPStart Encoding = omit
	.byte	255                             # @TType Encoding = omit
	.byte	1                               # Call site Encoding = uleb128
	.uleb128 .Lcst_end6-.Lcst_begin6
.Lcst_begin6:
	.uleb128 .Lfunc_begin6-.Lfunc_begin6    # >> Call Site 1 <<
	.uleb128 .Ltmp47-.Lfunc_begin6          #   Call between .Lfunc_begin6 and .Ltmp47
	.byte	0                               #     has no landing pad
	.byte	0                               #   On action: cleanup
	.uleb128 .Ltmp47-.Lfunc_begin6          # >> Call Site 2 <<
	.uleb128 .Ltmp48-.Ltmp47                #   Call between .Ltmp47 and .Ltmp48
	.uleb128 .Ltmp49-.Lfunc_begin6          #     jumps to .Ltmp49
	.byte	0                               #   On action: cleanup
	.uleb128 .Ltmp48-.Lfunc_begin6          # >> Call Site 3 <<
	.uleb128 .Lfunc_end26-.Ltmp48           #   Call between .Ltmp48 and .Lfunc_end26
	.byte	0                               #     has no landing pad
	.byte	0                               #   On action: cleanup
.Lcst_end6:
	.p2align	2, 0x0
                                        # -- End function
	.section	.text._ZNK4sycl3_V17nd_itemILi1EE13get_global_idEv,"axG",@progbits,_ZNK4sycl3_V17nd_itemILi1EE13get_global_idEv,comdat
	.weak	_ZNK4sycl3_V17nd_itemILi1EE13get_global_idEv # -- Begin function _ZNK4sycl3_V17nd_itemILi1EE13get_global_idEv
	.p2align	4
	.type	_ZNK4sycl3_V17nd_itemILi1EE13get_global_idEv,@function
_ZNK4sycl3_V17nd_itemILi1EE13get_global_idEv: # @_ZNK4sycl3_V17nd_itemILi1EE13get_global_idEv
	.cfi_startproc
# %bb.0:                                # %entry
	pushq	%rbp
	.cfi_def_cfa_offset 16
	.cfi_offset %rbp, -16
	movq	%rsp, %rbp
	.cfi_def_cfa_register %rbp
	subq	$16, %rsp
	movq	%rdi, -16(%rbp)
	leaq	-8(%rbp), %rdi
	xorl	%esi, %esi
	movl	$8, %edx
	callq	memset@PLT
	leaq	-8(%rbp), %rdi
	callq	_ZN4sycl3_V12idILi1EEC2Ev
	movq	-8(%rbp), %rax
	addq	$16, %rsp
	popq	%rbp
	.cfi_def_cfa %rsp, 8
	retq
.Lfunc_end27:
	.size	_ZNK4sycl3_V17nd_itemILi1EE13get_global_idEv, .Lfunc_end27-_ZNK4sycl3_V17nd_itemILi1EE13get_global_idEv
	.cfi_endproc
                                        # -- End function
	.section	.text._ZNK4sycl3_V16detail5arrayILi1EE3getEi,"axG",@progbits,_ZNK4sycl3_V16detail5arrayILi1EE3getEi,comdat
	.weak	_ZNK4sycl3_V16detail5arrayILi1EE3getEi # -- Begin function _ZNK4sycl3_V16detail5arrayILi1EE3getEi
	.p2align	4
	.type	_ZNK4sycl3_V16detail5arrayILi1EE3getEi,@function
_ZNK4sycl3_V16detail5arrayILi1EE3getEi: # @_ZNK4sycl3_V16detail5arrayILi1EE3getEi
.Lfunc_begin7:
	.cfi_startproc
	.cfi_personality 3, __gxx_personality_v0
	.cfi_lsda 3, .Lexception7
# %bb.0:                                # %entry
	pushq	%rbp
	.cfi_def_cfa_offset 16
	.cfi_offset %rbp, -16
	movq	%rsp, %rbp
	.cfi_def_cfa_register %rbp
	subq	$96, %rsp
	movq	%rdi, -56(%rbp)
	movl	%esi, -60(%rbp)
	movq	-56(%rbp), %rcx
	movq	%rcx, -72(%rbp)                 # 8-byte Spill
	movl	-60(%rbp), %eax
	movq	%rcx, -8(%rbp)
	movl	%eax, -12(%rbp)
	cmpl	$1, -12(%rbp)
	jge	.LBB28_2
# %bb.1:                                # %lor.lhs.false.i
	cmpl	$0, -12(%rbp)
	jge	.LBB28_5
.LBB28_2:                               # %if.then.i
	movl	$64, %edi
	callq	__cxa_allocate_exception
	movq	%rax, -80(%rbp)                 # 8-byte Spill
	movq	%rax, -88(%rbp)                 # 8-byte Spill
	movl	$8, %edi
	callq	_ZN4sycl3_V115make_error_codeENS0_4errcE
	movq	-80(%rbp), %rdi                 # 8-byte Reload
	movl	%eax, -32(%rbp)
	movq	%rdx, -24(%rbp)
	movl	-32(%rbp), %esi
	movq	-24(%rbp), %rdx
.Ltmp50:
	movl	$.L.str.31, %ecx
	callq	_ZN4sycl3_V19exceptionC1ESt10error_codePKc
.Ltmp51:
	jmp	.LBB28_3
.LBB28_3:                               # %invoke.cont.i
	movq	-88(%rbp), %rdi                 # 8-byte Reload
	movabsq	$_ZTIN4sycl3_V19exceptionE, %rsi
	movabsq	$_ZN4sycl3_V19exceptionD1Ev, %rdx
	callq	__cxa_throw
.LBB28_4:                               # %lpad.i
.Ltmp52:
	movq	-88(%rbp), %rdi                 # 8-byte Reload
	movq	%rax, %rcx
	movl	%edx, %eax
	movq	%rcx, -40(%rbp)
	movl	%eax, -44(%rbp)
	callq	__cxa_free_exception
	movq	-40(%rbp), %rdi
	callq	_Unwind_Resume@PLT
.LBB28_5:                               # %_ZNK4sycl3_V16detail5arrayILi1EE15check_dimensionEi.exit
	movq	-72(%rbp), %rax                 # 8-byte Reload
	movslq	-60(%rbp), %rcx
	movq	(%rax,%rcx,8), %rax
	addq	$96, %rsp
	popq	%rbp
	.cfi_def_cfa %rsp, 8
	retq
.Lfunc_end28:
	.size	_ZNK4sycl3_V16detail5arrayILi1EE3getEi, .Lfunc_end28-_ZNK4sycl3_V16detail5arrayILi1EE3getEi
	.cfi_endproc
	.section	.gcc_except_table._ZNK4sycl3_V16detail5arrayILi1EE3getEi,"aG",@progbits,_ZNK4sycl3_V16detail5arrayILi1EE3getEi,comdat
	.p2align	2, 0x0
GCC_except_table28:
.Lexception7:
	.byte	255                             # @LPStart Encoding = omit
	.byte	255                             # @TType Encoding = omit
	.byte	1                               # Call site Encoding = uleb128
	.uleb128 .Lcst_end7-.Lcst_begin7
.Lcst_begin7:
	.uleb128 .Lfunc_begin7-.Lfunc_begin7    # >> Call Site 1 <<
	.uleb128 .Ltmp50-.Lfunc_begin7          #   Call between .Lfunc_begin7 and .Ltmp50
	.byte	0                               #     has no landing pad
	.byte	0                               #   On action: cleanup
	.uleb128 .Ltmp50-.Lfunc_begin7          # >> Call Site 2 <<
	.uleb128 .Ltmp51-.Ltmp50                #   Call between .Ltmp50 and .Ltmp51
	.uleb128 .Ltmp52-.Lfunc_begin7          #     jumps to .Ltmp52
	.byte	0                               #   On action: cleanup
	.uleb128 .Ltmp51-.Lfunc_begin7          # >> Call Site 3 <<
	.uleb128 .Lfunc_end28-.Ltmp51           #   Call between .Ltmp51 and .Lfunc_end28
	.byte	0                               #     has no landing pad
	.byte	0                               #   On action: cleanup
.Lcst_end7:
	.p2align	2, 0x0
                                        # -- End function
	.text
	.globl	_Z6test_1N4sycl3_V15queueE      # -- Begin function _Z6test_1N4sycl3_V15queueE
	.p2align	4
	.type	_Z6test_1N4sycl3_V15queueE,@function
_Z6test_1N4sycl3_V15queueE:             # @_Z6test_1N4sycl3_V15queueE
.Lfunc_begin8:
	.cfi_startproc
	.cfi_personality 3, __gxx_personality_v0
	.cfi_lsda 3, .Lexception8
# %bb.0:                                # %entry
	pushq	%rbp
	.cfi_def_cfa_offset 16
	.cfi_offset %rbp, -16
	movq	%rsp, %rbp
	.cfi_def_cfa_register %rbp
	subq	$688, %rsp                      # imm = 0x2B0
	movq	%rdi, -544(%rbp)                # 8-byte Spill
	movq	%rdi, -8(%rbp)
	movl	$10, -12(%rbp)
	leaq	-56(%rbp), %rdi
	movq	%rdi, -536(%rbp)                # 8-byte Spill
	callq	_ZN4sycl3_V113property_listC2IJEvEEDpT_
	movl	$.L.str.9, %esi
	movl	$.L.str.15, %edx
	leaq	-88(%rbp), %rdi
	movq	%rdi, -528(%rbp)                # 8-byte Spill
	movl	$107, %ecx
	movl	$17, %r8d
	callq	_ZN4sycl3_V16detail13code_location7currentEPKcS4_mm
	movq	-544(%rbp), %rsi                # 8-byte Reload
	movq	-536(%rbp), %rdx                # 8-byte Reload
	movq	-528(%rbp), %rcx                # 8-byte Reload
.Ltmp53:
	movl	$10, %edi
	callq	_ZN4sycl3_V113malloc_sharedIiEEPT_mRKNS0_5queueERKNS0_13property_listERKNS0_6detail13code_locationE
.Ltmp54:
	movq	%rax, -520(%rbp)                # 8-byte Spill
	jmp	.LBB29_1
.LBB29_1:                               # %invoke.cont
	leaq	-56(%rbp), %rdi
	callq	_ZN4sycl3_V113property_listD2Ev
	movq	-520(%rbp), %rax                # 8-byte Reload
	movq	%rax, -24(%rbp)
	movl	$3, -104(%rbp)
	leaq	-144(%rbp), %rdi
	movabsq	$.L__const._Z6test_1N4sycl3_V15queueE.Result, %rsi
	movl	$40, %edx
	callq	memcpy@PLT
	leaq	-176(%rbp), %rdi
	movl	$10, %esi
	callq	_ZN4sycl3_V15rangeILi1EEC2ILi1EEENSt9enable_ifIXeqT_Li1EEmE4typeE
	leaq	-184(%rbp), %rdi
	movl	$1, %esi
	callq	_ZN4sycl3_V15rangeILi1EEC2ILi1EEENSt9enable_ifIXeqT_Li1EEmE4typeE
	movq	-176(%rbp), %rsi
	movq	-184(%rbp), %rdx
	leaq	-168(%rbp), %rdi
	callq	_ZN4sycl3_V18nd_rangeILi1EEC2ENS0_5rangeILi1EEES4_
	movq	-24(%rbp), %rdi
	xorl	%esi, %esi
	movl	$40, %edx
	callq	memset@PLT
	leaq	-168(%rbp), %rax
	movq	%rax, -224(%rbp)
	leaq	-24(%rbp), %rax
	movq	%rax, -216(%rbp)
	leaq	-104(%rbp), %rax
	movq	%rax, -208(%rbp)
	leaq	-256(%rbp), %rdi
	movabsq	$.L.str.9, %rsi
	movabsq	$.L.str.15, %rdx
	movl	$113, %ecx
	movl	$9, %r8d
	callq	_ZN4sycl3_V16detail13code_location7currentEPKcS4_mm
	movq	-544(%rbp), %rsi                # 8-byte Reload
	leaq	-200(%rbp), %rdi
	leaq	-224(%rbp), %rax
	leaq	-256(%rbp), %rdx
	movq	(%rax), %rcx
	movq	%rcx, (%rsp)
	movq	8(%rax), %rcx
	movq	%rcx, 8(%rsp)
	movq	16(%rax), %rax
	movq	%rax, 16(%rsp)
	callq	_ZN4sycl3_V15queue6submitIZ6test_1S1_EUlRNS0_7handlerEE_EENSt9enable_ifIXsr3stdE16is_invocable_r_vIvT_S4_EENS0_5eventEE4typeES7_RKNS0_6detail13code_locationE
	leaq	-200(%rbp), %rdi
	callq	_ZN4sycl3_V15eventD2Ev
	leaq	-288(%rbp), %rdi
	movabsq	$.L.str.9, %rsi
	movabsq	$.L.str.15, %rdx
	movl	$119, %ecx
	movl	$9, %r8d
	callq	_ZN4sycl3_V16detail13code_location7currentEPKcS4_mm
	movq	-544(%rbp), %rdi                # 8-byte Reload
	leaq	-288(%rbp), %rsi
	callq	_ZN4sycl3_V15queue4waitERKNS0_6detail13code_locationE
	movq	-24(%rbp), %rdi
	leaq	-144(%rbp), %rdx
	movl	$10, %esi
	callq	_Z8checkUSMPiiS_
	andb	$1, %al
	movb	%al, -289(%rbp)
	movabsq	$_ZSt4cout, %rdi
	movabsq	$.L.str.16, %rsi
	callq	_ZStlsISt11char_traitsIcEERSt13basic_ostreamIcT_ES5_PKc
	movq	%rax, -552(%rbp)                # 8-byte Spill
	testb	$1, -289(%rbp)
	je	.LBB29_3
# %bb.2:                                # %cond.true
	movabsq	$.L.str.12, %rax
	movq	%rax, -560(%rbp)                # 8-byte Spill
	jmp	.LBB29_4
.LBB29_3:                               # %cond.false
	movabsq	$.L.str.13, %rax
	movq	%rax, -560(%rbp)                # 8-byte Spill
	jmp	.LBB29_4
.LBB29_4:                               # %cond.end
	movq	-552(%rbp), %rdi                # 8-byte Reload
	movq	-560(%rbp), %rsi                # 8-byte Reload
	callq	_ZStlsISt11char_traitsIcEERSt13basic_ostreamIcT_ES5_PKc
	movq	%rax, %rdi
	movl	$_ZSt4endlIcSt11char_traitsIcEERSt13basic_ostreamIT_T0_ES6_, %esi
	callq	_ZNSolsEPFRSoS_E
	movq	-544(%rbp), %rsi                # 8-byte Reload
	movb	$0, -290(%rbp)
	leaq	-328(%rbp), %rdi
	movq	%rdi, -568(%rbp)                # 8-byte Spill
	callq	_ZNK4sycl3_V15queue11get_contextEv
	movq	-568(%rbp), %rsi                # 8-byte Reload
.Ltmp56:
	leaq	-312(%rbp), %rdi
	callq	_ZN4sycl3_V117get_kernel_bundleILNS0_12bundle_stateE2EEENS0_13kernel_bundleIXT_EEERKNS0_7contextE
.Ltmp57:
	jmp	.LBB29_5
.LBB29_5:                               # %invoke.cont19
	leaq	-328(%rbp), %rdi
	callq	_ZN4sycl3_V17contextD2Ev
.Ltmp59:
	leaq	-344(%rbp), %rdi
	callq	_ZN4sycl3_V13ext6oneapi12experimental13get_kernel_idITnPDaXadL_Z4ff_1PiiiEEEENSt9enable_ifIX11is_kernel_vIXT_EEENS0_9kernel_idEE4typeEv
.Ltmp60:
	jmp	.LBB29_6
.LBB29_6:                               # %invoke.cont21
.Ltmp62:
	leaq	-360(%rbp), %rdi
	leaq	-312(%rbp), %rsi
	leaq	-344(%rbp), %rdx
	callq	_ZNK4sycl3_V113kernel_bundleILNS0_12bundle_stateE2EE10get_kernelILS2_2EvEENS0_6kernelERKNS0_9kernel_idE
.Ltmp63:
	jmp	.LBB29_7
.LBB29_7:                               # %invoke.cont23
	movq	-24(%rbp), %rax
	xorps	%xmm0, %xmm0
	movups	%xmm0, 16(%rax)
	movups	%xmm0, (%rax)
	movq	$0, 32(%rax)
	leaq	-24(%rbp), %rax
	movq	%rax, -416(%rbp)
	leaq	-104(%rbp), %rax
	movq	%rax, -408(%rbp)
	leaq	-12(%rbp), %rax
	movq	%rax, -400(%rbp)
	leaq	-168(%rbp), %rax
	movq	%rax, -392(%rbp)
	leaq	-360(%rbp), %rax
	movq	%rax, -384(%rbp)
	movl	$.L.str.9, %esi
	movl	$.L.str.15, %edx
	leaq	-448(%rbp), %rdi
	movq	%rdi, -576(%rbp)                # 8-byte Spill
	movl	$131, %ecx
	movl	$9, %r8d
	callq	_ZN4sycl3_V16detail13code_location7currentEPKcS4_mm
	movq	-544(%rbp), %rsi                # 8-byte Reload
	movq	-576(%rbp), %rdx                # 8-byte Reload
.Ltmp65:
	movq	-384(%rbp), %rcx
	movq	%rsp, %rax
	movq	%rcx, 32(%rax)
	movups	-416(%rbp), %xmm0
	movups	-400(%rbp), %xmm1
	movups	%xmm1, 16(%rax)
	movups	%xmm0, (%rax)
	leaq	-376(%rbp), %rdi
	callq	_ZN4sycl3_V15queue6submitIZ6test_1S1_EUlRNS0_7handlerEE0_EENSt9enable_ifIXsr3stdE16is_invocable_r_vIvT_S4_EENS0_5eventEE4typeES7_RKNS0_6detail13code_locationE
.Ltmp66:
	jmp	.LBB29_8
.LBB29_8:                               # %invoke.cont33
	leaq	-376(%rbp), %rdi
	callq	_ZN4sycl3_V15eventD2Ev
	movl	$.L.str.9, %esi
	movl	$.L.str.15, %edx
	leaq	-480(%rbp), %rdi
	movq	%rdi, -584(%rbp)                # 8-byte Spill
	movl	$137, %ecx
	movl	$9, %r8d
	callq	_ZN4sycl3_V16detail13code_location7currentEPKcS4_mm
	movq	-544(%rbp), %rdi                # 8-byte Reload
	movq	-584(%rbp), %rsi                # 8-byte Reload
.Ltmp67:
	callq	_ZN4sycl3_V15queue4waitERKNS0_6detail13code_locationE
.Ltmp68:
	jmp	.LBB29_9
.LBB29_9:                               # %invoke.cont35
	movq	-24(%rbp), %rdi
.Ltmp69:
	movl	$10, %esi
	leaq	-144(%rbp), %rdx
	callq	_Z8checkUSMPiiS_
.Ltmp70:
	movb	%al, -585(%rbp)                 # 1-byte Spill
	jmp	.LBB29_10
.LBB29_10:                              # %invoke.cont37
	movb	-585(%rbp), %al                 # 1-byte Reload
	andb	$1, %al
	movb	%al, -290(%rbp)
.Ltmp71:
	movl	$_ZSt4cout, %edi
	movl	$.L.str.17, %esi
	callq	_ZStlsISt11char_traitsIcEERSt13basic_ostreamIcT_ES5_PKc
.Ltmp72:
	movq	%rax, -600(%rbp)                # 8-byte Spill
	jmp	.LBB29_11
.LBB29_11:                              # %invoke.cont40
	testb	$1, -290(%rbp)
	je	.LBB29_13
# %bb.12:                               # %cond.true43
	movabsq	$.L.str.12, %rax
	movq	%rax, -608(%rbp)                # 8-byte Spill
	jmp	.LBB29_14
.LBB29_13:                              # %cond.false44
	movabsq	$.L.str.13, %rax
	movq	%rax, -608(%rbp)                # 8-byte Spill
	jmp	.LBB29_14
.LBB29_14:                              # %cond.end45
.Ltmp73:
	movq	-600(%rbp), %rdi                # 8-byte Reload
	movq	-608(%rbp), %rsi                # 8-byte Reload
	callq	_ZStlsISt11char_traitsIcEERSt13basic_ostreamIcT_ES5_PKc
.Ltmp74:
	movq	%rax, -616(%rbp)                # 8-byte Spill
	jmp	.LBB29_15
.LBB29_15:                              # %invoke.cont48
.Ltmp75:
	movq	-616(%rbp), %rdi                # 8-byte Reload
	movl	$_ZSt4endlIcSt11char_traitsIcEERSt13basic_ostreamIT_T0_ES6_, %esi
	callq	_ZNSolsEPFRSoS_E
.Ltmp76:
	jmp	.LBB29_16
.LBB29_16:                              # %invoke.cont50
	movq	-24(%rbp), %rax
	movq	%rax, -632(%rbp)                # 8-byte Spill
	movl	$.L.str.9, %esi
	movl	$.L.str.15, %edx
	leaq	-512(%rbp), %rdi
	movq	%rdi, -624(%rbp)                # 8-byte Spill
	movl	$142, %ecx
	movl	$3, %r8d
	callq	_ZN4sycl3_V16detail13code_location7currentEPKcS4_mm
	movq	-632(%rbp), %rdi                # 8-byte Reload
	movq	-544(%rbp), %rsi                # 8-byte Reload
	movq	-624(%rbp), %rdx                # 8-byte Reload
.Ltmp77:
	callq	_ZN4sycl3_V14freeEPvRKNS0_5queueERKNS0_6detail13code_locationE
.Ltmp78:
	jmp	.LBB29_17
.LBB29_17:                              # %invoke.cont53
	xorl	%eax, %eax
                                        # kill: def $al killed $al killed $eax
	testb	$1, -289(%rbp)
	movb	%al, -633(%rbp)                 # 1-byte Spill
	je	.LBB29_19
# %bb.18:                               # %land.rhs
	movb	-290(%rbp), %al
	movb	%al, -633(%rbp)                 # 1-byte Spill
.LBB29_19:                              # %land.end
	movb	-633(%rbp), %al                 # 1-byte Reload
	movb	%al, -634(%rbp)                 # 1-byte Spill
	leaq	-360(%rbp), %rdi
	callq	_ZN4sycl3_V16kernelD2Ev
	leaq	-344(%rbp), %rdi
	callq	_ZN4sycl3_V19kernel_idD2Ev
	leaq	-312(%rbp), %rdi
	callq	_ZN4sycl3_V113kernel_bundleILNS0_12bundle_stateE2EED2Ev
	movb	-634(%rbp), %al                 # 1-byte Reload
	andb	$1, %al
	addq	$688, %rsp                      # imm = 0x2B0
	popq	%rbp
	.cfi_def_cfa %rsp, 8
	retq
.LBB29_20:                              # %lpad
	.cfi_def_cfa %rbp, 16
.Ltmp55:
	movq	%rax, %rcx
	movl	%edx, %eax
	movq	%rcx, -96(%rbp)
	movl	%eax, -100(%rbp)
	leaq	-56(%rbp), %rdi
	callq	_ZN4sycl3_V113property_listD2Ev
	jmp	.LBB29_27
.LBB29_21:                              # %lpad18
.Ltmp58:
	movq	%rax, %rcx
	movl	%edx, %eax
	movq	%rcx, -96(%rbp)
	movl	%eax, -100(%rbp)
	leaq	-328(%rbp), %rdi
	callq	_ZN4sycl3_V17contextD2Ev
	jmp	.LBB29_27
.LBB29_22:                              # %lpad20
.Ltmp61:
	movq	%rax, %rcx
	movl	%edx, %eax
	movq	%rcx, -96(%rbp)
	movl	%eax, -100(%rbp)
	jmp	.LBB29_26
.LBB29_23:                              # %lpad22
.Ltmp64:
	movq	%rax, %rcx
	movl	%edx, %eax
	movq	%rcx, -96(%rbp)
	movl	%eax, -100(%rbp)
	jmp	.LBB29_25
.LBB29_24:                              # %lpad32
.Ltmp79:
	movq	%rax, %rcx
	movl	%edx, %eax
	movq	%rcx, -96(%rbp)
	movl	%eax, -100(%rbp)
	leaq	-360(%rbp), %rdi
	callq	_ZN4sycl3_V16kernelD2Ev
.LBB29_25:                              # %ehcleanup
	leaq	-344(%rbp), %rdi
	callq	_ZN4sycl3_V19kernel_idD2Ev
.LBB29_26:                              # %ehcleanup56
	leaq	-312(%rbp), %rdi
	callq	_ZN4sycl3_V113kernel_bundleILNS0_12bundle_stateE2EED2Ev
.LBB29_27:                              # %eh.resume
	movq	-96(%rbp), %rdi
	callq	_Unwind_Resume@PLT
.Lfunc_end29:
	.size	_Z6test_1N4sycl3_V15queueE, .Lfunc_end29-_Z6test_1N4sycl3_V15queueE
	.cfi_endproc
	.section	.gcc_except_table,"a",@progbits
	.p2align	2, 0x0
GCC_except_table29:
.Lexception8:
	.byte	255                             # @LPStart Encoding = omit
	.byte	255                             # @TType Encoding = omit
	.byte	1                               # Call site Encoding = uleb128
	.uleb128 .Lcst_end8-.Lcst_begin8
.Lcst_begin8:
	.uleb128 .Lfunc_begin8-.Lfunc_begin8    # >> Call Site 1 <<
	.uleb128 .Ltmp53-.Lfunc_begin8          #   Call between .Lfunc_begin8 and .Ltmp53
	.byte	0                               #     has no landing pad
	.byte	0                               #   On action: cleanup
	.uleb128 .Ltmp53-.Lfunc_begin8          # >> Call Site 2 <<
	.uleb128 .Ltmp54-.Ltmp53                #   Call between .Ltmp53 and .Ltmp54
	.uleb128 .Ltmp55-.Lfunc_begin8          #     jumps to .Ltmp55
	.byte	0                               #   On action: cleanup
	.uleb128 .Ltmp54-.Lfunc_begin8          # >> Call Site 3 <<
	.uleb128 .Ltmp56-.Ltmp54                #   Call between .Ltmp54 and .Ltmp56
	.byte	0                               #     has no landing pad
	.byte	0                               #   On action: cleanup
	.uleb128 .Ltmp56-.Lfunc_begin8          # >> Call Site 4 <<
	.uleb128 .Ltmp57-.Ltmp56                #   Call between .Ltmp56 and .Ltmp57
	.uleb128 .Ltmp58-.Lfunc_begin8          #     jumps to .Ltmp58
	.byte	0                               #   On action: cleanup
	.uleb128 .Ltmp59-.Lfunc_begin8          # >> Call Site 5 <<
	.uleb128 .Ltmp60-.Ltmp59                #   Call between .Ltmp59 and .Ltmp60
	.uleb128 .Ltmp61-.Lfunc_begin8          #     jumps to .Ltmp61
	.byte	0                               #   On action: cleanup
	.uleb128 .Ltmp62-.Lfunc_begin8          # >> Call Site 6 <<
	.uleb128 .Ltmp63-.Ltmp62                #   Call between .Ltmp62 and .Ltmp63
	.uleb128 .Ltmp64-.Lfunc_begin8          #     jumps to .Ltmp64
	.byte	0                               #   On action: cleanup
	.uleb128 .Ltmp65-.Lfunc_begin8          # >> Call Site 7 <<
	.uleb128 .Ltmp78-.Ltmp65                #   Call between .Ltmp65 and .Ltmp78
	.uleb128 .Ltmp79-.Lfunc_begin8          #     jumps to .Ltmp79
	.byte	0                               #   On action: cleanup
	.uleb128 .Ltmp78-.Lfunc_begin8          # >> Call Site 8 <<
	.uleb128 .Lfunc_end29-.Ltmp78           #   Call between .Ltmp78 and .Lfunc_end29
	.byte	0                               #     has no landing pad
	.byte	0                               #   On action: cleanup
.Lcst_end8:
	.p2align	2, 0x0
                                        # -- End function
	.section	.text._ZN4sycl3_V18nd_rangeILi1EEC2ENS0_5rangeILi1EEES4_,"axG",@progbits,_ZN4sycl3_V18nd_rangeILi1EEC2ENS0_5rangeILi1EEES4_,comdat
	.weak	_ZN4sycl3_V18nd_rangeILi1EEC2ENS0_5rangeILi1EEES4_ # -- Begin function _ZN4sycl3_V18nd_rangeILi1EEC2ENS0_5rangeILi1EEES4_
	.p2align	4
	.type	_ZN4sycl3_V18nd_rangeILi1EEC2ENS0_5rangeILi1EEES4_,@function
_ZN4sycl3_V18nd_rangeILi1EEC2ENS0_5rangeILi1EEES4_: # @_ZN4sycl3_V18nd_rangeILi1EEC2ENS0_5rangeILi1EEES4_
	.cfi_startproc
# %bb.0:                                # %entry
	pushq	%rbp
	.cfi_def_cfa_offset 16
	.cfi_offset %rbp, -16
	movq	%rsp, %rbp
	.cfi_def_cfa_register %rbp
	subq	$32, %rsp
	movq	%rsi, -8(%rbp)
	movq	%rdx, -16(%rbp)
	movq	%rdi, -24(%rbp)
	movq	-24(%rbp), %rdi
	movq	-8(%rbp), %rax
	movq	%rax, (%rdi)
	movq	-16(%rbp), %rax
	movq	%rax, 8(%rdi)
	addq	$16, %rdi
	movq	%rdi, -32(%rbp)                 # 8-byte Spill
	xorl	%esi, %esi
	movl	$8, %edx
	callq	memset@PLT
	movq	-32(%rbp), %rdi                 # 8-byte Reload
	callq	_ZN4sycl3_V12idILi1EEC2Ev
	addq	$32, %rsp
	popq	%rbp
	.cfi_def_cfa %rsp, 8
	retq
.Lfunc_end30:
	.size	_ZN4sycl3_V18nd_rangeILi1EEC2ENS0_5rangeILi1EEES4_, .Lfunc_end30-_ZN4sycl3_V18nd_rangeILi1EEC2ENS0_5rangeILi1EEES4_
	.cfi_endproc
                                        # -- End function
	.text
	.p2align	4                               # -- Begin function _ZN4sycl3_V15queue6submitIZ6test_1S1_EUlRNS0_7handlerEE_EENSt9enable_ifIXsr3stdE16is_invocable_r_vIvT_S4_EENS0_5eventEE4typeES7_RKNS0_6detail13code_locationE
	.type	_ZN4sycl3_V15queue6submitIZ6test_1S1_EUlRNS0_7handlerEE_EENSt9enable_ifIXsr3stdE16is_invocable_r_vIvT_S4_EENS0_5eventEE4typeES7_RKNS0_6detail13code_locationE,@function
_ZN4sycl3_V15queue6submitIZ6test_1S1_EUlRNS0_7handlerEE_EENSt9enable_ifIXsr3stdE16is_invocable_r_vIvT_S4_EENS0_5eventEE4typeES7_RKNS0_6detail13code_locationE: # @_ZN4sycl3_V15queue6submitIZ6test_1S1_EUlRNS0_7handlerEE_EENSt9enable_ifIXsr3stdE16is_invocable_r_vIvT_S4_EENS0_5eventEE4typeES7_RKNS0_6detail13code_locationE
	.cfi_startproc
# %bb.0:                                # %entry
	pushq	%rbp
	.cfi_def_cfa_offset 16
	.cfi_offset %rbp, -16
	movq	%rsp, %rbp
	.cfi_def_cfa_register %rbp
	subq	$80, %rsp
	movq	%rsi, %rax
	movq	%rdi, -72(%rbp)                 # 8-byte Spill
	movq	%rdi, %rcx
	movq	%rcx, -56(%rbp)                 # 8-byte Spill
	leaq	16(%rbp), %rsi
	movq	%rdi, -8(%rbp)
	movq	%rax, -16(%rbp)
	movq	%rdx, -24(%rbp)
	movq	-16(%rbp), %rax
	movq	%rax, -64(%rbp)                 # 8-byte Spill
	leaq	-48(%rbp), %rdi
	callq	_ZN4sycl3_V16detail19type_erased_cgfo_tyC2IRZ6test_1NS0_5queueEEUlRNS0_7handlerEE_EEOT_
	movq	-72(%rbp), %rdi                 # 8-byte Reload
	movq	-64(%rbp), %rsi                 # 8-byte Reload
	movq	-24(%rbp), %rcx
	leaq	-48(%rbp), %rdx
	callq	_ZNK4sycl3_V15queue17submit_with_eventILb0ENS0_3ext6oneapi12experimental10propertiesINS5_6detail20properties_type_listIJEEEEEEENS0_5eventET0_RKNS0_6detail19type_erased_cgfo_tyERKNSD_13code_locationE
	movq	-56(%rbp), %rax                 # 8-byte Reload
	addq	$80, %rsp
	popq	%rbp
	.cfi_def_cfa %rsp, 8
	retq
.Lfunc_end31:
	.size	_ZN4sycl3_V15queue6submitIZ6test_1S1_EUlRNS0_7handlerEE_EENSt9enable_ifIXsr3stdE16is_invocable_r_vIvT_S4_EENS0_5eventEE4typeES7_RKNS0_6detail13code_locationE, .Lfunc_end31-_ZN4sycl3_V15queue6submitIZ6test_1S1_EUlRNS0_7handlerEE_EENSt9enable_ifIXsr3stdE16is_invocable_r_vIvT_S4_EENS0_5eventEE4typeES7_RKNS0_6detail13code_locationE
	.cfi_endproc
                                        # -- End function
	.p2align	4                               # -- Begin function _ZN4sycl3_V15queue6submitIZ6test_1S1_EUlRNS0_7handlerEE0_EENSt9enable_ifIXsr3stdE16is_invocable_r_vIvT_S4_EENS0_5eventEE4typeES7_RKNS0_6detail13code_locationE
	.type	_ZN4sycl3_V15queue6submitIZ6test_1S1_EUlRNS0_7handlerEE0_EENSt9enable_ifIXsr3stdE16is_invocable_r_vIvT_S4_EENS0_5eventEE4typeES7_RKNS0_6detail13code_locationE,@function
_ZN4sycl3_V15queue6submitIZ6test_1S1_EUlRNS0_7handlerEE0_EENSt9enable_ifIXsr3stdE16is_invocable_r_vIvT_S4_EENS0_5eventEE4typeES7_RKNS0_6detail13code_locationE: # @_ZN4sycl3_V15queue6submitIZ6test_1S1_EUlRNS0_7handlerEE0_EENSt9enable_ifIXsr3stdE16is_invocable_r_vIvT_S4_EENS0_5eventEE4typeES7_RKNS0_6detail13code_locationE
	.cfi_startproc
# %bb.0:                                # %entry
	pushq	%rbp
	.cfi_def_cfa_offset 16
	.cfi_offset %rbp, -16
	movq	%rsp, %rbp
	.cfi_def_cfa_register %rbp
	subq	$80, %rsp
	movq	%rsi, %rax
	movq	%rdi, -72(%rbp)                 # 8-byte Spill
	movq	%rdi, %rcx
	movq	%rcx, -56(%rbp)                 # 8-byte Spill
	leaq	16(%rbp), %rsi
	movq	%rdi, -8(%rbp)
	movq	%rax, -16(%rbp)
	movq	%rdx, -24(%rbp)
	movq	-16(%rbp), %rax
	movq	%rax, -64(%rbp)                 # 8-byte Spill
	leaq	-48(%rbp), %rdi
	callq	_ZN4sycl3_V16detail19type_erased_cgfo_tyC2IRZ6test_1NS0_5queueEEUlRNS0_7handlerEE0_EEOT_
	movq	-72(%rbp), %rdi                 # 8-byte Reload
	movq	-64(%rbp), %rsi                 # 8-byte Reload
	movq	-24(%rbp), %rcx
	leaq	-48(%rbp), %rdx
	callq	_ZNK4sycl3_V15queue17submit_with_eventILb0ENS0_3ext6oneapi12experimental10propertiesINS5_6detail20properties_type_listIJEEEEEEENS0_5eventET0_RKNS0_6detail19type_erased_cgfo_tyERKNSD_13code_locationE
	movq	-56(%rbp), %rax                 # 8-byte Reload
	addq	$80, %rsp
	popq	%rbp
	.cfi_def_cfa %rsp, 8
	retq
.Lfunc_end32:
	.size	_ZN4sycl3_V15queue6submitIZ6test_1S1_EUlRNS0_7handlerEE0_EENSt9enable_ifIXsr3stdE16is_invocable_r_vIvT_S4_EENS0_5eventEE4typeES7_RKNS0_6detail13code_locationE, .Lfunc_end32-_ZN4sycl3_V15queue6submitIZ6test_1S1_EUlRNS0_7handlerEE0_EENSt9enable_ifIXsr3stdE16is_invocable_r_vIvT_S4_EENS0_5eventEE4typeES7_RKNS0_6detail13code_locationE
	.cfi_endproc
                                        # -- End function
	.globl	_Z4ff_1Pii                      # -- Begin function _Z4ff_1Pii
	.p2align	4
	.type	_Z4ff_1Pii,@function
_Z4ff_1Pii:                             # @_Z4ff_1Pii
	.cfi_startproc
# %bb.0:                                # %entry
	pushq	%rbp
	.cfi_def_cfa_offset 16
	.cfi_offset %rbp, -16
	movq	%rsp, %rbp
	.cfi_def_cfa_register %rbp
	subq	$96, %rsp
	movq	%rdi, -8(%rbp)
	movl	%esi, -12(%rbp)
	movq	-8(%rbp), %rax
	movq	%rax, -24(%rbp)
	callq	_ZN4sycl3_V13ext6oneapi14this_work_item11get_nd_itemILi2EEENS0_7nd_itemIXT_EEEv
	leaq	-25(%rbp), %rdi
	callq	_ZNK4sycl3_V17nd_itemILi2EE13get_global_idEv
	movq	%rax, -48(%rbp)
	movq	%rdx, -40(%rbp)
	leaq	-25(%rbp), %rdi
	callq	_ZNK4sycl3_V17nd_itemILi2EE12get_local_idEv
	movq	%rax, -64(%rbp)
	movq	%rdx, -56(%rbp)
	leaq	-64(%rbp), %rdi
	xorl	%esi, %esi
	callq	_ZNK4sycl3_V16detail5arrayILi2EE3getEi
	movq	%rax, -96(%rbp)                 # 8-byte Spill
	leaq	-64(%rbp), %rdi
	movl	$1, %esi
	callq	_ZNK4sycl3_V16detail5arrayILi2EE3getEi
	movq	%rax, %rcx
	movq	-96(%rbp), %rax                 # 8-byte Reload
	addq	%rcx, %rax
	movslq	-12(%rbp), %rcx
	addq	%rcx, %rax
                                        # kill: def $eax killed $eax killed $rax
	movl	%eax, -76(%rbp)                 # 4-byte Spill
	movq	-24(%rbp), %rax
	movq	%rax, -88(%rbp)                 # 8-byte Spill
	leaq	-48(%rbp), %rdi
	xorl	%esi, %esi
	callq	_ZNK4sycl3_V16detail5arrayILi2EE3getEi
	movq	%rax, %rcx
	movq	-88(%rbp), %rax                 # 8-byte Reload
	shlq	$4, %rcx
	addq	%rcx, %rax
	movq	%rax, -72(%rbp)                 # 8-byte Spill
	leaq	-48(%rbp), %rdi
	movl	$1, %esi
	callq	_ZNK4sycl3_V16detail5arrayILi2EE3getEi
	movl	-76(%rbp), %edx                 # 4-byte Reload
	movq	%rax, %rcx
	movq	-72(%rbp), %rax                 # 8-byte Reload
	movl	%edx, (%rax,%rcx,4)
	addq	$96, %rsp
	popq	%rbp
	.cfi_def_cfa %rsp, 8
	retq
.Lfunc_end33:
	.size	_Z4ff_1Pii, .Lfunc_end33-_Z4ff_1Pii
	.cfi_endproc
                                        # -- End function
	.section	.text._ZN4sycl3_V13ext6oneapi14this_work_item11get_nd_itemILi2EEENS0_7nd_itemIXT_EEEv,"axG",@progbits,_ZN4sycl3_V13ext6oneapi14this_work_item11get_nd_itemILi2EEENS0_7nd_itemIXT_EEEv,comdat
	.weak	_ZN4sycl3_V13ext6oneapi14this_work_item11get_nd_itemILi2EEENS0_7nd_itemIXT_EEEv # -- Begin function _ZN4sycl3_V13ext6oneapi14this_work_item11get_nd_itemILi2EEENS0_7nd_itemIXT_EEEv
	.p2align	4
	.type	_ZN4sycl3_V13ext6oneapi14this_work_item11get_nd_itemILi2EEENS0_7nd_itemIXT_EEEv,@function
_ZN4sycl3_V13ext6oneapi14this_work_item11get_nd_itemILi2EEENS0_7nd_itemIXT_EEEv: # @_ZN4sycl3_V13ext6oneapi14this_work_item11get_nd_itemILi2EEENS0_7nd_itemIXT_EEEv
.Lfunc_begin9:
	.cfi_startproc
	.cfi_personality 3, __gxx_personality_v0
	.cfi_lsda 3, .Lexception9
# %bb.0:                                # %entry
	pushq	%rbp
	.cfi_def_cfa_offset 16
	.cfi_offset %rbp, -16
	movq	%rsp, %rbp
	.cfi_def_cfa_register %rbp
	subq	$48, %rsp
	movl	$64, %edi
	callq	__cxa_allocate_exception
	movq	%rax, -40(%rbp)                 # 8-byte Spill
	movq	%rax, -48(%rbp)                 # 8-byte Spill
	movl	$12, %edi
	callq	_ZN4sycl3_V115make_error_codeENS0_4errcE
	movq	-40(%rbp), %rdi                 # 8-byte Reload
	movl	%eax, -16(%rbp)
	movq	%rdx, -8(%rbp)
	movl	-16(%rbp), %esi
	movq	-8(%rbp), %rdx
.Ltmp80:
	movl	$.L.str.37, %ecx
	callq	_ZN4sycl3_V19exceptionC1ESt10error_codePKc
.Ltmp81:
	jmp	.LBB34_1
.LBB34_1:                               # %invoke.cont
	movq	-48(%rbp), %rdi                 # 8-byte Reload
	movabsq	$_ZTIN4sycl3_V19exceptionE, %rsi
	movabsq	$_ZN4sycl3_V19exceptionD1Ev, %rdx
	callq	__cxa_throw
.LBB34_2:                               # %lpad
.Ltmp82:
	movq	-48(%rbp), %rdi                 # 8-byte Reload
	movq	%rax, %rcx
	movl	%edx, %eax
	movq	%rcx, -24(%rbp)
	movl	%eax, -28(%rbp)
	callq	__cxa_free_exception
# %bb.3:                                # %eh.resume
	movq	-24(%rbp), %rdi
	callq	_Unwind_Resume@PLT
.Lfunc_end34:
	.size	_ZN4sycl3_V13ext6oneapi14this_work_item11get_nd_itemILi2EEENS0_7nd_itemIXT_EEEv, .Lfunc_end34-_ZN4sycl3_V13ext6oneapi14this_work_item11get_nd_itemILi2EEENS0_7nd_itemIXT_EEEv
	.cfi_endproc
	.section	.gcc_except_table._ZN4sycl3_V13ext6oneapi14this_work_item11get_nd_itemILi2EEENS0_7nd_itemIXT_EEEv,"aG",@progbits,_ZN4sycl3_V13ext6oneapi14this_work_item11get_nd_itemILi2EEENS0_7nd_itemIXT_EEEv,comdat
	.p2align	2, 0x0
GCC_except_table34:
.Lexception9:
	.byte	255                             # @LPStart Encoding = omit
	.byte	255                             # @TType Encoding = omit
	.byte	1                               # Call site Encoding = uleb128
	.uleb128 .Lcst_end9-.Lcst_begin9
.Lcst_begin9:
	.uleb128 .Lfunc_begin9-.Lfunc_begin9    # >> Call Site 1 <<
	.uleb128 .Ltmp80-.Lfunc_begin9          #   Call between .Lfunc_begin9 and .Ltmp80
	.byte	0                               #     has no landing pad
	.byte	0                               #   On action: cleanup
	.uleb128 .Ltmp80-.Lfunc_begin9          # >> Call Site 2 <<
	.uleb128 .Ltmp81-.Ltmp80                #   Call between .Ltmp80 and .Ltmp81
	.uleb128 .Ltmp82-.Lfunc_begin9          #     jumps to .Ltmp82
	.byte	0                               #   On action: cleanup
	.uleb128 .Ltmp81-.Lfunc_begin9          # >> Call Site 3 <<
	.uleb128 .Lfunc_end34-.Ltmp81           #   Call between .Ltmp81 and .Lfunc_end34
	.byte	0                               #     has no landing pad
	.byte	0                               #   On action: cleanup
.Lcst_end9:
	.p2align	2, 0x0
                                        # -- End function
	.section	.text._ZNK4sycl3_V17nd_itemILi2EE13get_global_idEv,"axG",@progbits,_ZNK4sycl3_V17nd_itemILi2EE13get_global_idEv,comdat
	.weak	_ZNK4sycl3_V17nd_itemILi2EE13get_global_idEv # -- Begin function _ZNK4sycl3_V17nd_itemILi2EE13get_global_idEv
	.p2align	4
	.type	_ZNK4sycl3_V17nd_itemILi2EE13get_global_idEv,@function
_ZNK4sycl3_V17nd_itemILi2EE13get_global_idEv: # @_ZNK4sycl3_V17nd_itemILi2EE13get_global_idEv
	.cfi_startproc
# %bb.0:                                # %entry
	pushq	%rbp
	.cfi_def_cfa_offset 16
	.cfi_offset %rbp, -16
	movq	%rsp, %rbp
	.cfi_def_cfa_register %rbp
	subq	$32, %rsp
	movq	%rdi, -24(%rbp)
	xorps	%xmm0, %xmm0
	movaps	%xmm0, -16(%rbp)
	leaq	-16(%rbp), %rdi
	callq	_ZN4sycl3_V12idILi2EEC2Ev
	movq	-16(%rbp), %rax
	movq	-8(%rbp), %rdx
	addq	$32, %rsp
	popq	%rbp
	.cfi_def_cfa %rsp, 8
	retq
.Lfunc_end35:
	.size	_ZNK4sycl3_V17nd_itemILi2EE13get_global_idEv, .Lfunc_end35-_ZNK4sycl3_V17nd_itemILi2EE13get_global_idEv
	.cfi_endproc
                                        # -- End function
	.section	.text._ZNK4sycl3_V17nd_itemILi2EE12get_local_idEv,"axG",@progbits,_ZNK4sycl3_V17nd_itemILi2EE12get_local_idEv,comdat
	.weak	_ZNK4sycl3_V17nd_itemILi2EE12get_local_idEv # -- Begin function _ZNK4sycl3_V17nd_itemILi2EE12get_local_idEv
	.p2align	4
	.type	_ZNK4sycl3_V17nd_itemILi2EE12get_local_idEv,@function
_ZNK4sycl3_V17nd_itemILi2EE12get_local_idEv: # @_ZNK4sycl3_V17nd_itemILi2EE12get_local_idEv
	.cfi_startproc
# %bb.0:                                # %entry
	pushq	%rbp
	.cfi_def_cfa_offset 16
	.cfi_offset %rbp, -16
	movq	%rsp, %rbp
	.cfi_def_cfa_register %rbp
	subq	$32, %rsp
	movq	%rdi, -24(%rbp)
	xorps	%xmm0, %xmm0
	movaps	%xmm0, -16(%rbp)
	leaq	-16(%rbp), %rdi
	callq	_ZN4sycl3_V12idILi2EEC2Ev
	movq	-16(%rbp), %rax
	movq	-8(%rbp), %rdx
	addq	$32, %rsp
	popq	%rbp
	.cfi_def_cfa %rsp, 8
	retq
.Lfunc_end36:
	.size	_ZNK4sycl3_V17nd_itemILi2EE12get_local_idEv, .Lfunc_end36-_ZNK4sycl3_V17nd_itemILi2EE12get_local_idEv
	.cfi_endproc
                                        # -- End function
	.section	.text._ZNK4sycl3_V16detail5arrayILi2EE3getEi,"axG",@progbits,_ZNK4sycl3_V16detail5arrayILi2EE3getEi,comdat
	.weak	_ZNK4sycl3_V16detail5arrayILi2EE3getEi # -- Begin function _ZNK4sycl3_V16detail5arrayILi2EE3getEi
	.p2align	4
	.type	_ZNK4sycl3_V16detail5arrayILi2EE3getEi,@function
_ZNK4sycl3_V16detail5arrayILi2EE3getEi: # @_ZNK4sycl3_V16detail5arrayILi2EE3getEi
.Lfunc_begin10:
	.cfi_startproc
	.cfi_personality 3, __gxx_personality_v0
	.cfi_lsda 3, .Lexception10
# %bb.0:                                # %entry
	pushq	%rbp
	.cfi_def_cfa_offset 16
	.cfi_offset %rbp, -16
	movq	%rsp, %rbp
	.cfi_def_cfa_register %rbp
	subq	$96, %rsp
	movq	%rdi, -56(%rbp)
	movl	%esi, -60(%rbp)
	movq	-56(%rbp), %rcx
	movq	%rcx, -72(%rbp)                 # 8-byte Spill
	movl	-60(%rbp), %eax
	movq	%rcx, -8(%rbp)
	movl	%eax, -12(%rbp)
	cmpl	$2, -12(%rbp)
	jge	.LBB37_2
# %bb.1:                                # %lor.lhs.false.i
	cmpl	$0, -12(%rbp)
	jge	.LBB37_5
.LBB37_2:                               # %if.then.i
	movl	$64, %edi
	callq	__cxa_allocate_exception
	movq	%rax, -80(%rbp)                 # 8-byte Spill
	movq	%rax, -88(%rbp)                 # 8-byte Spill
	movl	$8, %edi
	callq	_ZN4sycl3_V115make_error_codeENS0_4errcE
	movq	-80(%rbp), %rdi                 # 8-byte Reload
	movl	%eax, -32(%rbp)
	movq	%rdx, -24(%rbp)
	movl	-32(%rbp), %esi
	movq	-24(%rbp), %rdx
.Ltmp83:
	movl	$.L.str.31, %ecx
	callq	_ZN4sycl3_V19exceptionC1ESt10error_codePKc
.Ltmp84:
	jmp	.LBB37_3
.LBB37_3:                               # %invoke.cont.i
	movq	-88(%rbp), %rdi                 # 8-byte Reload
	movabsq	$_ZTIN4sycl3_V19exceptionE, %rsi
	movabsq	$_ZN4sycl3_V19exceptionD1Ev, %rdx
	callq	__cxa_throw
.LBB37_4:                               # %lpad.i
.Ltmp85:
	movq	-88(%rbp), %rdi                 # 8-byte Reload
	movq	%rax, %rcx
	movl	%edx, %eax
	movq	%rcx, -40(%rbp)
	movl	%eax, -44(%rbp)
	callq	__cxa_free_exception
	movq	-40(%rbp), %rdi
	callq	_Unwind_Resume@PLT
.LBB37_5:                               # %_ZNK4sycl3_V16detail5arrayILi2EE15check_dimensionEi.exit
	movq	-72(%rbp), %rax                 # 8-byte Reload
	movslq	-60(%rbp), %rcx
	movq	(%rax,%rcx,8), %rax
	addq	$96, %rsp
	popq	%rbp
	.cfi_def_cfa %rsp, 8
	retq
.Lfunc_end37:
	.size	_ZNK4sycl3_V16detail5arrayILi2EE3getEi, .Lfunc_end37-_ZNK4sycl3_V16detail5arrayILi2EE3getEi
	.cfi_endproc
	.section	.gcc_except_table._ZNK4sycl3_V16detail5arrayILi2EE3getEi,"aG",@progbits,_ZNK4sycl3_V16detail5arrayILi2EE3getEi,comdat
	.p2align	2, 0x0
GCC_except_table37:
.Lexception10:
	.byte	255                             # @LPStart Encoding = omit
	.byte	255                             # @TType Encoding = omit
	.byte	1                               # Call site Encoding = uleb128
	.uleb128 .Lcst_end10-.Lcst_begin10
.Lcst_begin10:
	.uleb128 .Lfunc_begin10-.Lfunc_begin10  # >> Call Site 1 <<
	.uleb128 .Ltmp83-.Lfunc_begin10         #   Call between .Lfunc_begin10 and .Ltmp83
	.byte	0                               #     has no landing pad
	.byte	0                               #   On action: cleanup
	.uleb128 .Ltmp83-.Lfunc_begin10         # >> Call Site 2 <<
	.uleb128 .Ltmp84-.Ltmp83                #   Call between .Ltmp83 and .Ltmp84
	.uleb128 .Ltmp85-.Lfunc_begin10         #     jumps to .Ltmp85
	.byte	0                               #   On action: cleanup
	.uleb128 .Ltmp84-.Lfunc_begin10         # >> Call Site 3 <<
	.uleb128 .Lfunc_end37-.Ltmp84           #   Call between .Ltmp84 and .Lfunc_end37
	.byte	0                               #     has no landing pad
	.byte	0                               #   On action: cleanup
.Lcst_end10:
	.p2align	2, 0x0
                                        # -- End function
	.text
	.globl	_Z6test_2N4sycl3_V15queueE      # -- Begin function _Z6test_2N4sycl3_V15queueE
	.p2align	4
	.type	_Z6test_2N4sycl3_V15queueE,@function
_Z6test_2N4sycl3_V15queueE:             # @_Z6test_2N4sycl3_V15queueE
.Lfunc_begin11:
	.cfi_startproc
	.cfi_personality 3, __gxx_personality_v0
	.cfi_lsda 3, .Lexception11
# %bb.0:                                # %entry
	pushq	%rbp
	.cfi_def_cfa_offset 16
	.cfi_offset %rbp, -16
	movq	%rsp, %rbp
	.cfi_def_cfa_register %rbp
	subq	$736, %rsp                      # imm = 0x2E0
	movq	%rdi, -608(%rbp)                # 8-byte Spill
	movq	%rdi, -8(%rbp)
	movl	$16, -12(%rbp)
	leaq	-56(%rbp), %rdi
	movq	%rdi, -600(%rbp)                # 8-byte Spill
	callq	_ZN4sycl3_V113property_listC2IJEvEEDpT_
	movl	$.L.str.9, %esi
	movl	$.L.str.18, %edx
	leaq	-88(%rbp), %rdi
	movq	%rdi, -592(%rbp)                # 8-byte Spill
	movl	$159, %ecx
	movl	$17, %r8d
	callq	_ZN4sycl3_V16detail13code_location7currentEPKcS4_mm
	movq	-608(%rbp), %rsi                # 8-byte Reload
	movq	-600(%rbp), %rdx                # 8-byte Reload
	movq	-592(%rbp), %rcx                # 8-byte Reload
.Ltmp86:
	movl	$16, %edi
	callq	_ZN4sycl3_V113malloc_sharedIiEEPT_mRKNS0_5queueERKNS0_13property_listERKNS0_6detail13code_locationE
.Ltmp87:
	movq	%rax, -584(%rbp)                # 8-byte Spill
	jmp	.LBB38_1
.LBB38_1:                               # %invoke.cont
	leaq	-56(%rbp), %rdi
	callq	_ZN4sycl3_V113property_listD2Ev
	movq	-584(%rbp), %rax                # 8-byte Reload
	movq	%rax, -24(%rbp)
	movl	$55, -104(%rbp)
	leaq	-176(%rbp), %rdi
	movabsq	$.L__const._Z6test_2N4sycl3_V15queueE.Result, %rsi
	movl	$64, %edx
	callq	memcpy@PLT
	leaq	-240(%rbp), %rdi
	movl	$4, %edx
	movq	%rdx, %rsi
	callq	_ZN4sycl3_V15rangeILi2EEC2ILi2EEENSt9enable_ifIXeqT_Li2EEmE4typeEm
	leaq	-256(%rbp), %rdi
	movl	$2, %edx
	movq	%rdx, %rsi
	callq	_ZN4sycl3_V15rangeILi2EEC2ILi2EEENSt9enable_ifIXeqT_Li2EEmE4typeEm
	movq	-240(%rbp), %rsi
	movq	-232(%rbp), %rdx
	movq	-256(%rbp), %rcx
	movq	-248(%rbp), %r8
	leaq	-224(%rbp), %rdi
	callq	_ZN4sycl3_V18nd_rangeILi2EEC2ENS0_5rangeILi2EEES4_
	movq	-24(%rbp), %rdi
	xorl	%esi, %esi
	movl	$64, %edx
	callq	memset@PLT
	leaq	-224(%rbp), %rax
	movq	%rax, -296(%rbp)
	leaq	-24(%rbp), %rax
	movq	%rax, -288(%rbp)
	leaq	-104(%rbp), %rax
	movq	%rax, -280(%rbp)
	leaq	-328(%rbp), %rdi
	movabsq	$.L.str.9, %rsi
	movabsq	$.L.str.18, %rdx
	movl	$166, %ecx
	movl	$9, %r8d
	callq	_ZN4sycl3_V16detail13code_location7currentEPKcS4_mm
	movq	-608(%rbp), %rsi                # 8-byte Reload
	leaq	-272(%rbp), %rdi
	leaq	-296(%rbp), %rax
	leaq	-328(%rbp), %rdx
	movq	(%rax), %rcx
	movq	%rcx, (%rsp)
	movq	8(%rax), %rcx
	movq	%rcx, 8(%rsp)
	movq	16(%rax), %rax
	movq	%rax, 16(%rsp)
	callq	_ZN4sycl3_V15queue6submitIZ6test_2S1_EUlRNS0_7handlerEE_EENSt9enable_ifIXsr3stdE16is_invocable_r_vIvT_S4_EENS0_5eventEE4typeES7_RKNS0_6detail13code_locationE
	leaq	-272(%rbp), %rdi
	callq	_ZN4sycl3_V15eventD2Ev
	leaq	-360(%rbp), %rdi
	movabsq	$.L.str.9, %rsi
	movabsq	$.L.str.18, %rdx
	movl	$174, %ecx
	movl	$9, %r8d
	callq	_ZN4sycl3_V16detail13code_location7currentEPKcS4_mm
	movq	-608(%rbp), %rdi                # 8-byte Reload
	leaq	-360(%rbp), %rsi
	callq	_ZN4sycl3_V15queue4waitERKNS0_6detail13code_locationE
	movq	-24(%rbp), %rdi
	leaq	-176(%rbp), %rdx
	movl	$16, %esi
	callq	_Z8checkUSMPiiS_
	andb	$1, %al
	movb	%al, -361(%rbp)
	movabsq	$_ZSt4cout, %rdi
	movabsq	$.L.str.19, %rsi
	callq	_ZStlsISt11char_traitsIcEERSt13basic_ostreamIcT_ES5_PKc
	movq	%rax, -616(%rbp)                # 8-byte Spill
	testb	$1, -361(%rbp)
	je	.LBB38_3
# %bb.2:                                # %cond.true
	movabsq	$.L.str.12, %rax
	movq	%rax, -624(%rbp)                # 8-byte Spill
	jmp	.LBB38_4
.LBB38_3:                               # %cond.false
	movabsq	$.L.str.13, %rax
	movq	%rax, -624(%rbp)                # 8-byte Spill
	jmp	.LBB38_4
.LBB38_4:                               # %cond.end
	movq	-616(%rbp), %rdi                # 8-byte Reload
	movq	-624(%rbp), %rsi                # 8-byte Reload
	callq	_ZStlsISt11char_traitsIcEERSt13basic_ostreamIcT_ES5_PKc
	movq	%rax, %rdi
	movl	$_ZSt4endlIcSt11char_traitsIcEERSt13basic_ostreamIT_T0_ES6_, %esi
	callq	_ZNSolsEPFRSoS_E
	movq	-608(%rbp), %rsi                # 8-byte Reload
	movb	$0, -362(%rbp)
	leaq	-400(%rbp), %rdi
	movq	%rdi, -632(%rbp)                # 8-byte Spill
	callq	_ZNK4sycl3_V15queue11get_contextEv
	movq	-632(%rbp), %rsi                # 8-byte Reload
.Ltmp89:
	leaq	-384(%rbp), %rdi
	callq	_ZN4sycl3_V117get_kernel_bundleILNS0_12bundle_stateE2EEENS0_13kernel_bundleIXT_EEERKNS0_7contextE
.Ltmp90:
	jmp	.LBB38_5
.LBB38_5:                               # %invoke.cont16
	leaq	-400(%rbp), %rdi
	callq	_ZN4sycl3_V17contextD2Ev
.Ltmp92:
	leaq	-416(%rbp), %rdi
	callq	_ZN4sycl3_V13ext6oneapi12experimental13get_kernel_idITnPDaXadL_Z4ff_1PiiEEEENSt9enable_ifIX11is_kernel_vIXT_EEENS0_9kernel_idEE4typeEv
.Ltmp93:
	jmp	.LBB38_6
.LBB38_6:                               # %invoke.cont18
.Ltmp95:
	leaq	-432(%rbp), %rdi
	leaq	-384(%rbp), %rsi
	leaq	-416(%rbp), %rdx
	callq	_ZNK4sycl3_V113kernel_bundleILNS0_12bundle_stateE2EE10get_kernelILS2_2EvEENS0_6kernelERKNS0_9kernel_idE
.Ltmp96:
	jmp	.LBB38_7
.LBB38_7:                               # %invoke.cont20
	movq	-24(%rbp), %rax
	xorps	%xmm0, %xmm0
	movups	%xmm0, 48(%rax)
	movups	%xmm0, 32(%rax)
	movups	%xmm0, 16(%rax)
	movups	%xmm0, (%rax)
	leaq	-24(%rbp), %rax
	movq	%rax, -480(%rbp)
	leaq	-104(%rbp), %rax
	movq	%rax, -472(%rbp)
	leaq	-224(%rbp), %rax
	movq	%rax, -464(%rbp)
	leaq	-432(%rbp), %rax
	movq	%rax, -456(%rbp)
	movl	$.L.str.9, %esi
	movl	$.L.str.18, %edx
	leaq	-512(%rbp), %rdi
	movq	%rdi, -640(%rbp)                # 8-byte Spill
	movl	$186, %ecx
	movl	$9, %r8d
	callq	_ZN4sycl3_V16detail13code_location7currentEPKcS4_mm
	movq	-608(%rbp), %rsi                # 8-byte Reload
	movq	-640(%rbp), %rdx                # 8-byte Reload
.Ltmp98:
	movups	-480(%rbp), %xmm0
	movups	-464(%rbp), %xmm1
	movq	%rsp, %rax
	movups	%xmm1, 16(%rax)
	movups	%xmm0, (%rax)
	leaq	-448(%rbp), %rdi
	callq	_ZN4sycl3_V15queue6submitIZ6test_2S1_EUlRNS0_7handlerEE0_EENSt9enable_ifIXsr3stdE16is_invocable_r_vIvT_S4_EENS0_5eventEE4typeES7_RKNS0_6detail13code_locationE
.Ltmp99:
	jmp	.LBB38_8
.LBB38_8:                               # %invoke.cont29
	leaq	-448(%rbp), %rdi
	callq	_ZN4sycl3_V15eventD2Ev
	movl	$.L.str.9, %esi
	movl	$.L.str.18, %edx
	leaq	-544(%rbp), %rdi
	movq	%rdi, -648(%rbp)                # 8-byte Spill
	movl	$191, %ecx
	movl	$9, %r8d
	callq	_ZN4sycl3_V16detail13code_location7currentEPKcS4_mm
	movq	-608(%rbp), %rdi                # 8-byte Reload
	movq	-648(%rbp), %rsi                # 8-byte Reload
.Ltmp100:
	callq	_ZN4sycl3_V15queue4waitERKNS0_6detail13code_locationE
.Ltmp101:
	jmp	.LBB38_9
.LBB38_9:                               # %invoke.cont31
	movq	-24(%rbp), %rdi
.Ltmp102:
	movl	$16, %esi
	leaq	-176(%rbp), %rdx
	callq	_Z8checkUSMPiiS_
.Ltmp103:
	movb	%al, -649(%rbp)                 # 1-byte Spill
	jmp	.LBB38_10
.LBB38_10:                              # %invoke.cont33
	movb	-649(%rbp), %al                 # 1-byte Reload
	andb	$1, %al
	movb	%al, -362(%rbp)
.Ltmp104:
	movl	$_ZSt4cout, %edi
	movl	$.L.str.20, %esi
	callq	_ZStlsISt11char_traitsIcEERSt13basic_ostreamIcT_ES5_PKc
.Ltmp105:
	movq	%rax, -664(%rbp)                # 8-byte Spill
	jmp	.LBB38_11
.LBB38_11:                              # %invoke.cont36
	testb	$1, -362(%rbp)
	je	.LBB38_13
# %bb.12:                               # %cond.true39
	movabsq	$.L.str.12, %rax
	movq	%rax, -672(%rbp)                # 8-byte Spill
	jmp	.LBB38_14
.LBB38_13:                              # %cond.false40
	movabsq	$.L.str.13, %rax
	movq	%rax, -672(%rbp)                # 8-byte Spill
	jmp	.LBB38_14
.LBB38_14:                              # %cond.end41
.Ltmp106:
	movq	-664(%rbp), %rdi                # 8-byte Reload
	movq	-672(%rbp), %rsi                # 8-byte Reload
	callq	_ZStlsISt11char_traitsIcEERSt13basic_ostreamIcT_ES5_PKc
.Ltmp107:
	movq	%rax, -680(%rbp)                # 8-byte Spill
	jmp	.LBB38_15
.LBB38_15:                              # %invoke.cont44
.Ltmp108:
	movq	-680(%rbp), %rdi                # 8-byte Reload
	movl	$_ZSt4endlIcSt11char_traitsIcEERSt13basic_ostreamIT_T0_ES6_, %esi
	callq	_ZNSolsEPFRSoS_E
.Ltmp109:
	jmp	.LBB38_16
.LBB38_16:                              # %invoke.cont46
	movq	-24(%rbp), %rax
	movq	%rax, -696(%rbp)                # 8-byte Spill
	movl	$.L.str.9, %esi
	movl	$.L.str.18, %edx
	leaq	-576(%rbp), %rdi
	movq	%rdi, -688(%rbp)                # 8-byte Spill
	movl	$196, %ecx
	movl	$3, %r8d
	callq	_ZN4sycl3_V16detail13code_location7currentEPKcS4_mm
	movq	-696(%rbp), %rdi                # 8-byte Reload
	movq	-608(%rbp), %rsi                # 8-byte Reload
	movq	-688(%rbp), %rdx                # 8-byte Reload
.Ltmp110:
	callq	_ZN4sycl3_V14freeEPvRKNS0_5queueERKNS0_6detail13code_locationE
.Ltmp111:
	jmp	.LBB38_17
.LBB38_17:                              # %invoke.cont49
	xorl	%eax, %eax
                                        # kill: def $al killed $al killed $eax
	testb	$1, -361(%rbp)
	movb	%al, -697(%rbp)                 # 1-byte Spill
	je	.LBB38_19
# %bb.18:                               # %land.rhs
	movb	-362(%rbp), %al
	movb	%al, -697(%rbp)                 # 1-byte Spill
.LBB38_19:                              # %land.end
	movb	-697(%rbp), %al                 # 1-byte Reload
	movb	%al, -698(%rbp)                 # 1-byte Spill
	leaq	-432(%rbp), %rdi
	callq	_ZN4sycl3_V16kernelD2Ev
	leaq	-416(%rbp), %rdi
	callq	_ZN4sycl3_V19kernel_idD2Ev
	leaq	-384(%rbp), %rdi
	callq	_ZN4sycl3_V113kernel_bundleILNS0_12bundle_stateE2EED2Ev
	movb	-698(%rbp), %al                 # 1-byte Reload
	andb	$1, %al
	addq	$736, %rsp                      # imm = 0x2E0
	popq	%rbp
	.cfi_def_cfa %rsp, 8
	retq
.LBB38_20:                              # %lpad
	.cfi_def_cfa %rbp, 16
.Ltmp88:
	movq	%rax, %rcx
	movl	%edx, %eax
	movq	%rcx, -96(%rbp)
	movl	%eax, -100(%rbp)
	leaq	-56(%rbp), %rdi
	callq	_ZN4sycl3_V113property_listD2Ev
	jmp	.LBB38_27
.LBB38_21:                              # %lpad15
.Ltmp91:
	movq	%rax, %rcx
	movl	%edx, %eax
	movq	%rcx, -96(%rbp)
	movl	%eax, -100(%rbp)
	leaq	-400(%rbp), %rdi
	callq	_ZN4sycl3_V17contextD2Ev
	jmp	.LBB38_27
.LBB38_22:                              # %lpad17
.Ltmp94:
	movq	%rax, %rcx
	movl	%edx, %eax
	movq	%rcx, -96(%rbp)
	movl	%eax, -100(%rbp)
	jmp	.LBB38_26
.LBB38_23:                              # %lpad19
.Ltmp97:
	movq	%rax, %rcx
	movl	%edx, %eax
	movq	%rcx, -96(%rbp)
	movl	%eax, -100(%rbp)
	jmp	.LBB38_25
.LBB38_24:                              # %lpad28
.Ltmp112:
	movq	%rax, %rcx
	movl	%edx, %eax
	movq	%rcx, -96(%rbp)
	movl	%eax, -100(%rbp)
	leaq	-432(%rbp), %rdi
	callq	_ZN4sycl3_V16kernelD2Ev
.LBB38_25:                              # %ehcleanup
	leaq	-416(%rbp), %rdi
	callq	_ZN4sycl3_V19kernel_idD2Ev
.LBB38_26:                              # %ehcleanup52
	leaq	-384(%rbp), %rdi
	callq	_ZN4sycl3_V113kernel_bundleILNS0_12bundle_stateE2EED2Ev
.LBB38_27:                              # %eh.resume
	movq	-96(%rbp), %rdi
	callq	_Unwind_Resume@PLT
.Lfunc_end38:
	.size	_Z6test_2N4sycl3_V15queueE, .Lfunc_end38-_Z6test_2N4sycl3_V15queueE
	.cfi_endproc
	.section	.gcc_except_table,"a",@progbits
	.p2align	2, 0x0
GCC_except_table38:
.Lexception11:
	.byte	255                             # @LPStart Encoding = omit
	.byte	255                             # @TType Encoding = omit
	.byte	1                               # Call site Encoding = uleb128
	.uleb128 .Lcst_end11-.Lcst_begin11
.Lcst_begin11:
	.uleb128 .Lfunc_begin11-.Lfunc_begin11  # >> Call Site 1 <<
	.uleb128 .Ltmp86-.Lfunc_begin11         #   Call between .Lfunc_begin11 and .Ltmp86
	.byte	0                               #     has no landing pad
	.byte	0                               #   On action: cleanup
	.uleb128 .Ltmp86-.Lfunc_begin11         # >> Call Site 2 <<
	.uleb128 .Ltmp87-.Ltmp86                #   Call between .Ltmp86 and .Ltmp87
	.uleb128 .Ltmp88-.Lfunc_begin11         #     jumps to .Ltmp88
	.byte	0                               #   On action: cleanup
	.uleb128 .Ltmp87-.Lfunc_begin11         # >> Call Site 3 <<
	.uleb128 .Ltmp89-.Ltmp87                #   Call between .Ltmp87 and .Ltmp89
	.byte	0                               #     has no landing pad
	.byte	0                               #   On action: cleanup
	.uleb128 .Ltmp89-.Lfunc_begin11         # >> Call Site 4 <<
	.uleb128 .Ltmp90-.Ltmp89                #   Call between .Ltmp89 and .Ltmp90
	.uleb128 .Ltmp91-.Lfunc_begin11         #     jumps to .Ltmp91
	.byte	0                               #   On action: cleanup
	.uleb128 .Ltmp92-.Lfunc_begin11         # >> Call Site 5 <<
	.uleb128 .Ltmp93-.Ltmp92                #   Call between .Ltmp92 and .Ltmp93
	.uleb128 .Ltmp94-.Lfunc_begin11         #     jumps to .Ltmp94
	.byte	0                               #   On action: cleanup
	.uleb128 .Ltmp95-.Lfunc_begin11         # >> Call Site 6 <<
	.uleb128 .Ltmp96-.Ltmp95                #   Call between .Ltmp95 and .Ltmp96
	.uleb128 .Ltmp97-.Lfunc_begin11         #     jumps to .Ltmp97
	.byte	0                               #   On action: cleanup
	.uleb128 .Ltmp98-.Lfunc_begin11         # >> Call Site 7 <<
	.uleb128 .Ltmp111-.Ltmp98               #   Call between .Ltmp98 and .Ltmp111
	.uleb128 .Ltmp112-.Lfunc_begin11        #     jumps to .Ltmp112
	.byte	0                               #   On action: cleanup
	.uleb128 .Ltmp111-.Lfunc_begin11        # >> Call Site 8 <<
	.uleb128 .Lfunc_end38-.Ltmp111          #   Call between .Ltmp111 and .Lfunc_end38
	.byte	0                               #     has no landing pad
	.byte	0                               #   On action: cleanup
.Lcst_end11:
	.p2align	2, 0x0
                                        # -- End function
	.section	.text._ZN4sycl3_V15rangeILi2EEC2ILi2EEENSt9enable_ifIXeqT_Li2EEmE4typeEm,"axG",@progbits,_ZN4sycl3_V15rangeILi2EEC2ILi2EEENSt9enable_ifIXeqT_Li2EEmE4typeEm,comdat
	.weak	_ZN4sycl3_V15rangeILi2EEC2ILi2EEENSt9enable_ifIXeqT_Li2EEmE4typeEm # -- Begin function _ZN4sycl3_V15rangeILi2EEC2ILi2EEENSt9enable_ifIXeqT_Li2EEmE4typeEm
	.p2align	4
	.type	_ZN4sycl3_V15rangeILi2EEC2ILi2EEENSt9enable_ifIXeqT_Li2EEmE4typeEm,@function
_ZN4sycl3_V15rangeILi2EEC2ILi2EEENSt9enable_ifIXeqT_Li2EEmE4typeEm: # @_ZN4sycl3_V15rangeILi2EEC2ILi2EEENSt9enable_ifIXeqT_Li2EEmE4typeEm
	.cfi_startproc
# %bb.0:                                # %entry
	pushq	%rbp
	.cfi_def_cfa_offset 16
	.cfi_offset %rbp, -16
	movq	%rsp, %rbp
	.cfi_def_cfa_register %rbp
	subq	$32, %rsp
	movq	%rdi, -8(%rbp)
	movq	%rsi, -16(%rbp)
	movq	%rdx, -24(%rbp)
	movq	-8(%rbp), %rdi
	movq	-16(%rbp), %rsi
	movq	-24(%rbp), %rdx
	callq	_ZN4sycl3_V16detail5arrayILi2EEC2ILi2EEENSt9enable_ifIXeqT_Li2EEmE4typeEm
	addq	$32, %rsp
	popq	%rbp
	.cfi_def_cfa %rsp, 8
	retq
.Lfunc_end39:
	.size	_ZN4sycl3_V15rangeILi2EEC2ILi2EEENSt9enable_ifIXeqT_Li2EEmE4typeEm, .Lfunc_end39-_ZN4sycl3_V15rangeILi2EEC2ILi2EEENSt9enable_ifIXeqT_Li2EEmE4typeEm
	.cfi_endproc
                                        # -- End function
	.section	.text._ZN4sycl3_V18nd_rangeILi2EEC2ENS0_5rangeILi2EEES4_,"axG",@progbits,_ZN4sycl3_V18nd_rangeILi2EEC2ENS0_5rangeILi2EEES4_,comdat
	.weak	_ZN4sycl3_V18nd_rangeILi2EEC2ENS0_5rangeILi2EEES4_ # -- Begin function _ZN4sycl3_V18nd_rangeILi2EEC2ENS0_5rangeILi2EEES4_
	.p2align	4
	.type	_ZN4sycl3_V18nd_rangeILi2EEC2ENS0_5rangeILi2EEES4_,@function
_ZN4sycl3_V18nd_rangeILi2EEC2ENS0_5rangeILi2EEES4_: # @_ZN4sycl3_V18nd_rangeILi2EEC2ENS0_5rangeILi2EEES4_
	.cfi_startproc
# %bb.0:                                # %entry
	pushq	%rbp
	.cfi_def_cfa_offset 16
	.cfi_offset %rbp, -16
	movq	%rsp, %rbp
	.cfi_def_cfa_register %rbp
	subq	$48, %rsp
	movq	%rsi, -16(%rbp)
	movq	%rdx, -8(%rbp)
	movq	%rcx, -32(%rbp)
	movq	%r8, -24(%rbp)
	movq	%rdi, -40(%rbp)
	movq	-40(%rbp), %rdi
	movq	-16(%rbp), %rax
	movq	%rax, (%rdi)
	movq	-8(%rbp), %rax
	movq	%rax, 8(%rdi)
	movq	-32(%rbp), %rax
	movq	%rax, 16(%rdi)
	movq	-24(%rbp), %rax
	movq	%rax, 24(%rdi)
	addq	$32, %rdi
	movq	%rdi, -48(%rbp)                 # 8-byte Spill
	xorl	%esi, %esi
	movl	$16, %edx
	callq	memset@PLT
	movq	-48(%rbp), %rdi                 # 8-byte Reload
	callq	_ZN4sycl3_V12idILi2EEC2Ev
	addq	$48, %rsp
	popq	%rbp
	.cfi_def_cfa %rsp, 8
	retq
.Lfunc_end40:
	.size	_ZN4sycl3_V18nd_rangeILi2EEC2ENS0_5rangeILi2EEES4_, .Lfunc_end40-_ZN4sycl3_V18nd_rangeILi2EEC2ENS0_5rangeILi2EEES4_
	.cfi_endproc
                                        # -- End function
	.text
	.p2align	4                               # -- Begin function _ZN4sycl3_V15queue6submitIZ6test_2S1_EUlRNS0_7handlerEE_EENSt9enable_ifIXsr3stdE16is_invocable_r_vIvT_S4_EENS0_5eventEE4typeES7_RKNS0_6detail13code_locationE
	.type	_ZN4sycl3_V15queue6submitIZ6test_2S1_EUlRNS0_7handlerEE_EENSt9enable_ifIXsr3stdE16is_invocable_r_vIvT_S4_EENS0_5eventEE4typeES7_RKNS0_6detail13code_locationE,@function
_ZN4sycl3_V15queue6submitIZ6test_2S1_EUlRNS0_7handlerEE_EENSt9enable_ifIXsr3stdE16is_invocable_r_vIvT_S4_EENS0_5eventEE4typeES7_RKNS0_6detail13code_locationE: # @_ZN4sycl3_V15queue6submitIZ6test_2S1_EUlRNS0_7handlerEE_EENSt9enable_ifIXsr3stdE16is_invocable_r_vIvT_S4_EENS0_5eventEE4typeES7_RKNS0_6detail13code_locationE
	.cfi_startproc
# %bb.0:                                # %entry
	pushq	%rbp
	.cfi_def_cfa_offset 16
	.cfi_offset %rbp, -16
	movq	%rsp, %rbp
	.cfi_def_cfa_register %rbp
	subq	$80, %rsp
	movq	%rsi, %rax
	movq	%rdi, -72(%rbp)                 # 8-byte Spill
	movq	%rdi, %rcx
	movq	%rcx, -56(%rbp)                 # 8-byte Spill
	leaq	16(%rbp), %rsi
	movq	%rdi, -8(%rbp)
	movq	%rax, -16(%rbp)
	movq	%rdx, -24(%rbp)
	movq	-16(%rbp), %rax
	movq	%rax, -64(%rbp)                 # 8-byte Spill
	leaq	-48(%rbp), %rdi
	callq	_ZN4sycl3_V16detail19type_erased_cgfo_tyC2IRZ6test_2NS0_5queueEEUlRNS0_7handlerEE_EEOT_
	movq	-72(%rbp), %rdi                 # 8-byte Reload
	movq	-64(%rbp), %rsi                 # 8-byte Reload
	movq	-24(%rbp), %rcx
	leaq	-48(%rbp), %rdx
	callq	_ZNK4sycl3_V15queue17submit_with_eventILb0ENS0_3ext6oneapi12experimental10propertiesINS5_6detail20properties_type_listIJEEEEEEENS0_5eventET0_RKNS0_6detail19type_erased_cgfo_tyERKNSD_13code_locationE
	movq	-56(%rbp), %rax                 # 8-byte Reload
	addq	$80, %rsp
	popq	%rbp
	.cfi_def_cfa %rsp, 8
	retq
.Lfunc_end41:
	.size	_ZN4sycl3_V15queue6submitIZ6test_2S1_EUlRNS0_7handlerEE_EENSt9enable_ifIXsr3stdE16is_invocable_r_vIvT_S4_EENS0_5eventEE4typeES7_RKNS0_6detail13code_locationE, .Lfunc_end41-_ZN4sycl3_V15queue6submitIZ6test_2S1_EUlRNS0_7handlerEE_EENSt9enable_ifIXsr3stdE16is_invocable_r_vIvT_S4_EENS0_5eventEE4typeES7_RKNS0_6detail13code_locationE
	.cfi_endproc
                                        # -- End function
	.p2align	4                               # -- Begin function _ZN4sycl3_V15queue6submitIZ6test_2S1_EUlRNS0_7handlerEE0_EENSt9enable_ifIXsr3stdE16is_invocable_r_vIvT_S4_EENS0_5eventEE4typeES7_RKNS0_6detail13code_locationE
	.type	_ZN4sycl3_V15queue6submitIZ6test_2S1_EUlRNS0_7handlerEE0_EENSt9enable_ifIXsr3stdE16is_invocable_r_vIvT_S4_EENS0_5eventEE4typeES7_RKNS0_6detail13code_locationE,@function
_ZN4sycl3_V15queue6submitIZ6test_2S1_EUlRNS0_7handlerEE0_EENSt9enable_ifIXsr3stdE16is_invocable_r_vIvT_S4_EENS0_5eventEE4typeES7_RKNS0_6detail13code_locationE: # @_ZN4sycl3_V15queue6submitIZ6test_2S1_EUlRNS0_7handlerEE0_EENSt9enable_ifIXsr3stdE16is_invocable_r_vIvT_S4_EENS0_5eventEE4typeES7_RKNS0_6detail13code_locationE
	.cfi_startproc
# %bb.0:                                # %entry
	pushq	%rbp
	.cfi_def_cfa_offset 16
	.cfi_offset %rbp, -16
	movq	%rsp, %rbp
	.cfi_def_cfa_register %rbp
	subq	$80, %rsp
	movq	%rsi, %rax
	movq	%rdi, -72(%rbp)                 # 8-byte Spill
	movq	%rdi, %rcx
	movq	%rcx, -56(%rbp)                 # 8-byte Spill
	leaq	16(%rbp), %rsi
	movq	%rdi, -8(%rbp)
	movq	%rax, -16(%rbp)
	movq	%rdx, -24(%rbp)
	movq	-16(%rbp), %rax
	movq	%rax, -64(%rbp)                 # 8-byte Spill
	leaq	-48(%rbp), %rdi
	callq	_ZN4sycl3_V16detail19type_erased_cgfo_tyC2IRZ6test_2NS0_5queueEEUlRNS0_7handlerEE0_EEOT_
	movq	-72(%rbp), %rdi                 # 8-byte Reload
	movq	-64(%rbp), %rsi                 # 8-byte Reload
	movq	-24(%rbp), %rcx
	leaq	-48(%rbp), %rdx
	callq	_ZNK4sycl3_V15queue17submit_with_eventILb0ENS0_3ext6oneapi12experimental10propertiesINS5_6detail20properties_type_listIJEEEEEEENS0_5eventET0_RKNS0_6detail19type_erased_cgfo_tyERKNSD_13code_locationE
	movq	-56(%rbp), %rax                 # 8-byte Reload
	addq	$80, %rsp
	popq	%rbp
	.cfi_def_cfa %rsp, 8
	retq
.Lfunc_end42:
	.size	_ZN4sycl3_V15queue6submitIZ6test_2S1_EUlRNS0_7handlerEE0_EENSt9enable_ifIXsr3stdE16is_invocable_r_vIvT_S4_EENS0_5eventEE4typeES7_RKNS0_6detail13code_locationE, .Lfunc_end42-_ZN4sycl3_V15queue6submitIZ6test_2S1_EUlRNS0_7handlerEE0_EENSt9enable_ifIXsr3stdE16is_invocable_r_vIvT_S4_EENS0_5eventEE4typeES7_RKNS0_6detail13code_locationE
	.cfi_endproc
                                        # -- End function
	.section	.text._Z4ff_3IiEvPT_S0_,"axG",@progbits,_Z4ff_3IiEvPT_S0_,comdat
	.weak	_Z4ff_3IiEvPT_S0_               # -- Begin function _Z4ff_3IiEvPT_S0_
	.p2align	4
	.type	_Z4ff_3IiEvPT_S0_,@function
_Z4ff_3IiEvPT_S0_:                      # @_Z4ff_3IiEvPT_S0_
	.cfi_startproc
# %bb.0:                                # %entry
	pushq	%rbp
	.cfi_def_cfa_offset 16
	.cfi_offset %rbp, -16
	movq	%rsp, %rbp
	.cfi_def_cfa_register %rbp
	subq	$96, %rsp
	movq	%rdi, -8(%rbp)
	movl	%esi, -12(%rbp)
	movq	-8(%rbp), %rax
	movq	%rax, -24(%rbp)
	callq	_ZN4sycl3_V13ext6oneapi14this_work_item11get_nd_itemILi2EEENS0_7nd_itemIXT_EEEv
	leaq	-25(%rbp), %rdi
	callq	_ZNK4sycl3_V17nd_itemILi2EE13get_global_idEv
	movq	%rax, -48(%rbp)
	movq	%rdx, -40(%rbp)
	leaq	-25(%rbp), %rdi
	callq	_ZNK4sycl3_V17nd_itemILi2EE12get_local_idEv
	movq	%rax, -64(%rbp)
	movq	%rdx, -56(%rbp)
	leaq	-64(%rbp), %rdi
	xorl	%esi, %esi
	callq	_ZNK4sycl3_V16detail5arrayILi2EE3getEi
	movq	%rax, -96(%rbp)                 # 8-byte Spill
	leaq	-64(%rbp), %rdi
	movl	$1, %esi
	callq	_ZNK4sycl3_V16detail5arrayILi2EE3getEi
	movq	%rax, %rcx
	movq	-96(%rbp), %rax                 # 8-byte Reload
	addq	%rcx, %rax
	movslq	-12(%rbp), %rcx
	addq	%rcx, %rax
                                        # kill: def $eax killed $eax killed $rax
	movl	%eax, -76(%rbp)                 # 4-byte Spill
	movq	-24(%rbp), %rax
	movq	%rax, -88(%rbp)                 # 8-byte Spill
	leaq	-48(%rbp), %rdi
	xorl	%esi, %esi
	callq	_ZNK4sycl3_V16detail5arrayILi2EE3getEi
	movq	%rax, %rcx
	movq	-88(%rbp), %rax                 # 8-byte Reload
	shlq	$4, %rcx
	addq	%rcx, %rax
	movq	%rax, -72(%rbp)                 # 8-byte Spill
	leaq	-48(%rbp), %rdi
	movl	$1, %esi
	callq	_ZNK4sycl3_V16detail5arrayILi2EE3getEi
	movl	-76(%rbp), %edx                 # 4-byte Reload
	movq	%rax, %rcx
	movq	-72(%rbp), %rax                 # 8-byte Reload
	movl	%edx, (%rax,%rcx,4)
	addq	$96, %rsp
	popq	%rbp
	.cfi_def_cfa %rsp, 8
	retq
.Lfunc_end43:
	.size	_Z4ff_3IiEvPT_S0_, .Lfunc_end43-_Z4ff_3IiEvPT_S0_
	.cfi_endproc
                                        # -- End function
	.text
	.globl	_Z6test_3N4sycl3_V15queueE      # -- Begin function _Z6test_3N4sycl3_V15queueE
	.p2align	4
	.type	_Z6test_3N4sycl3_V15queueE,@function
_Z6test_3N4sycl3_V15queueE:             # @_Z6test_3N4sycl3_V15queueE
.Lfunc_begin12:
	.cfi_startproc
	.cfi_personality 3, __gxx_personality_v0
	.cfi_lsda 3, .Lexception12
# %bb.0:                                # %entry
	pushq	%rbp
	.cfi_def_cfa_offset 16
	.cfi_offset %rbp, -16
	movq	%rsp, %rbp
	.cfi_def_cfa_register %rbp
	subq	$736, %rsp                      # imm = 0x2E0
	movq	%rdi, -608(%rbp)                # 8-byte Spill
	movq	%rdi, -8(%rbp)
	movl	$16, -12(%rbp)
	leaq	-56(%rbp), %rdi
	movq	%rdi, -600(%rbp)                # 8-byte Spill
	callq	_ZN4sycl3_V113property_listC2IJEvEEDpT_
	movl	$.L.str.9, %esi
	movl	$.L.str.21, %edx
	leaq	-88(%rbp), %rdi
	movq	%rdi, -592(%rbp)                # 8-byte Spill
	movl	$217, %ecx
	movl	$17, %r8d
	callq	_ZN4sycl3_V16detail13code_location7currentEPKcS4_mm
	movq	-608(%rbp), %rsi                # 8-byte Reload
	movq	-600(%rbp), %rdx                # 8-byte Reload
	movq	-592(%rbp), %rcx                # 8-byte Reload
.Ltmp113:
	movl	$16, %edi
	callq	_ZN4sycl3_V113malloc_sharedIiEEPT_mRKNS0_5queueERKNS0_13property_listERKNS0_6detail13code_locationE
.Ltmp114:
	movq	%rax, -584(%rbp)                # 8-byte Spill
	jmp	.LBB44_1
.LBB44_1:                               # %invoke.cont
	leaq	-56(%rbp), %rdi
	callq	_ZN4sycl3_V113property_listD2Ev
	movq	-584(%rbp), %rax                # 8-byte Reload
	movq	%rax, -24(%rbp)
	movl	$55, -104(%rbp)
	leaq	-176(%rbp), %rdi
	movabsq	$.L__const._Z6test_3N4sycl3_V15queueE.Result, %rsi
	movl	$64, %edx
	callq	memcpy@PLT
	leaq	-240(%rbp), %rdi
	movl	$4, %edx
	movq	%rdx, %rsi
	callq	_ZN4sycl3_V15rangeILi2EEC2ILi2EEENSt9enable_ifIXeqT_Li2EEmE4typeEm
	leaq	-256(%rbp), %rdi
	movl	$2, %edx
	movq	%rdx, %rsi
	callq	_ZN4sycl3_V15rangeILi2EEC2ILi2EEENSt9enable_ifIXeqT_Li2EEmE4typeEm
	movq	-240(%rbp), %rsi
	movq	-232(%rbp), %rdx
	movq	-256(%rbp), %rcx
	movq	-248(%rbp), %r8
	leaq	-224(%rbp), %rdi
	callq	_ZN4sycl3_V18nd_rangeILi2EEC2ENS0_5rangeILi2EEES4_
	movq	-24(%rbp), %rdi
	xorl	%esi, %esi
	movl	$64, %edx
	callq	memset@PLT
	leaq	-224(%rbp), %rax
	movq	%rax, -296(%rbp)
	leaq	-24(%rbp), %rax
	movq	%rax, -288(%rbp)
	leaq	-104(%rbp), %rax
	movq	%rax, -280(%rbp)
	leaq	-328(%rbp), %rdi
	movabsq	$.L.str.9, %rsi
	movabsq	$.L.str.21, %rdx
	movl	$224, %ecx
	movl	$9, %r8d
	callq	_ZN4sycl3_V16detail13code_location7currentEPKcS4_mm
	movq	-608(%rbp), %rsi                # 8-byte Reload
	leaq	-272(%rbp), %rdi
	leaq	-296(%rbp), %rax
	leaq	-328(%rbp), %rdx
	movq	(%rax), %rcx
	movq	%rcx, (%rsp)
	movq	8(%rax), %rcx
	movq	%rcx, 8(%rsp)
	movq	16(%rax), %rax
	movq	%rax, 16(%rsp)
	callq	_ZN4sycl3_V15queue6submitIZ6test_3S1_EUlRNS0_7handlerEE_EENSt9enable_ifIXsr3stdE16is_invocable_r_vIvT_S4_EENS0_5eventEE4typeES7_RKNS0_6detail13code_locationE
	leaq	-272(%rbp), %rdi
	callq	_ZN4sycl3_V15eventD2Ev
	leaq	-360(%rbp), %rdi
	movabsq	$.L.str.9, %rsi
	movabsq	$.L.str.21, %rdx
	movl	$232, %ecx
	movl	$9, %r8d
	callq	_ZN4sycl3_V16detail13code_location7currentEPKcS4_mm
	movq	-608(%rbp), %rdi                # 8-byte Reload
	leaq	-360(%rbp), %rsi
	callq	_ZN4sycl3_V15queue4waitERKNS0_6detail13code_locationE
	movq	-24(%rbp), %rdi
	leaq	-176(%rbp), %rdx
	movl	$16, %esi
	callq	_Z8checkUSMPiiS_
	andb	$1, %al
	movb	%al, -361(%rbp)
	movabsq	$_ZSt4cout, %rdi
	movabsq	$.L.str.22, %rsi
	callq	_ZStlsISt11char_traitsIcEERSt13basic_ostreamIcT_ES5_PKc
	movq	%rax, -616(%rbp)                # 8-byte Spill
	testb	$1, -361(%rbp)
	je	.LBB44_3
# %bb.2:                                # %cond.true
	movabsq	$.L.str.12, %rax
	movq	%rax, -624(%rbp)                # 8-byte Spill
	jmp	.LBB44_4
.LBB44_3:                               # %cond.false
	movabsq	$.L.str.13, %rax
	movq	%rax, -624(%rbp)                # 8-byte Spill
	jmp	.LBB44_4
.LBB44_4:                               # %cond.end
	movq	-616(%rbp), %rdi                # 8-byte Reload
	movq	-624(%rbp), %rsi                # 8-byte Reload
	callq	_ZStlsISt11char_traitsIcEERSt13basic_ostreamIcT_ES5_PKc
	movq	%rax, %rdi
	movl	$_ZSt4endlIcSt11char_traitsIcEERSt13basic_ostreamIT_T0_ES6_, %esi
	callq	_ZNSolsEPFRSoS_E
	movq	-608(%rbp), %rsi                # 8-byte Reload
	movb	$0, -362(%rbp)
	leaq	-400(%rbp), %rdi
	movq	%rdi, -632(%rbp)                # 8-byte Spill
	callq	_ZNK4sycl3_V15queue11get_contextEv
	movq	-632(%rbp), %rsi                # 8-byte Reload
.Ltmp116:
	leaq	-384(%rbp), %rdi
	callq	_ZN4sycl3_V117get_kernel_bundleILNS0_12bundle_stateE2EEENS0_13kernel_bundleIXT_EEERKNS0_7contextE
.Ltmp117:
	jmp	.LBB44_5
.LBB44_5:                               # %invoke.cont16
	leaq	-400(%rbp), %rdi
	callq	_ZN4sycl3_V17contextD2Ev
.Ltmp119:
	leaq	-416(%rbp), %rdi
	callq	_ZN4sycl3_V13ext6oneapi12experimental13get_kernel_idITnPDaXadL_Z4ff_3IiEvPT_S7_EEEENSt9enable_ifIX11is_kernel_vIXT_EEENS0_9kernel_idEE4typeEv
.Ltmp120:
	jmp	.LBB44_6
.LBB44_6:                               # %invoke.cont18
.Ltmp122:
	leaq	-432(%rbp), %rdi
	leaq	-384(%rbp), %rsi
	leaq	-416(%rbp), %rdx
	callq	_ZNK4sycl3_V113kernel_bundleILNS0_12bundle_stateE2EE10get_kernelILS2_2EvEENS0_6kernelERKNS0_9kernel_idE
.Ltmp123:
	jmp	.LBB44_7
.LBB44_7:                               # %invoke.cont20
	movq	-24(%rbp), %rax
	xorps	%xmm0, %xmm0
	movups	%xmm0, 48(%rax)
	movups	%xmm0, 32(%rax)
	movups	%xmm0, 16(%rax)
	movups	%xmm0, (%rax)
	leaq	-24(%rbp), %rax
	movq	%rax, -480(%rbp)
	leaq	-104(%rbp), %rax
	movq	%rax, -472(%rbp)
	leaq	-224(%rbp), %rax
	movq	%rax, -464(%rbp)
	leaq	-432(%rbp), %rax
	movq	%rax, -456(%rbp)
	movl	$.L.str.9, %esi
	movl	$.L.str.21, %edx
	leaq	-512(%rbp), %rdi
	movq	%rdi, -640(%rbp)                # 8-byte Spill
	movl	$244, %ecx
	movl	$9, %r8d
	callq	_ZN4sycl3_V16detail13code_location7currentEPKcS4_mm
	movq	-608(%rbp), %rsi                # 8-byte Reload
	movq	-640(%rbp), %rdx                # 8-byte Reload
.Ltmp125:
	movups	-480(%rbp), %xmm0
	movups	-464(%rbp), %xmm1
	movq	%rsp, %rax
	movups	%xmm1, 16(%rax)
	movups	%xmm0, (%rax)
	leaq	-448(%rbp), %rdi
	callq	_ZN4sycl3_V15queue6submitIZ6test_3S1_EUlRNS0_7handlerEE0_EENSt9enable_ifIXsr3stdE16is_invocable_r_vIvT_S4_EENS0_5eventEE4typeES7_RKNS0_6detail13code_locationE
.Ltmp126:
	jmp	.LBB44_8
.LBB44_8:                               # %invoke.cont29
	leaq	-448(%rbp), %rdi
	callq	_ZN4sycl3_V15eventD2Ev
	movl	$.L.str.9, %esi
	movl	$.L.str.21, %edx
	leaq	-544(%rbp), %rdi
	movq	%rdi, -648(%rbp)                # 8-byte Spill
	movl	$249, %ecx
	movl	$9, %r8d
	callq	_ZN4sycl3_V16detail13code_location7currentEPKcS4_mm
	movq	-608(%rbp), %rdi                # 8-byte Reload
	movq	-648(%rbp), %rsi                # 8-byte Reload
.Ltmp127:
	callq	_ZN4sycl3_V15queue4waitERKNS0_6detail13code_locationE
.Ltmp128:
	jmp	.LBB44_9
.LBB44_9:                               # %invoke.cont31
	movq	-24(%rbp), %rdi
.Ltmp129:
	movl	$16, %esi
	leaq	-176(%rbp), %rdx
	callq	_Z8checkUSMPiiS_
.Ltmp130:
	movb	%al, -649(%rbp)                 # 1-byte Spill
	jmp	.LBB44_10
.LBB44_10:                              # %invoke.cont33
	movb	-649(%rbp), %al                 # 1-byte Reload
	andb	$1, %al
	movb	%al, -362(%rbp)
.Ltmp131:
	movl	$_ZSt4cout, %edi
	movl	$.L.str.23, %esi
	callq	_ZStlsISt11char_traitsIcEERSt13basic_ostreamIcT_ES5_PKc
.Ltmp132:
	movq	%rax, -664(%rbp)                # 8-byte Spill
	jmp	.LBB44_11
.LBB44_11:                              # %invoke.cont36
	testb	$1, -362(%rbp)
	je	.LBB44_13
# %bb.12:                               # %cond.true39
	movabsq	$.L.str.12, %rax
	movq	%rax, -672(%rbp)                # 8-byte Spill
	jmp	.LBB44_14
.LBB44_13:                              # %cond.false40
	movabsq	$.L.str.13, %rax
	movq	%rax, -672(%rbp)                # 8-byte Spill
	jmp	.LBB44_14
.LBB44_14:                              # %cond.end41
.Ltmp133:
	movq	-664(%rbp), %rdi                # 8-byte Reload
	movq	-672(%rbp), %rsi                # 8-byte Reload
	callq	_ZStlsISt11char_traitsIcEERSt13basic_ostreamIcT_ES5_PKc
.Ltmp134:
	movq	%rax, -680(%rbp)                # 8-byte Spill
	jmp	.LBB44_15
.LBB44_15:                              # %invoke.cont44
.Ltmp135:
	movq	-680(%rbp), %rdi                # 8-byte Reload
	movl	$_ZSt4endlIcSt11char_traitsIcEERSt13basic_ostreamIT_T0_ES6_, %esi
	callq	_ZNSolsEPFRSoS_E
.Ltmp136:
	jmp	.LBB44_16
.LBB44_16:                              # %invoke.cont46
	movq	-24(%rbp), %rax
	movq	%rax, -696(%rbp)                # 8-byte Spill
	movl	$.L.str.9, %esi
	movl	$.L.str.21, %edx
	leaq	-576(%rbp), %rdi
	movq	%rdi, -688(%rbp)                # 8-byte Spill
	movl	$254, %ecx
	movl	$3, %r8d
	callq	_ZN4sycl3_V16detail13code_location7currentEPKcS4_mm
	movq	-696(%rbp), %rdi                # 8-byte Reload
	movq	-608(%rbp), %rsi                # 8-byte Reload
	movq	-688(%rbp), %rdx                # 8-byte Reload
.Ltmp137:
	callq	_ZN4sycl3_V14freeEPvRKNS0_5queueERKNS0_6detail13code_locationE
.Ltmp138:
	jmp	.LBB44_17
.LBB44_17:                              # %invoke.cont49
	xorl	%eax, %eax
                                        # kill: def $al killed $al killed $eax
	testb	$1, -361(%rbp)
	movb	%al, -697(%rbp)                 # 1-byte Spill
	je	.LBB44_19
# %bb.18:                               # %land.rhs
	movb	-362(%rbp), %al
	movb	%al, -697(%rbp)                 # 1-byte Spill
.LBB44_19:                              # %land.end
	movb	-697(%rbp), %al                 # 1-byte Reload
	movb	%al, -698(%rbp)                 # 1-byte Spill
	leaq	-432(%rbp), %rdi
	callq	_ZN4sycl3_V16kernelD2Ev
	leaq	-416(%rbp), %rdi
	callq	_ZN4sycl3_V19kernel_idD2Ev
	leaq	-384(%rbp), %rdi
	callq	_ZN4sycl3_V113kernel_bundleILNS0_12bundle_stateE2EED2Ev
	movb	-698(%rbp), %al                 # 1-byte Reload
	andb	$1, %al
	addq	$736, %rsp                      # imm = 0x2E0
	popq	%rbp
	.cfi_def_cfa %rsp, 8
	retq
.LBB44_20:                              # %lpad
	.cfi_def_cfa %rbp, 16
.Ltmp115:
	movq	%rax, %rcx
	movl	%edx, %eax
	movq	%rcx, -96(%rbp)
	movl	%eax, -100(%rbp)
	leaq	-56(%rbp), %rdi
	callq	_ZN4sycl3_V113property_listD2Ev
	jmp	.LBB44_27
.LBB44_21:                              # %lpad15
.Ltmp118:
	movq	%rax, %rcx
	movl	%edx, %eax
	movq	%rcx, -96(%rbp)
	movl	%eax, -100(%rbp)
	leaq	-400(%rbp), %rdi
	callq	_ZN4sycl3_V17contextD2Ev
	jmp	.LBB44_27
.LBB44_22:                              # %lpad17
.Ltmp121:
	movq	%rax, %rcx
	movl	%edx, %eax
	movq	%rcx, -96(%rbp)
	movl	%eax, -100(%rbp)
	jmp	.LBB44_26
.LBB44_23:                              # %lpad19
.Ltmp124:
	movq	%rax, %rcx
	movl	%edx, %eax
	movq	%rcx, -96(%rbp)
	movl	%eax, -100(%rbp)
	jmp	.LBB44_25
.LBB44_24:                              # %lpad28
.Ltmp139:
	movq	%rax, %rcx
	movl	%edx, %eax
	movq	%rcx, -96(%rbp)
	movl	%eax, -100(%rbp)
	leaq	-432(%rbp), %rdi
	callq	_ZN4sycl3_V16kernelD2Ev
.LBB44_25:                              # %ehcleanup
	leaq	-416(%rbp), %rdi
	callq	_ZN4sycl3_V19kernel_idD2Ev
.LBB44_26:                              # %ehcleanup52
	leaq	-384(%rbp), %rdi
	callq	_ZN4sycl3_V113kernel_bundleILNS0_12bundle_stateE2EED2Ev
.LBB44_27:                              # %eh.resume
	movq	-96(%rbp), %rdi
	callq	_Unwind_Resume@PLT
.Lfunc_end44:
	.size	_Z6test_3N4sycl3_V15queueE, .Lfunc_end44-_Z6test_3N4sycl3_V15queueE
	.cfi_endproc
	.section	.gcc_except_table,"a",@progbits
	.p2align	2, 0x0
GCC_except_table44:
.Lexception12:
	.byte	255                             # @LPStart Encoding = omit
	.byte	255                             # @TType Encoding = omit
	.byte	1                               # Call site Encoding = uleb128
	.uleb128 .Lcst_end12-.Lcst_begin12
.Lcst_begin12:
	.uleb128 .Lfunc_begin12-.Lfunc_begin12  # >> Call Site 1 <<
	.uleb128 .Ltmp113-.Lfunc_begin12        #   Call between .Lfunc_begin12 and .Ltmp113
	.byte	0                               #     has no landing pad
	.byte	0                               #   On action: cleanup
	.uleb128 .Ltmp113-.Lfunc_begin12        # >> Call Site 2 <<
	.uleb128 .Ltmp114-.Ltmp113              #   Call between .Ltmp113 and .Ltmp114
	.uleb128 .Ltmp115-.Lfunc_begin12        #     jumps to .Ltmp115
	.byte	0                               #   On action: cleanup
	.uleb128 .Ltmp114-.Lfunc_begin12        # >> Call Site 3 <<
	.uleb128 .Ltmp116-.Ltmp114              #   Call between .Ltmp114 and .Ltmp116
	.byte	0                               #     has no landing pad
	.byte	0                               #   On action: cleanup
	.uleb128 .Ltmp116-.Lfunc_begin12        # >> Call Site 4 <<
	.uleb128 .Ltmp117-.Ltmp116              #   Call between .Ltmp116 and .Ltmp117
	.uleb128 .Ltmp118-.Lfunc_begin12        #     jumps to .Ltmp118
	.byte	0                               #   On action: cleanup
	.uleb128 .Ltmp119-.Lfunc_begin12        # >> Call Site 5 <<
	.uleb128 .Ltmp120-.Ltmp119              #   Call between .Ltmp119 and .Ltmp120
	.uleb128 .Ltmp121-.Lfunc_begin12        #     jumps to .Ltmp121
	.byte	0                               #   On action: cleanup
	.uleb128 .Ltmp122-.Lfunc_begin12        # >> Call Site 6 <<
	.uleb128 .Ltmp123-.Ltmp122              #   Call between .Ltmp122 and .Ltmp123
	.uleb128 .Ltmp124-.Lfunc_begin12        #     jumps to .Ltmp124
	.byte	0                               #   On action: cleanup
	.uleb128 .Ltmp125-.Lfunc_begin12        # >> Call Site 7 <<
	.uleb128 .Ltmp138-.Ltmp125              #   Call between .Ltmp125 and .Ltmp138
	.uleb128 .Ltmp139-.Lfunc_begin12        #     jumps to .Ltmp139
	.byte	0                               #   On action: cleanup
	.uleb128 .Ltmp138-.Lfunc_begin12        # >> Call Site 8 <<
	.uleb128 .Lfunc_end44-.Ltmp138          #   Call between .Ltmp138 and .Lfunc_end44
	.byte	0                               #     has no landing pad
	.byte	0                               #   On action: cleanup
.Lcst_end12:
	.p2align	2, 0x0
                                        # -- End function
	.text
	.p2align	4                               # -- Begin function _ZN4sycl3_V15queue6submitIZ6test_3S1_EUlRNS0_7handlerEE_EENSt9enable_ifIXsr3stdE16is_invocable_r_vIvT_S4_EENS0_5eventEE4typeES7_RKNS0_6detail13code_locationE
	.type	_ZN4sycl3_V15queue6submitIZ6test_3S1_EUlRNS0_7handlerEE_EENSt9enable_ifIXsr3stdE16is_invocable_r_vIvT_S4_EENS0_5eventEE4typeES7_RKNS0_6detail13code_locationE,@function
_ZN4sycl3_V15queue6submitIZ6test_3S1_EUlRNS0_7handlerEE_EENSt9enable_ifIXsr3stdE16is_invocable_r_vIvT_S4_EENS0_5eventEE4typeES7_RKNS0_6detail13code_locationE: # @_ZN4sycl3_V15queue6submitIZ6test_3S1_EUlRNS0_7handlerEE_EENSt9enable_ifIXsr3stdE16is_invocable_r_vIvT_S4_EENS0_5eventEE4typeES7_RKNS0_6detail13code_locationE
	.cfi_startproc
# %bb.0:                                # %entry
	pushq	%rbp
	.cfi_def_cfa_offset 16
	.cfi_offset %rbp, -16
	movq	%rsp, %rbp
	.cfi_def_cfa_register %rbp
	subq	$80, %rsp
	movq	%rsi, %rax
	movq	%rdi, -72(%rbp)                 # 8-byte Spill
	movq	%rdi, %rcx
	movq	%rcx, -56(%rbp)                 # 8-byte Spill
	leaq	16(%rbp), %rsi
	movq	%rdi, -8(%rbp)
	movq	%rax, -16(%rbp)
	movq	%rdx, -24(%rbp)
	movq	-16(%rbp), %rax
	movq	%rax, -64(%rbp)                 # 8-byte Spill
	leaq	-48(%rbp), %rdi
	callq	_ZN4sycl3_V16detail19type_erased_cgfo_tyC2IRZ6test_3NS0_5queueEEUlRNS0_7handlerEE_EEOT_
	movq	-72(%rbp), %rdi                 # 8-byte Reload
	movq	-64(%rbp), %rsi                 # 8-byte Reload
	movq	-24(%rbp), %rcx
	leaq	-48(%rbp), %rdx
	callq	_ZNK4sycl3_V15queue17submit_with_eventILb0ENS0_3ext6oneapi12experimental10propertiesINS5_6detail20properties_type_listIJEEEEEEENS0_5eventET0_RKNS0_6detail19type_erased_cgfo_tyERKNSD_13code_locationE
	movq	-56(%rbp), %rax                 # 8-byte Reload
	addq	$80, %rsp
	popq	%rbp
	.cfi_def_cfa %rsp, 8
	retq
.Lfunc_end45:
	.size	_ZN4sycl3_V15queue6submitIZ6test_3S1_EUlRNS0_7handlerEE_EENSt9enable_ifIXsr3stdE16is_invocable_r_vIvT_S4_EENS0_5eventEE4typeES7_RKNS0_6detail13code_locationE, .Lfunc_end45-_ZN4sycl3_V15queue6submitIZ6test_3S1_EUlRNS0_7handlerEE_EENSt9enable_ifIXsr3stdE16is_invocable_r_vIvT_S4_EENS0_5eventEE4typeES7_RKNS0_6detail13code_locationE
	.cfi_endproc
                                        # -- End function
	.p2align	4                               # -- Begin function _ZN4sycl3_V15queue6submitIZ6test_3S1_EUlRNS0_7handlerEE0_EENSt9enable_ifIXsr3stdE16is_invocable_r_vIvT_S4_EENS0_5eventEE4typeES7_RKNS0_6detail13code_locationE
	.type	_ZN4sycl3_V15queue6submitIZ6test_3S1_EUlRNS0_7handlerEE0_EENSt9enable_ifIXsr3stdE16is_invocable_r_vIvT_S4_EENS0_5eventEE4typeES7_RKNS0_6detail13code_locationE,@function
_ZN4sycl3_V15queue6submitIZ6test_3S1_EUlRNS0_7handlerEE0_EENSt9enable_ifIXsr3stdE16is_invocable_r_vIvT_S4_EENS0_5eventEE4typeES7_RKNS0_6detail13code_locationE: # @_ZN4sycl3_V15queue6submitIZ6test_3S1_EUlRNS0_7handlerEE0_EENSt9enable_ifIXsr3stdE16is_invocable_r_vIvT_S4_EENS0_5eventEE4typeES7_RKNS0_6detail13code_locationE
	.cfi_startproc
# %bb.0:                                # %entry
	pushq	%rbp
	.cfi_def_cfa_offset 16
	.cfi_offset %rbp, -16
	movq	%rsp, %rbp
	.cfi_def_cfa_register %rbp
	subq	$80, %rsp
	movq	%rsi, %rax
	movq	%rdi, -72(%rbp)                 # 8-byte Spill
	movq	%rdi, %rcx
	movq	%rcx, -56(%rbp)                 # 8-byte Spill
	leaq	16(%rbp), %rsi
	movq	%rdi, -8(%rbp)
	movq	%rax, -16(%rbp)
	movq	%rdx, -24(%rbp)
	movq	-16(%rbp), %rax
	movq	%rax, -64(%rbp)                 # 8-byte Spill
	leaq	-48(%rbp), %rdi
	callq	_ZN4sycl3_V16detail19type_erased_cgfo_tyC2IRZ6test_3NS0_5queueEEUlRNS0_7handlerEE0_EEOT_
	movq	-72(%rbp), %rdi                 # 8-byte Reload
	movq	-64(%rbp), %rsi                 # 8-byte Reload
	movq	-24(%rbp), %rcx
	leaq	-48(%rbp), %rdx
	callq	_ZNK4sycl3_V15queue17submit_with_eventILb0ENS0_3ext6oneapi12experimental10propertiesINS5_6detail20properties_type_listIJEEEEEEENS0_5eventET0_RKNS0_6detail19type_erased_cgfo_tyERKNSD_13code_locationE
	movq	-56(%rbp), %rax                 # 8-byte Reload
	addq	$80, %rsp
	popq	%rbp
	.cfi_def_cfa %rsp, 8
	retq
.Lfunc_end46:
	.size	_ZN4sycl3_V15queue6submitIZ6test_3S1_EUlRNS0_7handlerEE0_EENSt9enable_ifIXsr3stdE16is_invocable_r_vIvT_S4_EENS0_5eventEE4typeES7_RKNS0_6detail13code_locationE, .Lfunc_end46-_ZN4sycl3_V15queue6submitIZ6test_3S1_EUlRNS0_7handlerEE0_EENSt9enable_ifIXsr3stdE16is_invocable_r_vIvT_S4_EENS0_5eventEE4typeES7_RKNS0_6detail13code_locationE
	.cfi_endproc
                                        # -- End function
	.globl	main                            # -- Begin function main
	.p2align	4
	.type	main,@function
main:                                   # @main
.Lfunc_begin13:
	.cfi_startproc
	.cfi_personality 3, __gxx_personality_v0
	.cfi_lsda 3, .Lexception13
# %bb.0:                                # %entry
	pushq	%rbp
	.cfi_def_cfa_offset 16
	.cfi_offset %rbp, -16
	movq	%rsp, %rbp
	.cfi_def_cfa_register %rbp
	subq	$208, %rsp
	movl	$0, -4(%rbp)
	leaq	-56(%rbp), %rdi
	movq	%rdi, -144(%rbp)                # 8-byte Spill
	callq	_ZN4sycl3_V113property_listC2IJEvEEDpT_
	movq	-144(%rbp), %rsi                # 8-byte Reload
.Ltmp140:
	leaq	-24(%rbp), %rdi
	callq	_ZN4sycl3_V15queueC2ERKNS0_13property_listE
.Ltmp141:
	jmp	.LBB47_1
.LBB47_1:                               # %invoke.cont
	leaq	-56(%rbp), %rdi
	callq	_ZN4sycl3_V113property_listD2Ev
	movb	$1, -69(%rbp)
	leaq	-88(%rbp), %rdi
	movq	%rdi, -160(%rbp)                # 8-byte Spill
	leaq	-24(%rbp), %rsi
	callq	_ZN4sycl3_V15queueC2ERKS1_
	movq	-160(%rbp), %rdi                # 8-byte Reload
.Ltmp143:
	callq	_Z6test_0N4sycl3_V15queueE
.Ltmp144:
	movb	%al, -145(%rbp)                 # 1-byte Spill
	jmp	.LBB47_2
.LBB47_2:                               # %invoke.cont2
	movb	-145(%rbp), %al                 # 1-byte Reload
	movzbl	%al, %eax
	movzbl	-69(%rbp), %ecx
	andl	%ecx, %eax
                                        # kill: def $al killed $al killed $eax
	andb	$1, %al
	movb	%al, -69(%rbp)
	leaq	-88(%rbp), %rdi
	callq	_ZN4sycl3_V15queueD2Ev
	leaq	-104(%rbp), %rdi
	movq	%rdi, -176(%rbp)                # 8-byte Spill
	leaq	-24(%rbp), %rsi
	callq	_ZN4sycl3_V15queueC2ERKS1_
	movq	-176(%rbp), %rdi                # 8-byte Reload
.Ltmp146:
	callq	_Z6test_1N4sycl3_V15queueE
.Ltmp147:
	movb	%al, -161(%rbp)                 # 1-byte Spill
	jmp	.LBB47_3
.LBB47_3:                               # %invoke.cont6
	movb	-161(%rbp), %al                 # 1-byte Reload
	movzbl	%al, %eax
	movzbl	-69(%rbp), %ecx
	andl	%ecx, %eax
                                        # kill: def $al killed $al killed $eax
	andb	$1, %al
	movb	%al, -69(%rbp)
	leaq	-104(%rbp), %rdi
	callq	_ZN4sycl3_V15queueD2Ev
	leaq	-120(%rbp), %rdi
	movq	%rdi, -192(%rbp)                # 8-byte Spill
	leaq	-24(%rbp), %rsi
	callq	_ZN4sycl3_V15queueC2ERKS1_
	movq	-192(%rbp), %rdi                # 8-byte Reload
.Ltmp149:
	callq	_Z6test_2N4sycl3_V15queueE
.Ltmp150:
	movb	%al, -177(%rbp)                 # 1-byte Spill
	jmp	.LBB47_4
.LBB47_4:                               # %invoke.cont16
	movb	-177(%rbp), %al                 # 1-byte Reload
	movzbl	%al, %eax
	movzbl	-69(%rbp), %ecx
	andl	%ecx, %eax
                                        # kill: def $al killed $al killed $eax
	andb	$1, %al
	movb	%al, -69(%rbp)
	leaq	-120(%rbp), %rdi
	callq	_ZN4sycl3_V15queueD2Ev
	leaq	-136(%rbp), %rdi
	movq	%rdi, -208(%rbp)                # 8-byte Spill
	leaq	-24(%rbp), %rsi
	callq	_ZN4sycl3_V15queueC2ERKS1_
	movq	-208(%rbp), %rdi                # 8-byte Reload
.Ltmp152:
	callq	_Z6test_3N4sycl3_V15queueE
.Ltmp153:
	movb	%al, -193(%rbp)                 # 1-byte Spill
	jmp	.LBB47_5
.LBB47_5:                               # %invoke.cont26
	movb	-193(%rbp), %al                 # 1-byte Reload
	andb	$1, %al
	movzbl	%al, %ecx
	movb	-69(%rbp), %al
	andb	$1, %al
	movzbl	%al, %eax
	andl	%ecx, %eax
	cmpl	$0, %eax
	setne	%al
	andb	$1, %al
	movb	%al, -69(%rbp)
	leaq	-136(%rbp), %rdi
	callq	_ZN4sycl3_V15queueD2Ev
	movb	-69(%rbp), %dl
	movl	$1, %eax
	xorl	%ecx, %ecx
	testb	$1, %dl
	cmovnel	%ecx, %eax
	movl	%eax, -4(%rbp)
	leaq	-24(%rbp), %rdi
	callq	_ZN4sycl3_V15queueD2Ev
	movl	-4(%rbp), %eax
	addq	$208, %rsp
	popq	%rbp
	.cfi_def_cfa %rsp, 8
	retq
.LBB47_6:                               # %lpad
	.cfi_def_cfa %rbp, 16
.Ltmp142:
	movq	%rax, %rcx
	movl	%edx, %eax
	movq	%rcx, -64(%rbp)
	movl	%eax, -68(%rbp)
	leaq	-56(%rbp), %rdi
	callq	_ZN4sycl3_V113property_listD2Ev
	jmp	.LBB47_12
.LBB47_7:                               # %lpad1
.Ltmp145:
	movq	%rax, %rcx
	movl	%edx, %eax
	movq	%rcx, -64(%rbp)
	movl	%eax, -68(%rbp)
	leaq	-88(%rbp), %rdi
	callq	_ZN4sycl3_V15queueD2Ev
	jmp	.LBB47_11
.LBB47_8:                               # %lpad5
.Ltmp148:
	movq	%rax, %rcx
	movl	%edx, %eax
	movq	%rcx, -64(%rbp)
	movl	%eax, -68(%rbp)
	leaq	-104(%rbp), %rdi
	callq	_ZN4sycl3_V15queueD2Ev
	jmp	.LBB47_11
.LBB47_9:                               # %lpad15
.Ltmp151:
	movq	%rax, %rcx
	movl	%edx, %eax
	movq	%rcx, -64(%rbp)
	movl	%eax, -68(%rbp)
	leaq	-120(%rbp), %rdi
	callq	_ZN4sycl3_V15queueD2Ev
	jmp	.LBB47_11
.LBB47_10:                              # %lpad25
.Ltmp154:
	movq	%rax, %rcx
	movl	%edx, %eax
	movq	%rcx, -64(%rbp)
	movl	%eax, -68(%rbp)
	leaq	-136(%rbp), %rdi
	callq	_ZN4sycl3_V15queueD2Ev
.LBB47_11:                              # %ehcleanup
	leaq	-24(%rbp), %rdi
	callq	_ZN4sycl3_V15queueD2Ev
.LBB47_12:                              # %eh.resume
	movq	-64(%rbp), %rdi
	callq	_Unwind_Resume@PLT
.Lfunc_end47:
	.size	main, .Lfunc_end47-main
	.cfi_endproc
	.section	.gcc_except_table,"a",@progbits
	.p2align	2, 0x0
GCC_except_table47:
.Lexception13:
	.byte	255                             # @LPStart Encoding = omit
	.byte	255                             # @TType Encoding = omit
	.byte	1                               # Call site Encoding = uleb128
	.uleb128 .Lcst_end13-.Lcst_begin13
.Lcst_begin13:
	.uleb128 .Lfunc_begin13-.Lfunc_begin13  # >> Call Site 1 <<
	.uleb128 .Ltmp140-.Lfunc_begin13        #   Call between .Lfunc_begin13 and .Ltmp140
	.byte	0                               #     has no landing pad
	.byte	0                               #   On action: cleanup
	.uleb128 .Ltmp140-.Lfunc_begin13        # >> Call Site 2 <<
	.uleb128 .Ltmp141-.Ltmp140              #   Call between .Ltmp140 and .Ltmp141
	.uleb128 .Ltmp142-.Lfunc_begin13        #     jumps to .Ltmp142
	.byte	0                               #   On action: cleanup
	.uleb128 .Ltmp143-.Lfunc_begin13        # >> Call Site 3 <<
	.uleb128 .Ltmp144-.Ltmp143              #   Call between .Ltmp143 and .Ltmp144
	.uleb128 .Ltmp145-.Lfunc_begin13        #     jumps to .Ltmp145
	.byte	0                               #   On action: cleanup
	.uleb128 .Ltmp146-.Lfunc_begin13        # >> Call Site 4 <<
	.uleb128 .Ltmp147-.Ltmp146              #   Call between .Ltmp146 and .Ltmp147
	.uleb128 .Ltmp148-.Lfunc_begin13        #     jumps to .Ltmp148
	.byte	0                               #   On action: cleanup
	.uleb128 .Ltmp149-.Lfunc_begin13        # >> Call Site 5 <<
	.uleb128 .Ltmp150-.Ltmp149              #   Call between .Ltmp149 and .Ltmp150
	.uleb128 .Ltmp151-.Lfunc_begin13        #     jumps to .Ltmp151
	.byte	0                               #   On action: cleanup
	.uleb128 .Ltmp152-.Lfunc_begin13        # >> Call Site 6 <<
	.uleb128 .Ltmp153-.Ltmp152              #   Call between .Ltmp152 and .Ltmp153
	.uleb128 .Ltmp154-.Lfunc_begin13        #     jumps to .Ltmp154
	.byte	0                               #   On action: cleanup
	.uleb128 .Ltmp153-.Lfunc_begin13        # >> Call Site 7 <<
	.uleb128 .Lfunc_end47-.Ltmp153          #   Call between .Ltmp153 and .Lfunc_end47
	.byte	0                               #     has no landing pad
	.byte	0                               #   On action: cleanup
.Lcst_end13:
	.p2align	2, 0x0
                                        # -- End function
	.section	.text._ZN4sycl3_V15queueC2ERKNS0_13property_listE,"axG",@progbits,_ZN4sycl3_V15queueC2ERKNS0_13property_listE,comdat
	.weak	_ZN4sycl3_V15queueC2ERKNS0_13property_listE # -- Begin function _ZN4sycl3_V15queueC2ERKNS0_13property_listE
	.p2align	4
	.type	_ZN4sycl3_V15queueC2ERKNS0_13property_listE,@function
_ZN4sycl3_V15queueC2ERKNS0_13property_listE: # @_ZN4sycl3_V15queueC2ERKNS0_13property_listE
.Lfunc_begin14:
	.cfi_startproc
	.cfi_personality 3, __gxx_personality_v0
	.cfi_lsda 3, .Lexception14
# %bb.0:                                # %entry
	pushq	%rbp
	.cfi_def_cfa_offset 16
	.cfi_offset %rbp, -16
	movq	%rsp, %rbp
	.cfi_def_cfa_register %rbp
	subq	$80, %rsp
	movq	%rdi, -8(%rbp)
	movq	%rsi, -16(%rbp)
	movq	-8(%rbp), %rax
	movq	%rax, -80(%rbp)                 # 8-byte Spill
	movl	$_ZN4sycl3_V16detail19defaultAsyncHandlerENS0_14exception_listE, %esi
	leaq	-48(%rbp), %rdi
	movq	%rdi, -72(%rbp)                 # 8-byte Spill
	callq	_ZNSt8functionIFvN4sycl3_V114exception_listEEEC2IRS3_vEEOT_
	movq	-80(%rbp), %rdi                 # 8-byte Reload
	movq	-72(%rbp), %rdx                 # 8-byte Reload
	movq	-16(%rbp), %rcx
.Ltmp155:
	movl	$_ZN4sycl3_V118default_selector_vERKNS0_6deviceE, %esi
	callq	_ZN4sycl3_V15queueC2IFiRKNS0_6deviceEEvEERKT_RKSt8functionIFvNS0_14exception_listEEERKNS0_13property_listE
.Ltmp156:
	jmp	.LBB48_1
.LBB48_1:                               # %invoke.cont
	leaq	-48(%rbp), %rdi
	callq	_ZNSt8functionIFvN4sycl3_V114exception_listEEED2Ev
	addq	$80, %rsp
	popq	%rbp
	.cfi_def_cfa %rsp, 8
	retq
.LBB48_2:                               # %lpad
	.cfi_def_cfa %rbp, 16
.Ltmp157:
	movq	%rax, %rcx
	movl	%edx, %eax
	movq	%rcx, -56(%rbp)
	movl	%eax, -60(%rbp)
	leaq	-48(%rbp), %rdi
	callq	_ZNSt8functionIFvN4sycl3_V114exception_listEEED2Ev
# %bb.3:                                # %eh.resume
	movq	-56(%rbp), %rdi
	callq	_Unwind_Resume@PLT
.Lfunc_end48:
	.size	_ZN4sycl3_V15queueC2ERKNS0_13property_listE, .Lfunc_end48-_ZN4sycl3_V15queueC2ERKNS0_13property_listE
	.cfi_endproc
	.section	.gcc_except_table._ZN4sycl3_V15queueC2ERKNS0_13property_listE,"aG",@progbits,_ZN4sycl3_V15queueC2ERKNS0_13property_listE,comdat
	.p2align	2, 0x0
GCC_except_table48:
.Lexception14:
	.byte	255                             # @LPStart Encoding = omit
	.byte	255                             # @TType Encoding = omit
	.byte	1                               # Call site Encoding = uleb128
	.uleb128 .Lcst_end14-.Lcst_begin14
.Lcst_begin14:
	.uleb128 .Ltmp155-.Lfunc_begin14        # >> Call Site 1 <<
	.uleb128 .Ltmp156-.Ltmp155              #   Call between .Ltmp155 and .Ltmp156
	.uleb128 .Ltmp157-.Lfunc_begin14        #     jumps to .Ltmp157
	.byte	0                               #   On action: cleanup
	.uleb128 .Ltmp156-.Lfunc_begin14        # >> Call Site 2 <<
	.uleb128 .Lfunc_end48-.Ltmp156          #   Call between .Ltmp156 and .Lfunc_end48
	.byte	0                               #     has no landing pad
	.byte	0                               #   On action: cleanup
.Lcst_end14:
	.p2align	2, 0x0
                                        # -- End function
	.section	.text._ZN4sycl3_V15queueC2ERKS1_,"axG",@progbits,_ZN4sycl3_V15queueC2ERKS1_,comdat
	.weak	_ZN4sycl3_V15queueC2ERKS1_      # -- Begin function _ZN4sycl3_V15queueC2ERKS1_
	.p2align	4
	.type	_ZN4sycl3_V15queueC2ERKS1_,@function
_ZN4sycl3_V15queueC2ERKS1_:             # @_ZN4sycl3_V15queueC2ERKS1_
	.cfi_startproc
# %bb.0:                                # %entry
	pushq	%rbp
	.cfi_def_cfa_offset 16
	.cfi_offset %rbp, -16
	movq	%rsp, %rbp
	.cfi_def_cfa_register %rbp
	subq	$16, %rsp
	movq	%rdi, -8(%rbp)
	movq	%rsi, -16(%rbp)
	movq	-8(%rbp), %rdi
	movq	-16(%rbp), %rsi
	callq	_ZNSt10shared_ptrIN4sycl3_V16detail10queue_implEEC2ERKS4_
	addq	$16, %rsp
	popq	%rbp
	.cfi_def_cfa %rsp, 8
	retq
.Lfunc_end49:
	.size	_ZN4sycl3_V15queueC2ERKS1_, .Lfunc_end49-_ZN4sycl3_V15queueC2ERKS1_
	.cfi_endproc
                                        # -- End function
	.section	.text._ZN4sycl3_V15queueD2Ev,"axG",@progbits,_ZN4sycl3_V15queueD2Ev,comdat
	.weak	_ZN4sycl3_V15queueD2Ev          # -- Begin function _ZN4sycl3_V15queueD2Ev
	.p2align	4
	.type	_ZN4sycl3_V15queueD2Ev,@function
_ZN4sycl3_V15queueD2Ev:                 # @_ZN4sycl3_V15queueD2Ev
	.cfi_startproc
# %bb.0:                                # %entry
	pushq	%rbp
	.cfi_def_cfa_offset 16
	.cfi_offset %rbp, -16
	movq	%rsp, %rbp
	.cfi_def_cfa_register %rbp
	subq	$16, %rsp
	movq	%rdi, -8(%rbp)
	movq	-8(%rbp), %rdi
	callq	_ZNSt10shared_ptrIN4sycl3_V16detail10queue_implEED2Ev
	addq	$16, %rsp
	popq	%rbp
	.cfi_def_cfa %rsp, 8
	retq
.Lfunc_end50:
	.size	_ZN4sycl3_V15queueD2Ev, .Lfunc_end50-_ZN4sycl3_V15queueD2Ev
	.cfi_endproc
                                        # -- End function
	.section	.text._ZNSt11char_traitsIcE6lengthEPKc,"axG",@progbits,_ZNSt11char_traitsIcE6lengthEPKc,comdat
	.weak	_ZNSt11char_traitsIcE6lengthEPKc # -- Begin function _ZNSt11char_traitsIcE6lengthEPKc
	.p2align	4
	.type	_ZNSt11char_traitsIcE6lengthEPKc,@function
_ZNSt11char_traitsIcE6lengthEPKc:       # @_ZNSt11char_traitsIcE6lengthEPKc
	.cfi_startproc
# %bb.0:                                # %entry
	pushq	%rbp
	.cfi_def_cfa_offset 16
	.cfi_offset %rbp, -16
	movq	%rsp, %rbp
	.cfi_def_cfa_register %rbp
	subq	$16, %rsp
	movq	%rdi, -8(%rbp)
	movq	-8(%rbp), %rdi
	callq	strlen
	addq	$16, %rsp
	popq	%rbp
	.cfi_def_cfa %rsp, 8
	retq
.Lfunc_end51:
	.size	_ZNSt11char_traitsIcE6lengthEPKc, .Lfunc_end51-_ZNSt11char_traitsIcE6lengthEPKc
	.cfi_endproc
                                        # -- End function
	.section	.text.__clang_call_terminate,"axG",@progbits,__clang_call_terminate,comdat
	.hidden	__clang_call_terminate          # -- Begin function __clang_call_terminate
	.weak	__clang_call_terminate
	.p2align	4
	.type	__clang_call_terminate,@function
__clang_call_terminate:                 # @__clang_call_terminate
	.cfi_startproc
# %bb.0:
	pushq	%rbp
	.cfi_def_cfa_offset 16
	.cfi_offset %rbp, -16
	movq	%rsp, %rbp
	.cfi_def_cfa_register %rbp
	callq	__cxa_begin_catch
	callq	_ZSt9terminatev
.Lfunc_end52:
	.size	__clang_call_terminate, .Lfunc_end52-__clang_call_terminate
	.cfi_endproc
                                        # -- End function
	.section	.text._ZNKSt17basic_string_viewIcSt11char_traitsIcEE4dataEv,"axG",@progbits,_ZNKSt17basic_string_viewIcSt11char_traitsIcEE4dataEv,comdat
	.weak	_ZNKSt17basic_string_viewIcSt11char_traitsIcEE4dataEv # -- Begin function _ZNKSt17basic_string_viewIcSt11char_traitsIcEE4dataEv
	.p2align	4
	.type	_ZNKSt17basic_string_viewIcSt11char_traitsIcEE4dataEv,@function
_ZNKSt17basic_string_viewIcSt11char_traitsIcEE4dataEv: # @_ZNKSt17basic_string_viewIcSt11char_traitsIcEE4dataEv
	.cfi_startproc
# %bb.0:                                # %entry
	pushq	%rbp
	.cfi_def_cfa_offset 16
	.cfi_offset %rbp, -16
	movq	%rsp, %rbp
	.cfi_def_cfa_register %rbp
	movq	%rdi, -8(%rbp)
	movq	-8(%rbp), %rax
	movq	8(%rax), %rax
	popq	%rbp
	.cfi_def_cfa %rsp, 8
	retq
.Lfunc_end53:
	.size	_ZNKSt17basic_string_viewIcSt11char_traitsIcEE4dataEv, .Lfunc_end53-_ZNKSt17basic_string_viewIcSt11char_traitsIcEE4dataEv
	.cfi_endproc
                                        # -- End function
	.section	.text._ZN4sycl3_V16detail13code_locationC2EPKcS4_ii,"axG",@progbits,_ZN4sycl3_V16detail13code_locationC2EPKcS4_ii,comdat
	.weak	_ZN4sycl3_V16detail13code_locationC2EPKcS4_ii # -- Begin function _ZN4sycl3_V16detail13code_locationC2EPKcS4_ii
	.p2align	4
	.type	_ZN4sycl3_V16detail13code_locationC2EPKcS4_ii,@function
_ZN4sycl3_V16detail13code_locationC2EPKcS4_ii: # @_ZN4sycl3_V16detail13code_locationC2EPKcS4_ii
	.cfi_startproc
# %bb.0:                                # %entry
	pushq	%rbp
	.cfi_def_cfa_offset 16
	.cfi_offset %rbp, -16
	movq	%rsp, %rbp
	.cfi_def_cfa_register %rbp
	movq	%rdi, -8(%rbp)
	movq	%rsi, -16(%rbp)
	movq	%rdx, -24(%rbp)
	movl	%ecx, -28(%rbp)
	movl	%r8d, -32(%rbp)
	movq	-8(%rbp), %rax
	movq	-16(%rbp), %rcx
	movq	%rcx, (%rax)
	movq	-24(%rbp), %rcx
	movq	%rcx, 8(%rax)
	movslq	-28(%rbp), %rcx
	movq	%rcx, 16(%rax)
	movslq	-32(%rbp), %rcx
	movq	%rcx, 24(%rax)
	popq	%rbp
	.cfi_def_cfa %rsp, 8
	retq
.Lfunc_end54:
	.size	_ZN4sycl3_V16detail13code_locationC2EPKcS4_ii, .Lfunc_end54-_ZN4sycl3_V16detail13code_locationC2EPKcS4_ii
	.cfi_endproc
                                        # -- End function
	.section	.text._ZN4sycl3_V16detail16PropertyListBaseD2Ev,"axG",@progbits,_ZN4sycl3_V16detail16PropertyListBaseD2Ev,comdat
	.weak	_ZN4sycl3_V16detail16PropertyListBaseD2Ev # -- Begin function _ZN4sycl3_V16detail16PropertyListBaseD2Ev
	.p2align	4
	.type	_ZN4sycl3_V16detail16PropertyListBaseD2Ev,@function
_ZN4sycl3_V16detail16PropertyListBaseD2Ev: # @_ZN4sycl3_V16detail16PropertyListBaseD2Ev
	.cfi_startproc
# %bb.0:                                # %entry
	pushq	%rbp
	.cfi_def_cfa_offset 16
	.cfi_offset %rbp, -16
	movq	%rsp, %rbp
	.cfi_def_cfa_register %rbp
	subq	$16, %rsp
	movq	%rdi, -8(%rbp)
	movq	-8(%rbp), %rdi
	addq	$8, %rdi
	callq	_ZNSt6vectorISt10shared_ptrIN4sycl3_V16detail20PropertyWithDataBaseEESaIS5_EED2Ev
	addq	$16, %rsp
	popq	%rbp
	.cfi_def_cfa %rsp, 8
	retq
.Lfunc_end55:
	.size	_ZN4sycl3_V16detail16PropertyListBaseD2Ev, .Lfunc_end55-_ZN4sycl3_V16detail16PropertyListBaseD2Ev
	.cfi_endproc
                                        # -- End function
	.section	.text._ZNSt6vectorISt10shared_ptrIN4sycl3_V16detail20PropertyWithDataBaseEESaIS5_EED2Ev,"axG",@progbits,_ZNSt6vectorISt10shared_ptrIN4sycl3_V16detail20PropertyWithDataBaseEESaIS5_EED2Ev,comdat
	.weak	_ZNSt6vectorISt10shared_ptrIN4sycl3_V16detail20PropertyWithDataBaseEESaIS5_EED2Ev # -- Begin function _ZNSt6vectorISt10shared_ptrIN4sycl3_V16detail20PropertyWithDataBaseEESaIS5_EED2Ev
	.p2align	4
	.type	_ZNSt6vectorISt10shared_ptrIN4sycl3_V16detail20PropertyWithDataBaseEESaIS5_EED2Ev,@function
_ZNSt6vectorISt10shared_ptrIN4sycl3_V16detail20PropertyWithDataBaseEESaIS5_EED2Ev: # @_ZNSt6vectorISt10shared_ptrIN4sycl3_V16detail20PropertyWithDataBaseEESaIS5_EED2Ev
.Lfunc_begin15:
	.cfi_startproc
	.cfi_personality 3, __gxx_personality_v0
	.cfi_lsda 3, .Lexception15
# %bb.0:                                # %entry
	pushq	%rbp
	.cfi_def_cfa_offset 16
	.cfi_offset %rbp, -16
	movq	%rsp, %rbp
	.cfi_def_cfa_register %rbp
	subq	$64, %rsp
	movq	%rdi, -32(%rbp)
	movq	-32(%rbp), %rdi
	movq	%rdi, -56(%rbp)                 # 8-byte Spill
	movq	(%rdi), %rax
	movq	%rax, -48(%rbp)                 # 8-byte Spill
	movq	8(%rdi), %rax
	movq	%rax, -40(%rbp)                 # 8-byte Spill
	callq	_ZNSt12_Vector_baseISt10shared_ptrIN4sycl3_V16detail20PropertyWithDataBaseEESaIS5_EE19_M_get_Tp_allocatorEv
	movq	-48(%rbp), %rdx                 # 8-byte Reload
	movq	-40(%rbp), %rcx                 # 8-byte Reload
	movq	%rdx, -8(%rbp)
	movq	%rcx, -16(%rbp)
	movq	%rax, -24(%rbp)
	movq	-8(%rbp), %rdi
	movq	-16(%rbp), %rsi
.Ltmp158:
	callq	_ZSt8_DestroyIPSt10shared_ptrIN4sycl3_V16detail20PropertyWithDataBaseEEEvT_S7_
.Ltmp159:
	jmp	.LBB56_1
.LBB56_1:                               # %_ZSt8_DestroyIPSt10shared_ptrIN4sycl3_V16detail20PropertyWithDataBaseEES5_EvT_S7_RSaIT0_E.exit
	jmp	.LBB56_2
.LBB56_2:                               # %invoke.cont
	movq	-56(%rbp), %rdi                 # 8-byte Reload
	callq	_ZNSt12_Vector_baseISt10shared_ptrIN4sycl3_V16detail20PropertyWithDataBaseEESaIS5_EED2Ev
	addq	$64, %rsp
	popq	%rbp
	.cfi_def_cfa %rsp, 8
	retq
.LBB56_3:                               # %terminate.lpad
	.cfi_def_cfa %rbp, 16
.Ltmp160:
	movq	%rax, %rdi
                                        # kill: def $eax killed $edx killed $rdx
	callq	__clang_call_terminate
.Lfunc_end56:
	.size	_ZNSt6vectorISt10shared_ptrIN4sycl3_V16detail20PropertyWithDataBaseEESaIS5_EED2Ev, .Lfunc_end56-_ZNSt6vectorISt10shared_ptrIN4sycl3_V16detail20PropertyWithDataBaseEESaIS5_EED2Ev
	.cfi_endproc
	.section	.gcc_except_table._ZNSt6vectorISt10shared_ptrIN4sycl3_V16detail20PropertyWithDataBaseEESaIS5_EED2Ev,"aG",@progbits,_ZNSt6vectorISt10shared_ptrIN4sycl3_V16detail20PropertyWithDataBaseEESaIS5_EED2Ev,comdat
	.p2align	2, 0x0
GCC_except_table56:
.Lexception15:
	.byte	255                             # @LPStart Encoding = omit
	.byte	3                               # @TType Encoding = udata4
	.uleb128 .Lttbase1-.Lttbaseref1
.Lttbaseref1:
	.byte	1                               # Call site Encoding = uleb128
	.uleb128 .Lcst_end15-.Lcst_begin15
.Lcst_begin15:
	.uleb128 .Ltmp158-.Lfunc_begin15        # >> Call Site 1 <<
	.uleb128 .Ltmp159-.Ltmp158              #   Call between .Ltmp158 and .Ltmp159
	.uleb128 .Ltmp160-.Lfunc_begin15        #     jumps to .Ltmp160
	.byte	1                               #   On action: 1
.Lcst_end15:
	.byte	1                               # >> Action Record 1 <<
                                        #   Catch TypeInfo 1
	.byte	0                               #   No further actions
	.p2align	2, 0x0
                                        # >> Catch TypeInfos <<
	.long	0                               # TypeInfo 1
.Lttbase1:
	.p2align	2, 0x0
                                        # -- End function
	.section	.text._ZNSt12_Vector_baseISt10shared_ptrIN4sycl3_V16detail20PropertyWithDataBaseEESaIS5_EE19_M_get_Tp_allocatorEv,"axG",@progbits,_ZNSt12_Vector_baseISt10shared_ptrIN4sycl3_V16detail20PropertyWithDataBaseEESaIS5_EE19_M_get_Tp_allocatorEv,comdat
	.weak	_ZNSt12_Vector_baseISt10shared_ptrIN4sycl3_V16detail20PropertyWithDataBaseEESaIS5_EE19_M_get_Tp_allocatorEv # -- Begin function _ZNSt12_Vector_baseISt10shared_ptrIN4sycl3_V16detail20PropertyWithDataBaseEESaIS5_EE19_M_get_Tp_allocatorEv
	.p2align	4
	.type	_ZNSt12_Vector_baseISt10shared_ptrIN4sycl3_V16detail20PropertyWithDataBaseEESaIS5_EE19_M_get_Tp_allocatorEv,@function
_ZNSt12_Vector_baseISt10shared_ptrIN4sycl3_V16detail20PropertyWithDataBaseEESaIS5_EE19_M_get_Tp_allocatorEv: # @_ZNSt12_Vector_baseISt10shared_ptrIN4sycl3_V16detail20PropertyWithDataBaseEESaIS5_EE19_M_get_Tp_allocatorEv
	.cfi_startproc
# %bb.0:                                # %entry
	pushq	%rbp
	.cfi_def_cfa_offset 16
	.cfi_offset %rbp, -16
	movq	%rsp, %rbp
	.cfi_def_cfa_register %rbp
	movq	%rdi, -8(%rbp)
	movq	-8(%rbp), %rax
	popq	%rbp
	.cfi_def_cfa %rsp, 8
	retq
.Lfunc_end57:
	.size	_ZNSt12_Vector_baseISt10shared_ptrIN4sycl3_V16detail20PropertyWithDataBaseEESaIS5_EE19_M_get_Tp_allocatorEv, .Lfunc_end57-_ZNSt12_Vector_baseISt10shared_ptrIN4sycl3_V16detail20PropertyWithDataBaseEESaIS5_EE19_M_get_Tp_allocatorEv
	.cfi_endproc
                                        # -- End function
	.section	.text._ZNSt12_Vector_baseISt10shared_ptrIN4sycl3_V16detail20PropertyWithDataBaseEESaIS5_EED2Ev,"axG",@progbits,_ZNSt12_Vector_baseISt10shared_ptrIN4sycl3_V16detail20PropertyWithDataBaseEESaIS5_EED2Ev,comdat
	.weak	_ZNSt12_Vector_baseISt10shared_ptrIN4sycl3_V16detail20PropertyWithDataBaseEESaIS5_EED2Ev # -- Begin function _ZNSt12_Vector_baseISt10shared_ptrIN4sycl3_V16detail20PropertyWithDataBaseEESaIS5_EED2Ev
	.p2align	4
	.type	_ZNSt12_Vector_baseISt10shared_ptrIN4sycl3_V16detail20PropertyWithDataBaseEESaIS5_EED2Ev,@function
_ZNSt12_Vector_baseISt10shared_ptrIN4sycl3_V16detail20PropertyWithDataBaseEESaIS5_EED2Ev: # @_ZNSt12_Vector_baseISt10shared_ptrIN4sycl3_V16detail20PropertyWithDataBaseEESaIS5_EED2Ev
.Lfunc_begin16:
	.cfi_startproc
	.cfi_personality 3, __gxx_personality_v0
	.cfi_lsda 3, .Lexception16
# %bb.0:                                # %entry
	pushq	%rbp
	.cfi_def_cfa_offset 16
	.cfi_offset %rbp, -16
	movq	%rsp, %rbp
	.cfi_def_cfa_register %rbp
	subq	$16, %rsp
	movq	%rdi, -8(%rbp)
	movq	-8(%rbp), %rdi
	movq	%rdi, -16(%rbp)                 # 8-byte Spill
	movq	(%rdi), %rsi
	movq	16(%rdi), %rdx
	subq	%rsi, %rdx
	sarq	$4, %rdx
.Ltmp161:
	callq	_ZNSt12_Vector_baseISt10shared_ptrIN4sycl3_V16detail20PropertyWithDataBaseEESaIS5_EE13_M_deallocateEPS5_m
.Ltmp162:
	jmp	.LBB58_1
.LBB58_1:                               # %invoke.cont
	movq	-16(%rbp), %rdi                 # 8-byte Reload
	callq	_ZNSt12_Vector_baseISt10shared_ptrIN4sycl3_V16detail20PropertyWithDataBaseEESaIS5_EE12_Vector_implD2Ev
	addq	$16, %rsp
	popq	%rbp
	.cfi_def_cfa %rsp, 8
	retq
.LBB58_2:                               # %terminate.lpad
	.cfi_def_cfa %rbp, 16
.Ltmp163:
	movq	%rax, %rdi
                                        # kill: def $eax killed $edx killed $rdx
	callq	__clang_call_terminate
.Lfunc_end58:
	.size	_ZNSt12_Vector_baseISt10shared_ptrIN4sycl3_V16detail20PropertyWithDataBaseEESaIS5_EED2Ev, .Lfunc_end58-_ZNSt12_Vector_baseISt10shared_ptrIN4sycl3_V16detail20PropertyWithDataBaseEESaIS5_EED2Ev
	.cfi_endproc
	.section	.gcc_except_table._ZNSt12_Vector_baseISt10shared_ptrIN4sycl3_V16detail20PropertyWithDataBaseEESaIS5_EED2Ev,"aG",@progbits,_ZNSt12_Vector_baseISt10shared_ptrIN4sycl3_V16detail20PropertyWithDataBaseEESaIS5_EED2Ev,comdat
	.p2align	2, 0x0
GCC_except_table58:
.Lexception16:
	.byte	255                             # @LPStart Encoding = omit
	.byte	3                               # @TType Encoding = udata4
	.uleb128 .Lttbase2-.Lttbaseref2
.Lttbaseref2:
	.byte	1                               # Call site Encoding = uleb128
	.uleb128 .Lcst_end16-.Lcst_begin16
.Lcst_begin16:
	.uleb128 .Ltmp161-.Lfunc_begin16        # >> Call Site 1 <<
	.uleb128 .Ltmp162-.Ltmp161              #   Call between .Ltmp161 and .Ltmp162
	.uleb128 .Ltmp163-.Lfunc_begin16        #     jumps to .Ltmp163
	.byte	1                               #   On action: 1
.Lcst_end16:
	.byte	1                               # >> Action Record 1 <<
                                        #   Catch TypeInfo 1
	.byte	0                               #   No further actions
	.p2align	2, 0x0
                                        # >> Catch TypeInfos <<
	.long	0                               # TypeInfo 1
.Lttbase2:
	.p2align	2, 0x0
                                        # -- End function
	.section	.text._ZSt8_DestroyIPSt10shared_ptrIN4sycl3_V16detail20PropertyWithDataBaseEEEvT_S7_,"axG",@progbits,_ZSt8_DestroyIPSt10shared_ptrIN4sycl3_V16detail20PropertyWithDataBaseEEEvT_S7_,comdat
	.weak	_ZSt8_DestroyIPSt10shared_ptrIN4sycl3_V16detail20PropertyWithDataBaseEEEvT_S7_ # -- Begin function _ZSt8_DestroyIPSt10shared_ptrIN4sycl3_V16detail20PropertyWithDataBaseEEEvT_S7_
	.p2align	4
	.type	_ZSt8_DestroyIPSt10shared_ptrIN4sycl3_V16detail20PropertyWithDataBaseEEEvT_S7_,@function
_ZSt8_DestroyIPSt10shared_ptrIN4sycl3_V16detail20PropertyWithDataBaseEEEvT_S7_: # @_ZSt8_DestroyIPSt10shared_ptrIN4sycl3_V16detail20PropertyWithDataBaseEEEvT_S7_
	.cfi_startproc
# %bb.0:                                # %entry
	pushq	%rbp
	.cfi_def_cfa_offset 16
	.cfi_offset %rbp, -16
	movq	%rsp, %rbp
	.cfi_def_cfa_register %rbp
	subq	$16, %rsp
	movq	%rdi, -8(%rbp)
	movq	%rsi, -16(%rbp)
	movq	-8(%rbp), %rdi
	movq	-16(%rbp), %rsi
	callq	_ZNSt12_Destroy_auxILb0EE9__destroyIPSt10shared_ptrIN4sycl3_V16detail20PropertyWithDataBaseEEEEvT_S9_
	addq	$16, %rsp
	popq	%rbp
	.cfi_def_cfa %rsp, 8
	retq
.Lfunc_end59:
	.size	_ZSt8_DestroyIPSt10shared_ptrIN4sycl3_V16detail20PropertyWithDataBaseEEEvT_S7_, .Lfunc_end59-_ZSt8_DestroyIPSt10shared_ptrIN4sycl3_V16detail20PropertyWithDataBaseEEEvT_S7_
	.cfi_endproc
                                        # -- End function
	.section	.text._ZNSt12_Destroy_auxILb0EE9__destroyIPSt10shared_ptrIN4sycl3_V16detail20PropertyWithDataBaseEEEEvT_S9_,"axG",@progbits,_ZNSt12_Destroy_auxILb0EE9__destroyIPSt10shared_ptrIN4sycl3_V16detail20PropertyWithDataBaseEEEEvT_S9_,comdat
	.weak	_ZNSt12_Destroy_auxILb0EE9__destroyIPSt10shared_ptrIN4sycl3_V16detail20PropertyWithDataBaseEEEEvT_S9_ # -- Begin function _ZNSt12_Destroy_auxILb0EE9__destroyIPSt10shared_ptrIN4sycl3_V16detail20PropertyWithDataBaseEEEEvT_S9_
	.p2align	4
	.type	_ZNSt12_Destroy_auxILb0EE9__destroyIPSt10shared_ptrIN4sycl3_V16detail20PropertyWithDataBaseEEEEvT_S9_,@function
_ZNSt12_Destroy_auxILb0EE9__destroyIPSt10shared_ptrIN4sycl3_V16detail20PropertyWithDataBaseEEEEvT_S9_: # @_ZNSt12_Destroy_auxILb0EE9__destroyIPSt10shared_ptrIN4sycl3_V16detail20PropertyWithDataBaseEEEEvT_S9_
	.cfi_startproc
# %bb.0:                                # %entry
	pushq	%rbp
	.cfi_def_cfa_offset 16
	.cfi_offset %rbp, -16
	movq	%rsp, %rbp
	.cfi_def_cfa_register %rbp
	subq	$16, %rsp
	movq	%rdi, -8(%rbp)
	movq	%rsi, -16(%rbp)
.LBB60_1:                               # %for.cond
                                        # =>This Inner Loop Header: Depth=1
	movq	-8(%rbp), %rax
	cmpq	-16(%rbp), %rax
	je	.LBB60_4
# %bb.2:                                # %for.body
                                        #   in Loop: Header=BB60_1 Depth=1
	movq	-8(%rbp), %rdi
	callq	_ZSt8_DestroyISt10shared_ptrIN4sycl3_V16detail20PropertyWithDataBaseEEEvPT_
# %bb.3:                                # %for.inc
                                        #   in Loop: Header=BB60_1 Depth=1
	movq	-8(%rbp), %rax
	addq	$16, %rax
	movq	%rax, -8(%rbp)
	jmp	.LBB60_1
.LBB60_4:                               # %for.end
	addq	$16, %rsp
	popq	%rbp
	.cfi_def_cfa %rsp, 8
	retq
.Lfunc_end60:
	.size	_ZNSt12_Destroy_auxILb0EE9__destroyIPSt10shared_ptrIN4sycl3_V16detail20PropertyWithDataBaseEEEEvT_S9_, .Lfunc_end60-_ZNSt12_Destroy_auxILb0EE9__destroyIPSt10shared_ptrIN4sycl3_V16detail20PropertyWithDataBaseEEEEvT_S9_
	.cfi_endproc
                                        # -- End function
	.section	.text._ZSt8_DestroyISt10shared_ptrIN4sycl3_V16detail20PropertyWithDataBaseEEEvPT_,"axG",@progbits,_ZSt8_DestroyISt10shared_ptrIN4sycl3_V16detail20PropertyWithDataBaseEEEvPT_,comdat
	.weak	_ZSt8_DestroyISt10shared_ptrIN4sycl3_V16detail20PropertyWithDataBaseEEEvPT_ # -- Begin function _ZSt8_DestroyISt10shared_ptrIN4sycl3_V16detail20PropertyWithDataBaseEEEvPT_
	.p2align	4
	.type	_ZSt8_DestroyISt10shared_ptrIN4sycl3_V16detail20PropertyWithDataBaseEEEvPT_,@function
_ZSt8_DestroyISt10shared_ptrIN4sycl3_V16detail20PropertyWithDataBaseEEEvPT_: # @_ZSt8_DestroyISt10shared_ptrIN4sycl3_V16detail20PropertyWithDataBaseEEEvPT_
	.cfi_startproc
# %bb.0:                                # %entry
	pushq	%rbp
	.cfi_def_cfa_offset 16
	.cfi_offset %rbp, -16
	movq	%rsp, %rbp
	.cfi_def_cfa_register %rbp
	subq	$16, %rsp
	movq	%rdi, -8(%rbp)
	movq	-8(%rbp), %rdi
	callq	_ZNSt10shared_ptrIN4sycl3_V16detail20PropertyWithDataBaseEED2Ev
	addq	$16, %rsp
	popq	%rbp
	.cfi_def_cfa %rsp, 8
	retq
.Lfunc_end61:
	.size	_ZSt8_DestroyISt10shared_ptrIN4sycl3_V16detail20PropertyWithDataBaseEEEvPT_, .Lfunc_end61-_ZSt8_DestroyISt10shared_ptrIN4sycl3_V16detail20PropertyWithDataBaseEEEvPT_
	.cfi_endproc
                                        # -- End function
	.section	.text._ZNSt10shared_ptrIN4sycl3_V16detail20PropertyWithDataBaseEED2Ev,"axG",@progbits,_ZNSt10shared_ptrIN4sycl3_V16detail20PropertyWithDataBaseEED2Ev,comdat
	.weak	_ZNSt10shared_ptrIN4sycl3_V16detail20PropertyWithDataBaseEED2Ev # -- Begin function _ZNSt10shared_ptrIN4sycl3_V16detail20PropertyWithDataBaseEED2Ev
	.p2align	4
	.type	_ZNSt10shared_ptrIN4sycl3_V16detail20PropertyWithDataBaseEED2Ev,@function
_ZNSt10shared_ptrIN4sycl3_V16detail20PropertyWithDataBaseEED2Ev: # @_ZNSt10shared_ptrIN4sycl3_V16detail20PropertyWithDataBaseEED2Ev
	.cfi_startproc
# %bb.0:                                # %entry
	pushq	%rbp
	.cfi_def_cfa_offset 16
	.cfi_offset %rbp, -16
	movq	%rsp, %rbp
	.cfi_def_cfa_register %rbp
	subq	$16, %rsp
	movq	%rdi, -8(%rbp)
	movq	-8(%rbp), %rdi
	callq	_ZNSt12__shared_ptrIN4sycl3_V16detail20PropertyWithDataBaseELN9__gnu_cxx12_Lock_policyE2EED2Ev
	addq	$16, %rsp
	popq	%rbp
	.cfi_def_cfa %rsp, 8
	retq
.Lfunc_end62:
	.size	_ZNSt10shared_ptrIN4sycl3_V16detail20PropertyWithDataBaseEED2Ev, .Lfunc_end62-_ZNSt10shared_ptrIN4sycl3_V16detail20PropertyWithDataBaseEED2Ev
	.cfi_endproc
                                        # -- End function
	.section	.text._ZNSt12__shared_ptrIN4sycl3_V16detail20PropertyWithDataBaseELN9__gnu_cxx12_Lock_policyE2EED2Ev,"axG",@progbits,_ZNSt12__shared_ptrIN4sycl3_V16detail20PropertyWithDataBaseELN9__gnu_cxx12_Lock_policyE2EED2Ev,comdat
	.weak	_ZNSt12__shared_ptrIN4sycl3_V16detail20PropertyWithDataBaseELN9__gnu_cxx12_Lock_policyE2EED2Ev # -- Begin function _ZNSt12__shared_ptrIN4sycl3_V16detail20PropertyWithDataBaseELN9__gnu_cxx12_Lock_policyE2EED2Ev
	.p2align	4
	.type	_ZNSt12__shared_ptrIN4sycl3_V16detail20PropertyWithDataBaseELN9__gnu_cxx12_Lock_policyE2EED2Ev,@function
_ZNSt12__shared_ptrIN4sycl3_V16detail20PropertyWithDataBaseELN9__gnu_cxx12_Lock_policyE2EED2Ev: # @_ZNSt12__shared_ptrIN4sycl3_V16detail20PropertyWithDataBaseELN9__gnu_cxx12_Lock_policyE2EED2Ev
	.cfi_startproc
# %bb.0:                                # %entry
	pushq	%rbp
	.cfi_def_cfa_offset 16
	.cfi_offset %rbp, -16
	movq	%rsp, %rbp
	.cfi_def_cfa_register %rbp
	subq	$16, %rsp
	movq	%rdi, -8(%rbp)
	movq	-8(%rbp), %rdi
	addq	$8, %rdi
	callq	_ZNSt14__shared_countILN9__gnu_cxx12_Lock_policyE2EED2Ev
	addq	$16, %rsp
	popq	%rbp
	.cfi_def_cfa %rsp, 8
	retq
.Lfunc_end63:
	.size	_ZNSt12__shared_ptrIN4sycl3_V16detail20PropertyWithDataBaseELN9__gnu_cxx12_Lock_policyE2EED2Ev, .Lfunc_end63-_ZNSt12__shared_ptrIN4sycl3_V16detail20PropertyWithDataBaseELN9__gnu_cxx12_Lock_policyE2EED2Ev
	.cfi_endproc
                                        # -- End function
	.section	.text._ZNSt14__shared_countILN9__gnu_cxx12_Lock_policyE2EED2Ev,"axG",@progbits,_ZNSt14__shared_countILN9__gnu_cxx12_Lock_policyE2EED2Ev,comdat
	.weak	_ZNSt14__shared_countILN9__gnu_cxx12_Lock_policyE2EED2Ev # -- Begin function _ZNSt14__shared_countILN9__gnu_cxx12_Lock_policyE2EED2Ev
	.p2align	4
	.type	_ZNSt14__shared_countILN9__gnu_cxx12_Lock_policyE2EED2Ev,@function
_ZNSt14__shared_countILN9__gnu_cxx12_Lock_policyE2EED2Ev: # @_ZNSt14__shared_countILN9__gnu_cxx12_Lock_policyE2EED2Ev
	.cfi_startproc
# %bb.0:                                # %entry
	pushq	%rbp
	.cfi_def_cfa_offset 16
	.cfi_offset %rbp, -16
	movq	%rsp, %rbp
	.cfi_def_cfa_register %rbp
	subq	$16, %rsp
	movq	%rdi, -8(%rbp)
	movq	-8(%rbp), %rax
	movq	%rax, -16(%rbp)                 # 8-byte Spill
	cmpq	$0, (%rax)
	je	.LBB64_2
# %bb.1:                                # %if.then
	movq	-16(%rbp), %rax                 # 8-byte Reload
	movq	(%rax), %rdi
	callq	_ZNSt16_Sp_counted_baseILN9__gnu_cxx12_Lock_policyE2EE10_M_releaseEv
.LBB64_2:                               # %if.end
	addq	$16, %rsp
	popq	%rbp
	.cfi_def_cfa %rsp, 8
	retq
.Lfunc_end64:
	.size	_ZNSt14__shared_countILN9__gnu_cxx12_Lock_policyE2EED2Ev, .Lfunc_end64-_ZNSt14__shared_countILN9__gnu_cxx12_Lock_policyE2EED2Ev
	.cfi_endproc
                                        # -- End function
	.section	.text._ZNSt16_Sp_counted_baseILN9__gnu_cxx12_Lock_policyE2EE10_M_releaseEv,"axG",@progbits,_ZNSt16_Sp_counted_baseILN9__gnu_cxx12_Lock_policyE2EE10_M_releaseEv,comdat
	.weak	_ZNSt16_Sp_counted_baseILN9__gnu_cxx12_Lock_policyE2EE10_M_releaseEv # -- Begin function _ZNSt16_Sp_counted_baseILN9__gnu_cxx12_Lock_policyE2EE10_M_releaseEv
	.p2align	4
	.type	_ZNSt16_Sp_counted_baseILN9__gnu_cxx12_Lock_policyE2EE10_M_releaseEv,@function
_ZNSt16_Sp_counted_baseILN9__gnu_cxx12_Lock_policyE2EE10_M_releaseEv: # @_ZNSt16_Sp_counted_baseILN9__gnu_cxx12_Lock_policyE2EE10_M_releaseEv
	.cfi_startproc
# %bb.0:                                # %entry
	pushq	%rbp
	.cfi_def_cfa_offset 16
	.cfi_offset %rbp, -16
	movq	%rsp, %rbp
	.cfi_def_cfa_register %rbp
	subq	$128, %rsp
	movq	%rdi, -72(%rbp)
	movq	-72(%rbp), %rax
	movq	%rax, -120(%rbp)                # 8-byte Spill
	movb	$1, -73(%rbp)
	movb	$1, -74(%rbp)
	movb	$1, -75(%rbp)
	movl	$32, -80(%rbp)
	movl	$32, -84(%rbp)
	movabsq	$4294967297, %rcx               # imm = 0x100000001
	movq	%rcx, -96(%rbp)
	addq	$8, %rax
	movq	%rax, -104(%rbp)
	movq	-104(%rbp), %rax
	movq	(%rax), %rax
	movq	%rax, -112(%rbp)
	movabsq	$4294967297, %rax               # imm = 0x100000001
	cmpq	%rax, -112(%rbp)
	jne	.LBB65_2
# %bb.1:                                # %if.then
	movq	-120(%rbp), %rdi                # 8-byte Reload
	movl	$0, 8(%rdi)
	movl	$0, 12(%rdi)
	movq	(%rdi), %rax
	callq	*16(%rax)
	movq	-120(%rbp), %rdi                # 8-byte Reload
	movq	(%rdi), %rax
	callq	*24(%rax)
	jmp	.LBB65_8
.LBB65_2:                               # %if.end
	movq	-120(%rbp), %rax                # 8-byte Reload
	addq	$8, %rax
	movq	%rax, -56(%rbp)
	movl	$-1, -60(%rbp)
	cmpb	$0, __libc_single_threaded
	je	.LBB65_4
# %bb.3:                                # %if.then.i
	movq	-56(%rbp), %rcx
	movl	-60(%rbp), %eax
	movq	%rcx, -32(%rbp)
	movl	%eax, -36(%rbp)
	movq	-32(%rbp), %rax
	movl	(%rax), %eax
	movl	%eax, -40(%rbp)
	movl	-36(%rbp), %ecx
	movq	-32(%rbp), %rax
	addl	(%rax), %ecx
	movl	%ecx, (%rax)
	movl	-40(%rbp), %eax
	movl	%eax, -44(%rbp)
	jmp	.LBB65_5
.LBB65_4:                               # %if.else.i
	movq	-56(%rbp), %rcx
	movl	-60(%rbp), %eax
	movq	%rcx, -8(%rbp)
	movl	%eax, -12(%rbp)
	movq	-8(%rbp), %rcx
	movl	-12(%rbp), %eax
	movl	%eax, -16(%rbp)
	movl	-16(%rbp), %eax
	lock		xaddl	%eax, (%rcx)
	movl	%eax, -20(%rbp)
	movl	-20(%rbp), %eax
	movl	%eax, -44(%rbp)
.LBB65_5:                               # %_ZN9__gnu_cxx27__exchange_and_add_dispatchEPii.exit
	movl	-44(%rbp), %eax
	movl	%eax, -124(%rbp)                # 4-byte Spill
# %bb.6:                                # %invoke.cont
	movl	-124(%rbp), %eax                # 4-byte Reload
	cmpl	$1, %eax
	jne	.LBB65_8
# %bb.7:                                # %if.then7
	movq	-120(%rbp), %rdi                # 8-byte Reload
	callq	_ZNSt16_Sp_counted_baseILN9__gnu_cxx12_Lock_policyE2EE24_M_release_last_use_coldEv
.LBB65_8:                               # %if.end8
	addq	$128, %rsp
	popq	%rbp
	.cfi_def_cfa %rsp, 8
	retq
.Lfunc_end65:
	.size	_ZNSt16_Sp_counted_baseILN9__gnu_cxx12_Lock_policyE2EE10_M_releaseEv, .Lfunc_end65-_ZNSt16_Sp_counted_baseILN9__gnu_cxx12_Lock_policyE2EE10_M_releaseEv
	.cfi_endproc
                                        # -- End function
	.section	.text._ZNSt16_Sp_counted_baseILN9__gnu_cxx12_Lock_policyE2EE24_M_release_last_use_coldEv,"axG",@progbits,_ZNSt16_Sp_counted_baseILN9__gnu_cxx12_Lock_policyE2EE24_M_release_last_use_coldEv,comdat
	.weak	_ZNSt16_Sp_counted_baseILN9__gnu_cxx12_Lock_policyE2EE24_M_release_last_use_coldEv # -- Begin function _ZNSt16_Sp_counted_baseILN9__gnu_cxx12_Lock_policyE2EE24_M_release_last_use_coldEv
	.p2align	4
	.type	_ZNSt16_Sp_counted_baseILN9__gnu_cxx12_Lock_policyE2EE24_M_release_last_use_coldEv,@function
_ZNSt16_Sp_counted_baseILN9__gnu_cxx12_Lock_policyE2EE24_M_release_last_use_coldEv: # @_ZNSt16_Sp_counted_baseILN9__gnu_cxx12_Lock_policyE2EE24_M_release_last_use_coldEv
	.cfi_startproc
# %bb.0:                                # %entry
	pushq	%rbp
	.cfi_def_cfa_offset 16
	.cfi_offset %rbp, -16
	movq	%rsp, %rbp
	.cfi_def_cfa_register %rbp
	subq	$16, %rsp
	movq	%rdi, -8(%rbp)
	movq	-8(%rbp), %rdi
	callq	_ZNSt16_Sp_counted_baseILN9__gnu_cxx12_Lock_policyE2EE19_M_release_last_useEv
	addq	$16, %rsp
	popq	%rbp
	.cfi_def_cfa %rsp, 8
	retq
.Lfunc_end66:
	.size	_ZNSt16_Sp_counted_baseILN9__gnu_cxx12_Lock_policyE2EE24_M_release_last_use_coldEv, .Lfunc_end66-_ZNSt16_Sp_counted_baseILN9__gnu_cxx12_Lock_policyE2EE24_M_release_last_use_coldEv
	.cfi_endproc
                                        # -- End function
	.section	.text._ZNSt16_Sp_counted_baseILN9__gnu_cxx12_Lock_policyE2EE19_M_release_last_useEv,"axG",@progbits,_ZNSt16_Sp_counted_baseILN9__gnu_cxx12_Lock_policyE2EE19_M_release_last_useEv,comdat
	.weak	_ZNSt16_Sp_counted_baseILN9__gnu_cxx12_Lock_policyE2EE19_M_release_last_useEv # -- Begin function _ZNSt16_Sp_counted_baseILN9__gnu_cxx12_Lock_policyE2EE19_M_release_last_useEv
	.p2align	4
	.type	_ZNSt16_Sp_counted_baseILN9__gnu_cxx12_Lock_policyE2EE19_M_release_last_useEv,@function
_ZNSt16_Sp_counted_baseILN9__gnu_cxx12_Lock_policyE2EE19_M_release_last_useEv: # @_ZNSt16_Sp_counted_baseILN9__gnu_cxx12_Lock_policyE2EE19_M_release_last_useEv
	.cfi_startproc
# %bb.0:                                # %entry
	pushq	%rbp
	.cfi_def_cfa_offset 16
	.cfi_offset %rbp, -16
	movq	%rsp, %rbp
	.cfi_def_cfa_register %rbp
	subq	$96, %rsp
	movq	%rdi, -72(%rbp)
	movq	-72(%rbp), %rdi
	movq	%rdi, -80(%rbp)                 # 8-byte Spill
	movq	(%rdi), %rax
	callq	*16(%rax)
	movq	-80(%rbp), %rax                 # 8-byte Reload
	addq	$12, %rax
	movq	%rax, -56(%rbp)
	movl	$-1, -60(%rbp)
	cmpb	$0, __libc_single_threaded
	je	.LBB67_2
# %bb.1:                                # %if.then.i
	movq	-56(%rbp), %rcx
	movl	-60(%rbp), %eax
	movq	%rcx, -32(%rbp)
	movl	%eax, -36(%rbp)
	movq	-32(%rbp), %rax
	movl	(%rax), %eax
	movl	%eax, -40(%rbp)
	movl	-36(%rbp), %ecx
	movq	-32(%rbp), %rax
	addl	(%rax), %ecx
	movl	%ecx, (%rax)
	movl	-40(%rbp), %eax
	movl	%eax, -44(%rbp)
	jmp	.LBB67_3
.LBB67_2:                               # %if.else.i
	movq	-56(%rbp), %rcx
	movl	-60(%rbp), %eax
	movq	%rcx, -8(%rbp)
	movl	%eax, -12(%rbp)
	movq	-8(%rbp), %rcx
	movl	-12(%rbp), %eax
	movl	%eax, -16(%rbp)
	movl	-16(%rbp), %eax
	lock		xaddl	%eax, (%rcx)
	movl	%eax, -20(%rbp)
	movl	-20(%rbp), %eax
	movl	%eax, -44(%rbp)
.LBB67_3:                               # %_ZN9__gnu_cxx27__exchange_and_add_dispatchEPii.exit
	movl	-44(%rbp), %eax
	movl	%eax, -84(%rbp)                 # 4-byte Spill
# %bb.4:                                # %invoke.cont
	movl	-84(%rbp), %eax                 # 4-byte Reload
	cmpl	$1, %eax
	jne	.LBB67_6
# %bb.5:                                # %if.then
	movq	-80(%rbp), %rdi                 # 8-byte Reload
	movq	(%rdi), %rax
	callq	*24(%rax)
.LBB67_6:                               # %if.end
	addq	$96, %rsp
	popq	%rbp
	.cfi_def_cfa %rsp, 8
	retq
.Lfunc_end67:
	.size	_ZNSt16_Sp_counted_baseILN9__gnu_cxx12_Lock_policyE2EE19_M_release_last_useEv, .Lfunc_end67-_ZNSt16_Sp_counted_baseILN9__gnu_cxx12_Lock_policyE2EE19_M_release_last_useEv
	.cfi_endproc
                                        # -- End function
	.section	.text._ZNSt12_Vector_baseISt10shared_ptrIN4sycl3_V16detail20PropertyWithDataBaseEESaIS5_EE13_M_deallocateEPS5_m,"axG",@progbits,_ZNSt12_Vector_baseISt10shared_ptrIN4sycl3_V16detail20PropertyWithDataBaseEESaIS5_EE13_M_deallocateEPS5_m,comdat
	.weak	_ZNSt12_Vector_baseISt10shared_ptrIN4sycl3_V16detail20PropertyWithDataBaseEESaIS5_EE13_M_deallocateEPS5_m # -- Begin function _ZNSt12_Vector_baseISt10shared_ptrIN4sycl3_V16detail20PropertyWithDataBaseEESaIS5_EE13_M_deallocateEPS5_m
	.p2align	4
	.type	_ZNSt12_Vector_baseISt10shared_ptrIN4sycl3_V16detail20PropertyWithDataBaseEESaIS5_EE13_M_deallocateEPS5_m,@function
_ZNSt12_Vector_baseISt10shared_ptrIN4sycl3_V16detail20PropertyWithDataBaseEESaIS5_EE13_M_deallocateEPS5_m: # @_ZNSt12_Vector_baseISt10shared_ptrIN4sycl3_V16detail20PropertyWithDataBaseEESaIS5_EE13_M_deallocateEPS5_m
	.cfi_startproc
# %bb.0:                                # %entry
	pushq	%rbp
	.cfi_def_cfa_offset 16
	.cfi_offset %rbp, -16
	movq	%rsp, %rbp
	.cfi_def_cfa_register %rbp
	subq	$64, %rsp
	movq	%rdi, -32(%rbp)
	movq	%rsi, -40(%rbp)
	movq	%rdx, -48(%rbp)
	movq	-32(%rbp), %rax
	movq	%rax, -56(%rbp)                 # 8-byte Spill
	cmpq	$0, -40(%rbp)
	je	.LBB68_2
# %bb.1:                                # %if.then
	movq	-56(%rbp), %rdx                 # 8-byte Reload
	movq	-40(%rbp), %rcx
	movq	-48(%rbp), %rax
	movq	%rdx, -8(%rbp)
	movq	%rcx, -16(%rbp)
	movq	%rax, -24(%rbp)
	movq	-8(%rbp), %rdi
	movq	-16(%rbp), %rsi
	movq	-24(%rbp), %rdx
	callq	_ZNSt15__new_allocatorISt10shared_ptrIN4sycl3_V16detail20PropertyWithDataBaseEEE10deallocateEPS5_m
.LBB68_2:                               # %if.end
	addq	$64, %rsp
	popq	%rbp
	.cfi_def_cfa %rsp, 8
	retq
.Lfunc_end68:
	.size	_ZNSt12_Vector_baseISt10shared_ptrIN4sycl3_V16detail20PropertyWithDataBaseEESaIS5_EE13_M_deallocateEPS5_m, .Lfunc_end68-_ZNSt12_Vector_baseISt10shared_ptrIN4sycl3_V16detail20PropertyWithDataBaseEESaIS5_EE13_M_deallocateEPS5_m
	.cfi_endproc
                                        # -- End function
	.section	.text._ZNSt12_Vector_baseISt10shared_ptrIN4sycl3_V16detail20PropertyWithDataBaseEESaIS5_EE12_Vector_implD2Ev,"axG",@progbits,_ZNSt12_Vector_baseISt10shared_ptrIN4sycl3_V16detail20PropertyWithDataBaseEESaIS5_EE12_Vector_implD2Ev,comdat
	.weak	_ZNSt12_Vector_baseISt10shared_ptrIN4sycl3_V16detail20PropertyWithDataBaseEESaIS5_EE12_Vector_implD2Ev # -- Begin function _ZNSt12_Vector_baseISt10shared_ptrIN4sycl3_V16detail20PropertyWithDataBaseEESaIS5_EE12_Vector_implD2Ev
	.p2align	4
	.type	_ZNSt12_Vector_baseISt10shared_ptrIN4sycl3_V16detail20PropertyWithDataBaseEESaIS5_EE12_Vector_implD2Ev,@function
_ZNSt12_Vector_baseISt10shared_ptrIN4sycl3_V16detail20PropertyWithDataBaseEESaIS5_EE12_Vector_implD2Ev: # @_ZNSt12_Vector_baseISt10shared_ptrIN4sycl3_V16detail20PropertyWithDataBaseEESaIS5_EE12_Vector_implD2Ev
	.cfi_startproc
# %bb.0:                                # %entry
	pushq	%rbp
	.cfi_def_cfa_offset 16
	.cfi_offset %rbp, -16
	movq	%rsp, %rbp
	.cfi_def_cfa_register %rbp
	subq	$16, %rsp
	movq	%rdi, -16(%rbp)
	movq	-16(%rbp), %rax
	movq	%rax, -8(%rbp)
	movq	-8(%rbp), %rdi
	callq	_ZNSt15__new_allocatorISt10shared_ptrIN4sycl3_V16detail20PropertyWithDataBaseEEED2Ev
	addq	$16, %rsp
	popq	%rbp
	.cfi_def_cfa %rsp, 8
	retq
.Lfunc_end69:
	.size	_ZNSt12_Vector_baseISt10shared_ptrIN4sycl3_V16detail20PropertyWithDataBaseEESaIS5_EE12_Vector_implD2Ev, .Lfunc_end69-_ZNSt12_Vector_baseISt10shared_ptrIN4sycl3_V16detail20PropertyWithDataBaseEESaIS5_EE12_Vector_implD2Ev
	.cfi_endproc
                                        # -- End function
	.section	.text._ZNSt15__new_allocatorISt10shared_ptrIN4sycl3_V16detail20PropertyWithDataBaseEEE10deallocateEPS5_m,"axG",@progbits,_ZNSt15__new_allocatorISt10shared_ptrIN4sycl3_V16detail20PropertyWithDataBaseEEE10deallocateEPS5_m,comdat
	.weak	_ZNSt15__new_allocatorISt10shared_ptrIN4sycl3_V16detail20PropertyWithDataBaseEEE10deallocateEPS5_m # -- Begin function _ZNSt15__new_allocatorISt10shared_ptrIN4sycl3_V16detail20PropertyWithDataBaseEEE10deallocateEPS5_m
	.p2align	4
	.type	_ZNSt15__new_allocatorISt10shared_ptrIN4sycl3_V16detail20PropertyWithDataBaseEEE10deallocateEPS5_m,@function
_ZNSt15__new_allocatorISt10shared_ptrIN4sycl3_V16detail20PropertyWithDataBaseEEE10deallocateEPS5_m: # @_ZNSt15__new_allocatorISt10shared_ptrIN4sycl3_V16detail20PropertyWithDataBaseEEE10deallocateEPS5_m
	.cfi_startproc
# %bb.0:                                # %entry
	pushq	%rbp
	.cfi_def_cfa_offset 16
	.cfi_offset %rbp, -16
	movq	%rsp, %rbp
	.cfi_def_cfa_register %rbp
	subq	$32, %rsp
	movq	%rdi, -8(%rbp)
	movq	%rsi, -16(%rbp)
	movq	%rdx, -24(%rbp)
	movq	-16(%rbp), %rdi
	movq	-24(%rbp), %rsi
	shlq	$4, %rsi
	callq	_ZdlPvm
	addq	$32, %rsp
	popq	%rbp
	.cfi_def_cfa %rsp, 8
	retq
.Lfunc_end70:
	.size	_ZNSt15__new_allocatorISt10shared_ptrIN4sycl3_V16detail20PropertyWithDataBaseEEE10deallocateEPS5_m, .Lfunc_end70-_ZNSt15__new_allocatorISt10shared_ptrIN4sycl3_V16detail20PropertyWithDataBaseEEE10deallocateEPS5_m
	.cfi_endproc
                                        # -- End function
	.section	.text._ZNSt15__new_allocatorISt10shared_ptrIN4sycl3_V16detail20PropertyWithDataBaseEEED2Ev,"axG",@progbits,_ZNSt15__new_allocatorISt10shared_ptrIN4sycl3_V16detail20PropertyWithDataBaseEEED2Ev,comdat
	.weak	_ZNSt15__new_allocatorISt10shared_ptrIN4sycl3_V16detail20PropertyWithDataBaseEEED2Ev # -- Begin function _ZNSt15__new_allocatorISt10shared_ptrIN4sycl3_V16detail20PropertyWithDataBaseEEED2Ev
	.p2align	4
	.type	_ZNSt15__new_allocatorISt10shared_ptrIN4sycl3_V16detail20PropertyWithDataBaseEEED2Ev,@function
_ZNSt15__new_allocatorISt10shared_ptrIN4sycl3_V16detail20PropertyWithDataBaseEEED2Ev: # @_ZNSt15__new_allocatorISt10shared_ptrIN4sycl3_V16detail20PropertyWithDataBaseEEED2Ev
	.cfi_startproc
# %bb.0:                                # %entry
	pushq	%rbp
	.cfi_def_cfa_offset 16
	.cfi_offset %rbp, -16
	movq	%rsp, %rbp
	.cfi_def_cfa_register %rbp
	movq	%rdi, -8(%rbp)
	popq	%rbp
	.cfi_def_cfa %rsp, 8
	retq
.Lfunc_end71:
	.size	_ZNSt15__new_allocatorISt10shared_ptrIN4sycl3_V16detail20PropertyWithDataBaseEEED2Ev, .Lfunc_end71-_ZNSt15__new_allocatorISt10shared_ptrIN4sycl3_V16detail20PropertyWithDataBaseEEED2Ev
	.cfi_endproc
                                        # -- End function
	.section	.text._ZNSt10shared_ptrIN4sycl3_V16detail10event_implEED2Ev,"axG",@progbits,_ZNSt10shared_ptrIN4sycl3_V16detail10event_implEED2Ev,comdat
	.weak	_ZNSt10shared_ptrIN4sycl3_V16detail10event_implEED2Ev # -- Begin function _ZNSt10shared_ptrIN4sycl3_V16detail10event_implEED2Ev
	.p2align	4
	.type	_ZNSt10shared_ptrIN4sycl3_V16detail10event_implEED2Ev,@function
_ZNSt10shared_ptrIN4sycl3_V16detail10event_implEED2Ev: # @_ZNSt10shared_ptrIN4sycl3_V16detail10event_implEED2Ev
	.cfi_startproc
# %bb.0:                                # %entry
	pushq	%rbp
	.cfi_def_cfa_offset 16
	.cfi_offset %rbp, -16
	movq	%rsp, %rbp
	.cfi_def_cfa_register %rbp
	subq	$16, %rsp
	movq	%rdi, -8(%rbp)
	movq	-8(%rbp), %rdi
	callq	_ZNSt12__shared_ptrIN4sycl3_V16detail10event_implELN9__gnu_cxx12_Lock_policyE2EED2Ev
	addq	$16, %rsp
	popq	%rbp
	.cfi_def_cfa %rsp, 8
	retq
.Lfunc_end72:
	.size	_ZNSt10shared_ptrIN4sycl3_V16detail10event_implEED2Ev, .Lfunc_end72-_ZNSt10shared_ptrIN4sycl3_V16detail10event_implEED2Ev
	.cfi_endproc
                                        # -- End function
	.section	.text._ZNSt12__shared_ptrIN4sycl3_V16detail10event_implELN9__gnu_cxx12_Lock_policyE2EED2Ev,"axG",@progbits,_ZNSt12__shared_ptrIN4sycl3_V16detail10event_implELN9__gnu_cxx12_Lock_policyE2EED2Ev,comdat
	.weak	_ZNSt12__shared_ptrIN4sycl3_V16detail10event_implELN9__gnu_cxx12_Lock_policyE2EED2Ev # -- Begin function _ZNSt12__shared_ptrIN4sycl3_V16detail10event_implELN9__gnu_cxx12_Lock_policyE2EED2Ev
	.p2align	4
	.type	_ZNSt12__shared_ptrIN4sycl3_V16detail10event_implELN9__gnu_cxx12_Lock_policyE2EED2Ev,@function
_ZNSt12__shared_ptrIN4sycl3_V16detail10event_implELN9__gnu_cxx12_Lock_policyE2EED2Ev: # @_ZNSt12__shared_ptrIN4sycl3_V16detail10event_implELN9__gnu_cxx12_Lock_policyE2EED2Ev
	.cfi_startproc
# %bb.0:                                # %entry
	pushq	%rbp
	.cfi_def_cfa_offset 16
	.cfi_offset %rbp, -16
	movq	%rsp, %rbp
	.cfi_def_cfa_register %rbp
	subq	$16, %rsp
	movq	%rdi, -8(%rbp)
	movq	-8(%rbp), %rdi
	addq	$8, %rdi
	callq	_ZNSt14__shared_countILN9__gnu_cxx12_Lock_policyE2EED2Ev
	addq	$16, %rsp
	popq	%rbp
	.cfi_def_cfa %rsp, 8
	retq
.Lfunc_end73:
	.size	_ZNSt12__shared_ptrIN4sycl3_V16detail10event_implELN9__gnu_cxx12_Lock_policyE2EED2Ev, .Lfunc_end73-_ZNSt12__shared_ptrIN4sycl3_V16detail10event_implELN9__gnu_cxx12_Lock_policyE2EED2Ev
	.cfi_endproc
                                        # -- End function
	.section	.text._ZNSt10shared_ptrIN4sycl3_V16detail12context_implEED2Ev,"axG",@progbits,_ZNSt10shared_ptrIN4sycl3_V16detail12context_implEED2Ev,comdat
	.weak	_ZNSt10shared_ptrIN4sycl3_V16detail12context_implEED2Ev # -- Begin function _ZNSt10shared_ptrIN4sycl3_V16detail12context_implEED2Ev
	.p2align	4
	.type	_ZNSt10shared_ptrIN4sycl3_V16detail12context_implEED2Ev,@function
_ZNSt10shared_ptrIN4sycl3_V16detail12context_implEED2Ev: # @_ZNSt10shared_ptrIN4sycl3_V16detail12context_implEED2Ev
	.cfi_startproc
# %bb.0:                                # %entry
	pushq	%rbp
	.cfi_def_cfa_offset 16
	.cfi_offset %rbp, -16
	movq	%rsp, %rbp
	.cfi_def_cfa_register %rbp
	subq	$16, %rsp
	movq	%rdi, -8(%rbp)
	movq	-8(%rbp), %rdi
	callq	_ZNSt12__shared_ptrIN4sycl3_V16detail12context_implELN9__gnu_cxx12_Lock_policyE2EED2Ev
	addq	$16, %rsp
	popq	%rbp
	.cfi_def_cfa %rsp, 8
	retq
.Lfunc_end74:
	.size	_ZNSt10shared_ptrIN4sycl3_V16detail12context_implEED2Ev, .Lfunc_end74-_ZNSt10shared_ptrIN4sycl3_V16detail12context_implEED2Ev
	.cfi_endproc
                                        # -- End function
	.section	.text._ZNSt12__shared_ptrIN4sycl3_V16detail12context_implELN9__gnu_cxx12_Lock_policyE2EED2Ev,"axG",@progbits,_ZNSt12__shared_ptrIN4sycl3_V16detail12context_implELN9__gnu_cxx12_Lock_policyE2EED2Ev,comdat
	.weak	_ZNSt12__shared_ptrIN4sycl3_V16detail12context_implELN9__gnu_cxx12_Lock_policyE2EED2Ev # -- Begin function _ZNSt12__shared_ptrIN4sycl3_V16detail12context_implELN9__gnu_cxx12_Lock_policyE2EED2Ev
	.p2align	4
	.type	_ZNSt12__shared_ptrIN4sycl3_V16detail12context_implELN9__gnu_cxx12_Lock_policyE2EED2Ev,@function
_ZNSt12__shared_ptrIN4sycl3_V16detail12context_implELN9__gnu_cxx12_Lock_policyE2EED2Ev: # @_ZNSt12__shared_ptrIN4sycl3_V16detail12context_implELN9__gnu_cxx12_Lock_policyE2EED2Ev
	.cfi_startproc
# %bb.0:                                # %entry
	pushq	%rbp
	.cfi_def_cfa_offset 16
	.cfi_offset %rbp, -16
	movq	%rsp, %rbp
	.cfi_def_cfa_register %rbp
	subq	$16, %rsp
	movq	%rdi, -8(%rbp)
	movq	-8(%rbp), %rdi
	addq	$8, %rdi
	callq	_ZNSt14__shared_countILN9__gnu_cxx12_Lock_policyE2EED2Ev
	addq	$16, %rsp
	popq	%rbp
	.cfi_def_cfa %rsp, 8
	retq
.Lfunc_end75:
	.size	_ZNSt12__shared_ptrIN4sycl3_V16detail12context_implELN9__gnu_cxx12_Lock_policyE2EED2Ev, .Lfunc_end75-_ZNSt12__shared_ptrIN4sycl3_V16detail12context_implELN9__gnu_cxx12_Lock_policyE2EED2Ev
	.cfi_endproc
                                        # -- End function
	.section	.text._ZNSt10shared_ptrIN4sycl3_V16detail11kernel_implEED2Ev,"axG",@progbits,_ZNSt10shared_ptrIN4sycl3_V16detail11kernel_implEED2Ev,comdat
	.weak	_ZNSt10shared_ptrIN4sycl3_V16detail11kernel_implEED2Ev # -- Begin function _ZNSt10shared_ptrIN4sycl3_V16detail11kernel_implEED2Ev
	.p2align	4
	.type	_ZNSt10shared_ptrIN4sycl3_V16detail11kernel_implEED2Ev,@function
_ZNSt10shared_ptrIN4sycl3_V16detail11kernel_implEED2Ev: # @_ZNSt10shared_ptrIN4sycl3_V16detail11kernel_implEED2Ev
	.cfi_startproc
# %bb.0:                                # %entry
	pushq	%rbp
	.cfi_def_cfa_offset 16
	.cfi_offset %rbp, -16
	movq	%rsp, %rbp
	.cfi_def_cfa_register %rbp
	subq	$16, %rsp
	movq	%rdi, -8(%rbp)
	movq	-8(%rbp), %rdi
	callq	_ZNSt12__shared_ptrIN4sycl3_V16detail11kernel_implELN9__gnu_cxx12_Lock_policyE2EED2Ev
	addq	$16, %rsp
	popq	%rbp
	.cfi_def_cfa %rsp, 8
	retq
.Lfunc_end76:
	.size	_ZNSt10shared_ptrIN4sycl3_V16detail11kernel_implEED2Ev, .Lfunc_end76-_ZNSt10shared_ptrIN4sycl3_V16detail11kernel_implEED2Ev
	.cfi_endproc
                                        # -- End function
	.section	.text._ZNSt12__shared_ptrIN4sycl3_V16detail11kernel_implELN9__gnu_cxx12_Lock_policyE2EED2Ev,"axG",@progbits,_ZNSt12__shared_ptrIN4sycl3_V16detail11kernel_implELN9__gnu_cxx12_Lock_policyE2EED2Ev,comdat
	.weak	_ZNSt12__shared_ptrIN4sycl3_V16detail11kernel_implELN9__gnu_cxx12_Lock_policyE2EED2Ev # -- Begin function _ZNSt12__shared_ptrIN4sycl3_V16detail11kernel_implELN9__gnu_cxx12_Lock_policyE2EED2Ev
	.p2align	4
	.type	_ZNSt12__shared_ptrIN4sycl3_V16detail11kernel_implELN9__gnu_cxx12_Lock_policyE2EED2Ev,@function
_ZNSt12__shared_ptrIN4sycl3_V16detail11kernel_implELN9__gnu_cxx12_Lock_policyE2EED2Ev: # @_ZNSt12__shared_ptrIN4sycl3_V16detail11kernel_implELN9__gnu_cxx12_Lock_policyE2EED2Ev
	.cfi_startproc
# %bb.0:                                # %entry
	pushq	%rbp
	.cfi_def_cfa_offset 16
	.cfi_offset %rbp, -16
	movq	%rsp, %rbp
	.cfi_def_cfa_register %rbp
	subq	$16, %rsp
	movq	%rdi, -8(%rbp)
	movq	-8(%rbp), %rdi
	addq	$8, %rdi
	callq	_ZNSt14__shared_countILN9__gnu_cxx12_Lock_policyE2EED2Ev
	addq	$16, %rsp
	popq	%rbp
	.cfi_def_cfa %rsp, 8
	retq
.Lfunc_end77:
	.size	_ZNSt12__shared_ptrIN4sycl3_V16detail11kernel_implELN9__gnu_cxx12_Lock_policyE2EED2Ev, .Lfunc_end77-_ZNSt12__shared_ptrIN4sycl3_V16detail11kernel_implELN9__gnu_cxx12_Lock_policyE2EED2Ev
	.cfi_endproc
                                        # -- End function
	.section	.text._ZNSt10shared_ptrIN4sycl3_V16detail14kernel_id_implEED2Ev,"axG",@progbits,_ZNSt10shared_ptrIN4sycl3_V16detail14kernel_id_implEED2Ev,comdat
	.weak	_ZNSt10shared_ptrIN4sycl3_V16detail14kernel_id_implEED2Ev # -- Begin function _ZNSt10shared_ptrIN4sycl3_V16detail14kernel_id_implEED2Ev
	.p2align	4
	.type	_ZNSt10shared_ptrIN4sycl3_V16detail14kernel_id_implEED2Ev,@function
_ZNSt10shared_ptrIN4sycl3_V16detail14kernel_id_implEED2Ev: # @_ZNSt10shared_ptrIN4sycl3_V16detail14kernel_id_implEED2Ev
	.cfi_startproc
# %bb.0:                                # %entry
	pushq	%rbp
	.cfi_def_cfa_offset 16
	.cfi_offset %rbp, -16
	movq	%rsp, %rbp
	.cfi_def_cfa_register %rbp
	subq	$16, %rsp
	movq	%rdi, -8(%rbp)
	movq	-8(%rbp), %rdi
	callq	_ZNSt12__shared_ptrIN4sycl3_V16detail14kernel_id_implELN9__gnu_cxx12_Lock_policyE2EED2Ev
	addq	$16, %rsp
	popq	%rbp
	.cfi_def_cfa %rsp, 8
	retq
.Lfunc_end78:
	.size	_ZNSt10shared_ptrIN4sycl3_V16detail14kernel_id_implEED2Ev, .Lfunc_end78-_ZNSt10shared_ptrIN4sycl3_V16detail14kernel_id_implEED2Ev
	.cfi_endproc
                                        # -- End function
	.section	.text._ZNSt12__shared_ptrIN4sycl3_V16detail14kernel_id_implELN9__gnu_cxx12_Lock_policyE2EED2Ev,"axG",@progbits,_ZNSt12__shared_ptrIN4sycl3_V16detail14kernel_id_implELN9__gnu_cxx12_Lock_policyE2EED2Ev,comdat
	.weak	_ZNSt12__shared_ptrIN4sycl3_V16detail14kernel_id_implELN9__gnu_cxx12_Lock_policyE2EED2Ev # -- Begin function _ZNSt12__shared_ptrIN4sycl3_V16detail14kernel_id_implELN9__gnu_cxx12_Lock_policyE2EED2Ev
	.p2align	4
	.type	_ZNSt12__shared_ptrIN4sycl3_V16detail14kernel_id_implELN9__gnu_cxx12_Lock_policyE2EED2Ev,@function
_ZNSt12__shared_ptrIN4sycl3_V16detail14kernel_id_implELN9__gnu_cxx12_Lock_policyE2EED2Ev: # @_ZNSt12__shared_ptrIN4sycl3_V16detail14kernel_id_implELN9__gnu_cxx12_Lock_policyE2EED2Ev
	.cfi_startproc
# %bb.0:                                # %entry
	pushq	%rbp
	.cfi_def_cfa_offset 16
	.cfi_offset %rbp, -16
	movq	%rsp, %rbp
	.cfi_def_cfa_register %rbp
	subq	$16, %rsp
	movq	%rdi, -8(%rbp)
	movq	-8(%rbp), %rdi
	addq	$8, %rdi
	callq	_ZNSt14__shared_countILN9__gnu_cxx12_Lock_policyE2EED2Ev
	addq	$16, %rsp
	popq	%rbp
	.cfi_def_cfa %rsp, 8
	retq
.Lfunc_end79:
	.size	_ZNSt12__shared_ptrIN4sycl3_V16detail14kernel_id_implELN9__gnu_cxx12_Lock_policyE2EED2Ev, .Lfunc_end79-_ZNSt12__shared_ptrIN4sycl3_V16detail14kernel_id_implELN9__gnu_cxx12_Lock_policyE2EED2Ev
	.cfi_endproc
                                        # -- End function
	.section	.text._ZN4sycl3_V16detail19kernel_bundle_plainD2Ev,"axG",@progbits,_ZN4sycl3_V16detail19kernel_bundle_plainD2Ev,comdat
	.weak	_ZN4sycl3_V16detail19kernel_bundle_plainD2Ev # -- Begin function _ZN4sycl3_V16detail19kernel_bundle_plainD2Ev
	.p2align	4
	.type	_ZN4sycl3_V16detail19kernel_bundle_plainD2Ev,@function
_ZN4sycl3_V16detail19kernel_bundle_plainD2Ev: # @_ZN4sycl3_V16detail19kernel_bundle_plainD2Ev
	.cfi_startproc
# %bb.0:                                # %entry
	pushq	%rbp
	.cfi_def_cfa_offset 16
	.cfi_offset %rbp, -16
	movq	%rsp, %rbp
	.cfi_def_cfa_register %rbp
	subq	$16, %rsp
	movq	%rdi, -8(%rbp)
	movq	-8(%rbp), %rdi
	callq	_ZNSt10shared_ptrIN4sycl3_V16detail18kernel_bundle_implEED2Ev
	addq	$16, %rsp
	popq	%rbp
	.cfi_def_cfa %rsp, 8
	retq
.Lfunc_end80:
	.size	_ZN4sycl3_V16detail19kernel_bundle_plainD2Ev, .Lfunc_end80-_ZN4sycl3_V16detail19kernel_bundle_plainD2Ev
	.cfi_endproc
                                        # -- End function
	.section	.text._ZNSt10shared_ptrIN4sycl3_V16detail18kernel_bundle_implEED2Ev,"axG",@progbits,_ZNSt10shared_ptrIN4sycl3_V16detail18kernel_bundle_implEED2Ev,comdat
	.weak	_ZNSt10shared_ptrIN4sycl3_V16detail18kernel_bundle_implEED2Ev # -- Begin function _ZNSt10shared_ptrIN4sycl3_V16detail18kernel_bundle_implEED2Ev
	.p2align	4
	.type	_ZNSt10shared_ptrIN4sycl3_V16detail18kernel_bundle_implEED2Ev,@function
_ZNSt10shared_ptrIN4sycl3_V16detail18kernel_bundle_implEED2Ev: # @_ZNSt10shared_ptrIN4sycl3_V16detail18kernel_bundle_implEED2Ev
	.cfi_startproc
# %bb.0:                                # %entry
	pushq	%rbp
	.cfi_def_cfa_offset 16
	.cfi_offset %rbp, -16
	movq	%rsp, %rbp
	.cfi_def_cfa_register %rbp
	subq	$16, %rsp
	movq	%rdi, -8(%rbp)
	movq	-8(%rbp), %rdi
	callq	_ZNSt12__shared_ptrIN4sycl3_V16detail18kernel_bundle_implELN9__gnu_cxx12_Lock_policyE2EED2Ev
	addq	$16, %rsp
	popq	%rbp
	.cfi_def_cfa %rsp, 8
	retq
.Lfunc_end81:
	.size	_ZNSt10shared_ptrIN4sycl3_V16detail18kernel_bundle_implEED2Ev, .Lfunc_end81-_ZNSt10shared_ptrIN4sycl3_V16detail18kernel_bundle_implEED2Ev
	.cfi_endproc
                                        # -- End function
	.section	.text._ZNSt12__shared_ptrIN4sycl3_V16detail18kernel_bundle_implELN9__gnu_cxx12_Lock_policyE2EED2Ev,"axG",@progbits,_ZNSt12__shared_ptrIN4sycl3_V16detail18kernel_bundle_implELN9__gnu_cxx12_Lock_policyE2EED2Ev,comdat
	.weak	_ZNSt12__shared_ptrIN4sycl3_V16detail18kernel_bundle_implELN9__gnu_cxx12_Lock_policyE2EED2Ev # -- Begin function _ZNSt12__shared_ptrIN4sycl3_V16detail18kernel_bundle_implELN9__gnu_cxx12_Lock_policyE2EED2Ev
	.p2align	4
	.type	_ZNSt12__shared_ptrIN4sycl3_V16detail18kernel_bundle_implELN9__gnu_cxx12_Lock_policyE2EED2Ev,@function
_ZNSt12__shared_ptrIN4sycl3_V16detail18kernel_bundle_implELN9__gnu_cxx12_Lock_policyE2EED2Ev: # @_ZNSt12__shared_ptrIN4sycl3_V16detail18kernel_bundle_implELN9__gnu_cxx12_Lock_policyE2EED2Ev
	.cfi_startproc
# %bb.0:                                # %entry
	pushq	%rbp
	.cfi_def_cfa_offset 16
	.cfi_offset %rbp, -16
	movq	%rsp, %rbp
	.cfi_def_cfa_register %rbp
	subq	$16, %rsp
	movq	%rdi, -8(%rbp)
	movq	-8(%rbp), %rdi
	addq	$8, %rdi
	callq	_ZNSt14__shared_countILN9__gnu_cxx12_Lock_policyE2EED2Ev
	addq	$16, %rsp
	popq	%rbp
	.cfi_def_cfa %rsp, 8
	retq
.Lfunc_end82:
	.size	_ZNSt12__shared_ptrIN4sycl3_V16detail18kernel_bundle_implELN9__gnu_cxx12_Lock_policyE2EED2Ev, .Lfunc_end82-_ZNSt12__shared_ptrIN4sycl3_V16detail18kernel_bundle_implELN9__gnu_cxx12_Lock_policyE2EED2Ev
	.cfi_endproc
                                        # -- End function
	.section	.text._ZN4sycl3_V16detail19defaultAsyncHandlerENS0_14exception_listE,"axG",@progbits,_ZN4sycl3_V16detail19defaultAsyncHandlerENS0_14exception_listE,comdat
	.weak	_ZN4sycl3_V16detail19defaultAsyncHandlerENS0_14exception_listE # -- Begin function _ZN4sycl3_V16detail19defaultAsyncHandlerENS0_14exception_listE
	.p2align	4
	.type	_ZN4sycl3_V16detail19defaultAsyncHandlerENS0_14exception_listE,@function
_ZN4sycl3_V16detail19defaultAsyncHandlerENS0_14exception_listE: # @_ZN4sycl3_V16detail19defaultAsyncHandlerENS0_14exception_listE
.Lfunc_begin17:
	.cfi_startproc
	.cfi_personality 3, __gxx_personality_v0
	.cfi_lsda 3, .Lexception17
# %bb.0:                                # %entry
	pushq	%rbp
	.cfi_def_cfa_offset 16
	.cfi_offset %rbp, -16
	movq	%rsp, %rbp
	.cfi_def_cfa_register %rbp
	subq	$96, %rsp
	movq	%rdi, -80(%rbp)                 # 8-byte Spill
	movq	%rdi, -8(%rbp)
	movabsq	$_ZSt4cerr, %rdi
	movabsq	$.L.str.24, %rsi
	callq	_ZStlsISt11char_traitsIcEERSt13basic_ostreamIcT_ES5_PKc
	movq	-80(%rbp), %rdi                 # 8-byte Reload
	movq	%rdi, -16(%rbp)
	movq	-16(%rbp), %rdi
	callq	_ZNK4sycl3_V114exception_list5beginEv
	movq	%rax, -24(%rbp)
	movq	-16(%rbp), %rdi
	callq	_ZNK4sycl3_V114exception_list3endEv
	movq	%rax, -32(%rbp)
.LBB83_1:                               # %for.cond
                                        # =>This Inner Loop Header: Depth=1
	leaq	-24(%rbp), %rdi
	leaq	-32(%rbp), %rsi
	callq	_ZN9__gnu_cxxneIPKNSt15__exception_ptr13exception_ptrESt6vectorIS2_SaIS2_EEEEbRKNS_17__normal_iteratorIT_T0_EESD_
	testb	$1, %al
	jne	.LBB83_2
	jmp	.LBB83_15
.LBB83_2:                               # %for.body
                                        #   in Loop: Header=BB83_1 Depth=1
	leaq	-24(%rbp), %rdi
	callq	_ZNK9__gnu_cxx17__normal_iteratorIPKNSt15__exception_ptr13exception_ptrESt6vectorIS2_SaIS2_EEEdeEv
	movq	%rax, -40(%rbp)
	movq	-40(%rbp), %rdi
	callq	_ZNKSt15__exception_ptr13exception_ptrcvbEv
	testb	$1, %al
	jne	.LBB83_3
	jmp	.LBB83_12
.LBB83_3:                               # %if.then
                                        #   in Loop: Header=BB83_1 Depth=1
	movq	-40(%rbp), %rsi
	leaq	-48(%rbp), %rdi
	movq	%rdi, -88(%rbp)                 # 8-byte Spill
	callq	_ZNSt15__exception_ptr13exception_ptrC2ERKS0_
	movq	-88(%rbp), %rdi                 # 8-byte Reload
.Ltmp164:
	callq	_ZSt17rethrow_exceptionNSt15__exception_ptr13exception_ptrE
.Ltmp165:
	jmp	.LBB83_4
.LBB83_4:                               # %invoke.cont
.LBB83_5:                               # %lpad
                                        #   in Loop: Header=BB83_1 Depth=1
.Ltmp166:
	movq	%rax, %rcx
	movl	%edx, %eax
	movq	%rcx, -56(%rbp)
	movl	%eax, -60(%rbp)
	leaq	-48(%rbp), %rdi
	callq	_ZNSt15__exception_ptr13exception_ptrD2Ev
# %bb.6:                                # %catch.dispatch
                                        #   in Loop: Header=BB83_1 Depth=1
	movl	-60(%rbp), %eax
	movl	$1, %ecx
	cmpl	%ecx, %eax
	jne	.LBB83_16
# %bb.7:                                # %catch
                                        #   in Loop: Header=BB83_1 Depth=1
	movq	-56(%rbp), %rdi
	callq	__cxa_begin_catch
	movq	%rax, -72(%rbp)
.Ltmp167:
	movl	$_ZSt4cerr, %edi
	movl	$.L.str.25, %esi
	callq	_ZStlsISt11char_traitsIcEERSt13basic_ostreamIcT_ES5_PKc
.Ltmp168:
	movq	%rax, -96(%rbp)                 # 8-byte Spill
	jmp	.LBB83_8
.LBB83_8:                               # %invoke.cont8
                                        #   in Loop: Header=BB83_1 Depth=1
	movq	-72(%rbp), %rdi
	movq	(%rdi), %rax
	movq	16(%rax), %rax
	callq	*%rax
	movq	-96(%rbp), %rdi                 # 8-byte Reload
	movq	%rax, %rsi
.Ltmp169:
	callq	_ZStlsISt11char_traitsIcEERSt13basic_ostreamIcT_ES5_PKc
.Ltmp170:
	jmp	.LBB83_9
.LBB83_9:                               # %invoke.cont11
                                        #   in Loop: Header=BB83_1 Depth=1
	callq	__cxa_end_catch
.LBB83_10:                              # %try.cont
                                        #   in Loop: Header=BB83_1 Depth=1
	jmp	.LBB83_11
.LBB83_11:                              # %for.inc
                                        #   in Loop: Header=BB83_1 Depth=1
	leaq	-24(%rbp), %rdi
	callq	_ZN9__gnu_cxx17__normal_iteratorIPKNSt15__exception_ptr13exception_ptrESt6vectorIS2_SaIS2_EEEppEv
	jmp	.LBB83_1
.LBB83_12:                              # %if.end
                                        #   in Loop: Header=BB83_1 Depth=1
	jmp	.LBB83_10
.LBB83_13:                              # %lpad7
.Ltmp171:
	movq	%rax, %rcx
	movl	%edx, %eax
	movq	%rcx, -56(%rbp)
	movl	%eax, -60(%rbp)
.Ltmp172:
	callq	__cxa_end_catch
.Ltmp173:
	jmp	.LBB83_14
.LBB83_14:                              # %invoke.cont13
	jmp	.LBB83_16
.LBB83_15:                              # %for.end
	movabsq	$_ZSt4cerr, %rdi
	movabsq	$_ZSt4endlIcSt11char_traitsIcEERSt13basic_ostreamIT_T0_ES6_, %rsi
	callq	_ZNSolsEPFRSoS_E
	callq	_ZSt9terminatev
.LBB83_16:                              # %eh.resume
	movq	-56(%rbp), %rdi
	callq	_Unwind_Resume@PLT
.LBB83_17:                              # %terminate.lpad
.Ltmp174:
	movq	%rax, %rdi
                                        # kill: def $eax killed $edx killed $rdx
	callq	__clang_call_terminate
.Lfunc_end83:
	.size	_ZN4sycl3_V16detail19defaultAsyncHandlerENS0_14exception_listE, .Lfunc_end83-_ZN4sycl3_V16detail19defaultAsyncHandlerENS0_14exception_listE
	.cfi_endproc
	.section	.gcc_except_table._ZN4sycl3_V16detail19defaultAsyncHandlerENS0_14exception_listE,"aG",@progbits,_ZN4sycl3_V16detail19defaultAsyncHandlerENS0_14exception_listE,comdat
	.p2align	2, 0x0
GCC_except_table83:
.Lexception17:
	.byte	255                             # @LPStart Encoding = omit
	.byte	3                               # @TType Encoding = udata4
	.uleb128 .Lttbase3-.Lttbaseref3
.Lttbaseref3:
	.byte	1                               # Call site Encoding = uleb128
	.uleb128 .Lcst_end17-.Lcst_begin17
.Lcst_begin17:
	.uleb128 .Lfunc_begin17-.Lfunc_begin17  # >> Call Site 1 <<
	.uleb128 .Ltmp164-.Lfunc_begin17        #   Call between .Lfunc_begin17 and .Ltmp164
	.byte	0                               #     has no landing pad
	.byte	0                               #   On action: cleanup
	.uleb128 .Ltmp164-.Lfunc_begin17        # >> Call Site 2 <<
	.uleb128 .Ltmp165-.Ltmp164              #   Call between .Ltmp164 and .Ltmp165
	.uleb128 .Ltmp166-.Lfunc_begin17        #     jumps to .Ltmp166
	.byte	3                               #   On action: 2
	.uleb128 .Ltmp165-.Lfunc_begin17        # >> Call Site 3 <<
	.uleb128 .Ltmp167-.Ltmp165              #   Call between .Ltmp165 and .Ltmp167
	.byte	0                               #     has no landing pad
	.byte	0                               #   On action: cleanup
	.uleb128 .Ltmp167-.Lfunc_begin17        # >> Call Site 4 <<
	.uleb128 .Ltmp168-.Ltmp167              #   Call between .Ltmp167 and .Ltmp168
	.uleb128 .Ltmp171-.Lfunc_begin17        #     jumps to .Ltmp171
	.byte	0                               #   On action: cleanup
	.uleb128 .Ltmp168-.Lfunc_begin17        # >> Call Site 5 <<
	.uleb128 .Ltmp169-.Ltmp168              #   Call between .Ltmp168 and .Ltmp169
	.byte	0                               #     has no landing pad
	.byte	0                               #   On action: cleanup
	.uleb128 .Ltmp169-.Lfunc_begin17        # >> Call Site 6 <<
	.uleb128 .Ltmp170-.Ltmp169              #   Call between .Ltmp169 and .Ltmp170
	.uleb128 .Ltmp171-.Lfunc_begin17        #     jumps to .Ltmp171
	.byte	0                               #   On action: cleanup
	.uleb128 .Ltmp170-.Lfunc_begin17        # >> Call Site 7 <<
	.uleb128 .Ltmp172-.Ltmp170              #   Call between .Ltmp170 and .Ltmp172
	.byte	0                               #     has no landing pad
	.byte	0                               #   On action: cleanup
	.uleb128 .Ltmp172-.Lfunc_begin17        # >> Call Site 8 <<
	.uleb128 .Ltmp173-.Ltmp172              #   Call between .Ltmp172 and .Ltmp173
	.uleb128 .Ltmp174-.Lfunc_begin17        #     jumps to .Ltmp174
	.byte	5                               #   On action: 3
	.uleb128 .Ltmp173-.Lfunc_begin17        # >> Call Site 9 <<
	.uleb128 .Lfunc_end83-.Ltmp173          #   Call between .Ltmp173 and .Lfunc_end83
	.byte	0                               #     has no landing pad
	.byte	0                               #   On action: cleanup
.Lcst_end17:
	.byte	0                               # >> Action Record 1 <<
                                        #   Cleanup
	.byte	0                               #   No further actions
	.byte	1                               # >> Action Record 2 <<
                                        #   Catch TypeInfo 1
	.byte	125                             #   Continue to action 1
	.byte	2                               # >> Action Record 3 <<
                                        #   Catch TypeInfo 2
	.byte	0                               #   No further actions
	.p2align	2, 0x0
                                        # >> Catch TypeInfos <<
	.long	0                               # TypeInfo 2
	.long	_ZTISt9exception                # TypeInfo 1
.Lttbase3:
	.p2align	2, 0x0
                                        # -- End function
	.section	.text._ZNSt8functionIFvN4sycl3_V114exception_listEEEC2IRS3_vEEOT_,"axG",@progbits,_ZNSt8functionIFvN4sycl3_V114exception_listEEEC2IRS3_vEEOT_,comdat
	.weak	_ZNSt8functionIFvN4sycl3_V114exception_listEEEC2IRS3_vEEOT_ # -- Begin function _ZNSt8functionIFvN4sycl3_V114exception_listEEEC2IRS3_vEEOT_
	.p2align	4
	.type	_ZNSt8functionIFvN4sycl3_V114exception_listEEEC2IRS3_vEEOT_,@function
_ZNSt8functionIFvN4sycl3_V114exception_listEEEC2IRS3_vEEOT_: # @_ZNSt8functionIFvN4sycl3_V114exception_listEEEC2IRS3_vEEOT_
	.cfi_startproc
# %bb.0:                                # %entry
	pushq	%rbp
	.cfi_def_cfa_offset 16
	.cfi_offset %rbp, -16
	movq	%rsp, %rbp
	.cfi_def_cfa_register %rbp
	subq	$32, %rsp
	movq	%rdi, -8(%rbp)
	movq	%rsi, -16(%rbp)
	movq	-8(%rbp), %rdi
	movq	%rdi, -24(%rbp)                 # 8-byte Spill
	xorl	%esi, %esi
	movl	$24, %edx
	callq	memset@PLT
	movq	-24(%rbp), %rdi                 # 8-byte Reload
	callq	_ZNSt14_Function_baseC2Ev
	movq	-24(%rbp), %rax                 # 8-byte Reload
	movq	$0, 24(%rax)
	movq	-16(%rbp), %rdi
	callq	_ZNSt14_Function_base13_Base_managerIPFvN4sycl3_V114exception_listEEE21_M_not_empty_functionIS4_EEbPT_
	testb	$1, %al
	jne	.LBB84_1
	jmp	.LBB84_2
.LBB84_1:                               # %if.then
	movq	-24(%rbp), %rdi                 # 8-byte Reload
	movq	-16(%rbp), %rsi
	callq	_ZNSt14_Function_base13_Base_managerIPFvN4sycl3_V114exception_listEEE15_M_init_functorIRS4_EEvRSt9_Any_dataOT_
	movq	-24(%rbp), %rax                 # 8-byte Reload
	movabsq	$_ZNSt17_Function_handlerIFvN4sycl3_V114exception_listEEPS3_E9_M_invokeERKSt9_Any_dataOS2_, %rcx
	movq	%rcx, 24(%rax)
	movabsq	$_ZNSt17_Function_handlerIFvN4sycl3_V114exception_listEEPS3_E10_M_managerERSt9_Any_dataRKS6_St18_Manager_operation, %rcx
	movq	%rcx, 16(%rax)
.LBB84_2:                               # %if.end
	addq	$32, %rsp
	popq	%rbp
	.cfi_def_cfa %rsp, 8
	retq
.Lfunc_end84:
	.size	_ZNSt8functionIFvN4sycl3_V114exception_listEEEC2IRS3_vEEOT_, .Lfunc_end84-_ZNSt8functionIFvN4sycl3_V114exception_listEEEC2IRS3_vEEOT_
	.cfi_endproc
                                        # -- End function
	.section	.text._ZN4sycl3_V15queueC2IFiRKNS0_6deviceEEvEERKT_RKSt8functionIFvNS0_14exception_listEEERKNS0_13property_listE,"axG",@progbits,_ZN4sycl3_V15queueC2IFiRKNS0_6deviceEEvEERKT_RKSt8functionIFvNS0_14exception_listEEERKNS0_13property_listE,comdat
	.weak	_ZN4sycl3_V15queueC2IFiRKNS0_6deviceEEvEERKT_RKSt8functionIFvNS0_14exception_listEEERKNS0_13property_listE # -- Begin function _ZN4sycl3_V15queueC2IFiRKNS0_6deviceEEvEERKT_RKSt8functionIFvNS0_14exception_listEEERKNS0_13property_listE
	.p2align	4
	.type	_ZN4sycl3_V15queueC2IFiRKNS0_6deviceEEvEERKT_RKSt8functionIFvNS0_14exception_listEEERKNS0_13property_listE,@function
_ZN4sycl3_V15queueC2IFiRKNS0_6deviceEEvEERKT_RKSt8functionIFvNS0_14exception_listEEERKNS0_13property_listE: # @_ZN4sycl3_V15queueC2IFiRKNS0_6deviceEEvEERKT_RKSt8functionIFvNS0_14exception_listEEERKNS0_13property_listE
.Lfunc_begin18:
	.cfi_startproc
	.cfi_personality 3, __gxx_personality_v0
	.cfi_lsda 3, .Lexception18
# %bb.0:                                # %entry
	pushq	%rbp
	.cfi_def_cfa_offset 16
	.cfi_offset %rbp, -16
	movq	%rsp, %rbp
	.cfi_def_cfa_register %rbp
	subq	$112, %rsp
	movq	%rdi, -8(%rbp)
	movq	%rsi, -16(%rbp)
	movq	%rdx, -24(%rbp)
	movq	%rcx, -32(%rbp)
	movq	-8(%rbp), %rax
	movq	%rax, -112(%rbp)                # 8-byte Spill
	movq	-16(%rbp), %rsi
	leaq	-80(%rbp), %rdi
	movq	%rdi, -104(%rbp)                # 8-byte Spill
	callq	_ZNSt8functionIFiRKN4sycl3_V16deviceEEEC2IRS5_vEEOT_
	movq	-104(%rbp), %rsi                # 8-byte Reload
.Ltmp175:
	leaq	-48(%rbp), %rdi
	callq	_ZN4sycl3_V16detail13select_deviceERKSt8functionIFiRKNS0_6deviceEEE
.Ltmp176:
	jmp	.LBB85_1
.LBB85_1:                               # %invoke.cont
	movq	-112(%rbp), %rdi                # 8-byte Reload
	movq	-24(%rbp), %rdx
	movq	-32(%rbp), %rcx
.Ltmp178:
	leaq	-48(%rbp), %rsi
	callq	_ZN4sycl3_V15queueC2ERKNS0_6deviceERKSt8functionIFvNS0_14exception_listEEERKNS0_13property_listE
.Ltmp179:
	jmp	.LBB85_2
.LBB85_2:                               # %invoke.cont4
	leaq	-48(%rbp), %rdi
	callq	_ZN4sycl3_V16deviceD2Ev
	leaq	-80(%rbp), %rdi
	callq	_ZNSt8functionIFiRKN4sycl3_V16deviceEEED2Ev
	addq	$112, %rsp
	popq	%rbp
	.cfi_def_cfa %rsp, 8
	retq
.LBB85_3:                               # %lpad
	.cfi_def_cfa %rbp, 16
.Ltmp177:
	movq	%rax, %rcx
	movl	%edx, %eax
	movq	%rcx, -88(%rbp)
	movl	%eax, -92(%rbp)
	jmp	.LBB85_5
.LBB85_4:                               # %lpad3
.Ltmp180:
	movq	%rax, %rcx
	movl	%edx, %eax
	movq	%rcx, -88(%rbp)
	movl	%eax, -92(%rbp)
	leaq	-48(%rbp), %rdi
	callq	_ZN4sycl3_V16deviceD2Ev
.LBB85_5:                               # %ehcleanup
	leaq	-80(%rbp), %rdi
	callq	_ZNSt8functionIFiRKN4sycl3_V16deviceEEED2Ev
# %bb.6:                                # %eh.resume
	movq	-88(%rbp), %rdi
	callq	_Unwind_Resume@PLT
.Lfunc_end85:
	.size	_ZN4sycl3_V15queueC2IFiRKNS0_6deviceEEvEERKT_RKSt8functionIFvNS0_14exception_listEEERKNS0_13property_listE, .Lfunc_end85-_ZN4sycl3_V15queueC2IFiRKNS0_6deviceEEvEERKT_RKSt8functionIFvNS0_14exception_listEEERKNS0_13property_listE
	.cfi_endproc
	.section	.gcc_except_table._ZN4sycl3_V15queueC2IFiRKNS0_6deviceEEvEERKT_RKSt8functionIFvNS0_14exception_listEEERKNS0_13property_listE,"aG",@progbits,_ZN4sycl3_V15queueC2IFiRKNS0_6deviceEEvEERKT_RKSt8functionIFvNS0_14exception_listEEERKNS0_13property_listE,comdat
	.p2align	2, 0x0
GCC_except_table85:
.Lexception18:
	.byte	255                             # @LPStart Encoding = omit
	.byte	255                             # @TType Encoding = omit
	.byte	1                               # Call site Encoding = uleb128
	.uleb128 .Lcst_end18-.Lcst_begin18
.Lcst_begin18:
	.uleb128 .Ltmp175-.Lfunc_begin18        # >> Call Site 1 <<
	.uleb128 .Ltmp176-.Ltmp175              #   Call between .Ltmp175 and .Ltmp176
	.uleb128 .Ltmp177-.Lfunc_begin18        #     jumps to .Ltmp177
	.byte	0                               #   On action: cleanup
	.uleb128 .Ltmp178-.Lfunc_begin18        # >> Call Site 2 <<
	.uleb128 .Ltmp179-.Ltmp178              #   Call between .Ltmp178 and .Ltmp179
	.uleb128 .Ltmp180-.Lfunc_begin18        #     jumps to .Ltmp180
	.byte	0                               #   On action: cleanup
	.uleb128 .Ltmp179-.Lfunc_begin18        # >> Call Site 3 <<
	.uleb128 .Lfunc_end85-.Ltmp179          #   Call between .Ltmp179 and .Lfunc_end85
	.byte	0                               #     has no landing pad
	.byte	0                               #   On action: cleanup
.Lcst_end18:
	.p2align	2, 0x0
                                        # -- End function
	.section	.text._ZNSt8functionIFvN4sycl3_V114exception_listEEED2Ev,"axG",@progbits,_ZNSt8functionIFvN4sycl3_V114exception_listEEED2Ev,comdat
	.weak	_ZNSt8functionIFvN4sycl3_V114exception_listEEED2Ev # -- Begin function _ZNSt8functionIFvN4sycl3_V114exception_listEEED2Ev
	.p2align	4
	.type	_ZNSt8functionIFvN4sycl3_V114exception_listEEED2Ev,@function
_ZNSt8functionIFvN4sycl3_V114exception_listEEED2Ev: # @_ZNSt8functionIFvN4sycl3_V114exception_listEEED2Ev
	.cfi_startproc
# %bb.0:                                # %entry
	pushq	%rbp
	.cfi_def_cfa_offset 16
	.cfi_offset %rbp, -16
	movq	%rsp, %rbp
	.cfi_def_cfa_register %rbp
	subq	$16, %rsp
	movq	%rdi, -8(%rbp)
	movq	-8(%rbp), %rdi
	callq	_ZNSt14_Function_baseD2Ev
	addq	$16, %rsp
	popq	%rbp
	.cfi_def_cfa %rsp, 8
	retq
.Lfunc_end86:
	.size	_ZNSt8functionIFvN4sycl3_V114exception_listEEED2Ev, .Lfunc_end86-_ZNSt8functionIFvN4sycl3_V114exception_listEEED2Ev
	.cfi_endproc
                                        # -- End function
	.section	.text._ZN9__gnu_cxxneIPKNSt15__exception_ptr13exception_ptrESt6vectorIS2_SaIS2_EEEEbRKNS_17__normal_iteratorIT_T0_EESD_,"axG",@progbits,_ZN9__gnu_cxxneIPKNSt15__exception_ptr13exception_ptrESt6vectorIS2_SaIS2_EEEEbRKNS_17__normal_iteratorIT_T0_EESD_,comdat
	.weak	_ZN9__gnu_cxxneIPKNSt15__exception_ptr13exception_ptrESt6vectorIS2_SaIS2_EEEEbRKNS_17__normal_iteratorIT_T0_EESD_ # -- Begin function _ZN9__gnu_cxxneIPKNSt15__exception_ptr13exception_ptrESt6vectorIS2_SaIS2_EEEEbRKNS_17__normal_iteratorIT_T0_EESD_
	.p2align	4
	.type	_ZN9__gnu_cxxneIPKNSt15__exception_ptr13exception_ptrESt6vectorIS2_SaIS2_EEEEbRKNS_17__normal_iteratorIT_T0_EESD_,@function
_ZN9__gnu_cxxneIPKNSt15__exception_ptr13exception_ptrESt6vectorIS2_SaIS2_EEEEbRKNS_17__normal_iteratorIT_T0_EESD_: # @_ZN9__gnu_cxxneIPKNSt15__exception_ptr13exception_ptrESt6vectorIS2_SaIS2_EEEEbRKNS_17__normal_iteratorIT_T0_EESD_
	.cfi_startproc
# %bb.0:                                # %entry
	pushq	%rbp
	.cfi_def_cfa_offset 16
	.cfi_offset %rbp, -16
	movq	%rsp, %rbp
	.cfi_def_cfa_register %rbp
	subq	$32, %rsp
	movq	%rdi, -8(%rbp)
	movq	%rsi, -16(%rbp)
	movq	-8(%rbp), %rdi
	callq	_ZNK9__gnu_cxx17__normal_iteratorIPKNSt15__exception_ptr13exception_ptrESt6vectorIS2_SaIS2_EEE4baseEv
	movq	(%rax), %rax
	movq	%rax, -24(%rbp)                 # 8-byte Spill
	movq	-16(%rbp), %rdi
	callq	_ZNK9__gnu_cxx17__normal_iteratorIPKNSt15__exception_ptr13exception_ptrESt6vectorIS2_SaIS2_EEE4baseEv
	movq	%rax, %rcx
	movq	-24(%rbp), %rax                 # 8-byte Reload
	cmpq	(%rcx), %rax
	setne	%al
	andb	$1, %al
	addq	$32, %rsp
	popq	%rbp
	.cfi_def_cfa %rsp, 8
	retq
.Lfunc_end87:
	.size	_ZN9__gnu_cxxneIPKNSt15__exception_ptr13exception_ptrESt6vectorIS2_SaIS2_EEEEbRKNS_17__normal_iteratorIT_T0_EESD_, .Lfunc_end87-_ZN9__gnu_cxxneIPKNSt15__exception_ptr13exception_ptrESt6vectorIS2_SaIS2_EEEEbRKNS_17__normal_iteratorIT_T0_EESD_
	.cfi_endproc
                                        # -- End function
	.section	.text._ZNK9__gnu_cxx17__normal_iteratorIPKNSt15__exception_ptr13exception_ptrESt6vectorIS2_SaIS2_EEEdeEv,"axG",@progbits,_ZNK9__gnu_cxx17__normal_iteratorIPKNSt15__exception_ptr13exception_ptrESt6vectorIS2_SaIS2_EEEdeEv,comdat
	.weak	_ZNK9__gnu_cxx17__normal_iteratorIPKNSt15__exception_ptr13exception_ptrESt6vectorIS2_SaIS2_EEEdeEv # -- Begin function _ZNK9__gnu_cxx17__normal_iteratorIPKNSt15__exception_ptr13exception_ptrESt6vectorIS2_SaIS2_EEEdeEv
	.p2align	4
	.type	_ZNK9__gnu_cxx17__normal_iteratorIPKNSt15__exception_ptr13exception_ptrESt6vectorIS2_SaIS2_EEEdeEv,@function
_ZNK9__gnu_cxx17__normal_iteratorIPKNSt15__exception_ptr13exception_ptrESt6vectorIS2_SaIS2_EEEdeEv: # @_ZNK9__gnu_cxx17__normal_iteratorIPKNSt15__exception_ptr13exception_ptrESt6vectorIS2_SaIS2_EEEdeEv
	.cfi_startproc
# %bb.0:                                # %entry
	pushq	%rbp
	.cfi_def_cfa_offset 16
	.cfi_offset %rbp, -16
	movq	%rsp, %rbp
	.cfi_def_cfa_register %rbp
	movq	%rdi, -8(%rbp)
	movq	-8(%rbp), %rax
	movq	(%rax), %rax
	popq	%rbp
	.cfi_def_cfa %rsp, 8
	retq
.Lfunc_end88:
	.size	_ZNK9__gnu_cxx17__normal_iteratorIPKNSt15__exception_ptr13exception_ptrESt6vectorIS2_SaIS2_EEEdeEv, .Lfunc_end88-_ZNK9__gnu_cxx17__normal_iteratorIPKNSt15__exception_ptr13exception_ptrESt6vectorIS2_SaIS2_EEEdeEv
	.cfi_endproc
                                        # -- End function
	.section	.text._ZNKSt15__exception_ptr13exception_ptrcvbEv,"axG",@progbits,_ZNKSt15__exception_ptr13exception_ptrcvbEv,comdat
	.weak	_ZNKSt15__exception_ptr13exception_ptrcvbEv # -- Begin function _ZNKSt15__exception_ptr13exception_ptrcvbEv
	.p2align	4
	.type	_ZNKSt15__exception_ptr13exception_ptrcvbEv,@function
_ZNKSt15__exception_ptr13exception_ptrcvbEv: # @_ZNKSt15__exception_ptr13exception_ptrcvbEv
	.cfi_startproc
# %bb.0:                                # %entry
	pushq	%rbp
	.cfi_def_cfa_offset 16
	.cfi_offset %rbp, -16
	movq	%rsp, %rbp
	.cfi_def_cfa_register %rbp
	movq	%rdi, -8(%rbp)
	movq	-8(%rbp), %rax
	cmpq	$0, (%rax)
	setne	%al
	andb	$1, %al
	popq	%rbp
	.cfi_def_cfa %rsp, 8
	retq
.Lfunc_end89:
	.size	_ZNKSt15__exception_ptr13exception_ptrcvbEv, .Lfunc_end89-_ZNKSt15__exception_ptr13exception_ptrcvbEv
	.cfi_endproc
                                        # -- End function
	.section	.text._ZNSt15__exception_ptr13exception_ptrC2ERKS0_,"axG",@progbits,_ZNSt15__exception_ptr13exception_ptrC2ERKS0_,comdat
	.weak	_ZNSt15__exception_ptr13exception_ptrC2ERKS0_ # -- Begin function _ZNSt15__exception_ptr13exception_ptrC2ERKS0_
	.p2align	4
	.type	_ZNSt15__exception_ptr13exception_ptrC2ERKS0_,@function
_ZNSt15__exception_ptr13exception_ptrC2ERKS0_: # @_ZNSt15__exception_ptr13exception_ptrC2ERKS0_
	.cfi_startproc
# %bb.0:                                # %entry
	pushq	%rbp
	.cfi_def_cfa_offset 16
	.cfi_offset %rbp, -16
	movq	%rsp, %rbp
	.cfi_def_cfa_register %rbp
	subq	$32, %rsp
	movq	%rdi, -8(%rbp)
	movq	%rsi, -16(%rbp)
	movq	-8(%rbp), %rax
	movq	%rax, -24(%rbp)                 # 8-byte Spill
	movq	-16(%rbp), %rcx
	movq	(%rcx), %rcx
	movq	%rcx, (%rax)
	cmpq	$0, (%rax)
	je	.LBB90_2
# %bb.1:                                # %if.then
	movq	-24(%rbp), %rdi                 # 8-byte Reload
	callq	_ZNSt15__exception_ptr13exception_ptr9_M_addrefEv
.LBB90_2:                               # %if.end
	addq	$32, %rsp
	popq	%rbp
	.cfi_def_cfa %rsp, 8
	retq
.Lfunc_end90:
	.size	_ZNSt15__exception_ptr13exception_ptrC2ERKS0_, .Lfunc_end90-_ZNSt15__exception_ptr13exception_ptrC2ERKS0_
	.cfi_endproc
                                        # -- End function
	.section	.text._ZNSt15__exception_ptr13exception_ptrD2Ev,"axG",@progbits,_ZNSt15__exception_ptr13exception_ptrD2Ev,comdat
	.weak	_ZNSt15__exception_ptr13exception_ptrD2Ev # -- Begin function _ZNSt15__exception_ptr13exception_ptrD2Ev
	.p2align	4
	.type	_ZNSt15__exception_ptr13exception_ptrD2Ev,@function
_ZNSt15__exception_ptr13exception_ptrD2Ev: # @_ZNSt15__exception_ptr13exception_ptrD2Ev
	.cfi_startproc
# %bb.0:                                # %entry
	pushq	%rbp
	.cfi_def_cfa_offset 16
	.cfi_offset %rbp, -16
	movq	%rsp, %rbp
	.cfi_def_cfa_register %rbp
	subq	$16, %rsp
	movq	%rdi, -8(%rbp)
	movq	-8(%rbp), %rax
	movq	%rax, -16(%rbp)                 # 8-byte Spill
	cmpq	$0, (%rax)
	je	.LBB91_2
# %bb.1:                                # %if.then
	movq	-16(%rbp), %rdi                 # 8-byte Reload
	callq	_ZNSt15__exception_ptr13exception_ptr10_M_releaseEv
.LBB91_2:                               # %if.end
	addq	$16, %rsp
	popq	%rbp
	.cfi_def_cfa %rsp, 8
	retq
.Lfunc_end91:
	.size	_ZNSt15__exception_ptr13exception_ptrD2Ev, .Lfunc_end91-_ZNSt15__exception_ptr13exception_ptrD2Ev
	.cfi_endproc
                                        # -- End function
	.section	.text._ZN9__gnu_cxx17__normal_iteratorIPKNSt15__exception_ptr13exception_ptrESt6vectorIS2_SaIS2_EEEppEv,"axG",@progbits,_ZN9__gnu_cxx17__normal_iteratorIPKNSt15__exception_ptr13exception_ptrESt6vectorIS2_SaIS2_EEEppEv,comdat
	.weak	_ZN9__gnu_cxx17__normal_iteratorIPKNSt15__exception_ptr13exception_ptrESt6vectorIS2_SaIS2_EEEppEv # -- Begin function _ZN9__gnu_cxx17__normal_iteratorIPKNSt15__exception_ptr13exception_ptrESt6vectorIS2_SaIS2_EEEppEv
	.p2align	4
	.type	_ZN9__gnu_cxx17__normal_iteratorIPKNSt15__exception_ptr13exception_ptrESt6vectorIS2_SaIS2_EEEppEv,@function
_ZN9__gnu_cxx17__normal_iteratorIPKNSt15__exception_ptr13exception_ptrESt6vectorIS2_SaIS2_EEEppEv: # @_ZN9__gnu_cxx17__normal_iteratorIPKNSt15__exception_ptr13exception_ptrESt6vectorIS2_SaIS2_EEEppEv
	.cfi_startproc
# %bb.0:                                # %entry
	pushq	%rbp
	.cfi_def_cfa_offset 16
	.cfi_offset %rbp, -16
	movq	%rsp, %rbp
	.cfi_def_cfa_register %rbp
	movq	%rdi, -8(%rbp)
	movq	-8(%rbp), %rax
	movq	(%rax), %rcx
	addq	$8, %rcx
	movq	%rcx, (%rax)
	popq	%rbp
	.cfi_def_cfa %rsp, 8
	retq
.Lfunc_end92:
	.size	_ZN9__gnu_cxx17__normal_iteratorIPKNSt15__exception_ptr13exception_ptrESt6vectorIS2_SaIS2_EEEppEv, .Lfunc_end92-_ZN9__gnu_cxx17__normal_iteratorIPKNSt15__exception_ptr13exception_ptrESt6vectorIS2_SaIS2_EEEppEv
	.cfi_endproc
                                        # -- End function
	.section	.text._ZNK9__gnu_cxx17__normal_iteratorIPKNSt15__exception_ptr13exception_ptrESt6vectorIS2_SaIS2_EEE4baseEv,"axG",@progbits,_ZNK9__gnu_cxx17__normal_iteratorIPKNSt15__exception_ptr13exception_ptrESt6vectorIS2_SaIS2_EEE4baseEv,comdat
	.weak	_ZNK9__gnu_cxx17__normal_iteratorIPKNSt15__exception_ptr13exception_ptrESt6vectorIS2_SaIS2_EEE4baseEv # -- Begin function _ZNK9__gnu_cxx17__normal_iteratorIPKNSt15__exception_ptr13exception_ptrESt6vectorIS2_SaIS2_EEE4baseEv
	.p2align	4
	.type	_ZNK9__gnu_cxx17__normal_iteratorIPKNSt15__exception_ptr13exception_ptrESt6vectorIS2_SaIS2_EEE4baseEv,@function
_ZNK9__gnu_cxx17__normal_iteratorIPKNSt15__exception_ptr13exception_ptrESt6vectorIS2_SaIS2_EEE4baseEv: # @_ZNK9__gnu_cxx17__normal_iteratorIPKNSt15__exception_ptr13exception_ptrESt6vectorIS2_SaIS2_EEE4baseEv
	.cfi_startproc
# %bb.0:                                # %entry
	pushq	%rbp
	.cfi_def_cfa_offset 16
	.cfi_offset %rbp, -16
	movq	%rsp, %rbp
	.cfi_def_cfa_register %rbp
	movq	%rdi, -8(%rbp)
	movq	-8(%rbp), %rax
	popq	%rbp
	.cfi_def_cfa %rsp, 8
	retq
.Lfunc_end93:
	.size	_ZNK9__gnu_cxx17__normal_iteratorIPKNSt15__exception_ptr13exception_ptrESt6vectorIS2_SaIS2_EEE4baseEv, .Lfunc_end93-_ZNK9__gnu_cxx17__normal_iteratorIPKNSt15__exception_ptr13exception_ptrESt6vectorIS2_SaIS2_EEE4baseEv
	.cfi_endproc
                                        # -- End function
	.section	.text._ZNSt14_Function_baseC2Ev,"axG",@progbits,_ZNSt14_Function_baseC2Ev,comdat
	.weak	_ZNSt14_Function_baseC2Ev       # -- Begin function _ZNSt14_Function_baseC2Ev
	.p2align	4
	.type	_ZNSt14_Function_baseC2Ev,@function
_ZNSt14_Function_baseC2Ev:              # @_ZNSt14_Function_baseC2Ev
	.cfi_startproc
# %bb.0:                                # %entry
	pushq	%rbp
	.cfi_def_cfa_offset 16
	.cfi_offset %rbp, -16
	movq	%rsp, %rbp
	.cfi_def_cfa_register %rbp
	movq	%rdi, -8(%rbp)
	movq	-8(%rbp), %rax
	movq	$0, (%rax)
	movq	$0, 16(%rax)
	popq	%rbp
	.cfi_def_cfa %rsp, 8
	retq
.Lfunc_end94:
	.size	_ZNSt14_Function_baseC2Ev, .Lfunc_end94-_ZNSt14_Function_baseC2Ev
	.cfi_endproc
                                        # -- End function
	.section	.text._ZNSt14_Function_base13_Base_managerIPFvN4sycl3_V114exception_listEEE21_M_not_empty_functionIS4_EEbPT_,"axG",@progbits,_ZNSt14_Function_base13_Base_managerIPFvN4sycl3_V114exception_listEEE21_M_not_empty_functionIS4_EEbPT_,comdat
	.weak	_ZNSt14_Function_base13_Base_managerIPFvN4sycl3_V114exception_listEEE21_M_not_empty_functionIS4_EEbPT_ # -- Begin function _ZNSt14_Function_base13_Base_managerIPFvN4sycl3_V114exception_listEEE21_M_not_empty_functionIS4_EEbPT_
	.p2align	4
	.type	_ZNSt14_Function_base13_Base_managerIPFvN4sycl3_V114exception_listEEE21_M_not_empty_functionIS4_EEbPT_,@function
_ZNSt14_Function_base13_Base_managerIPFvN4sycl3_V114exception_listEEE21_M_not_empty_functionIS4_EEbPT_: # @_ZNSt14_Function_base13_Base_managerIPFvN4sycl3_V114exception_listEEE21_M_not_empty_functionIS4_EEbPT_
	.cfi_startproc
# %bb.0:                                # %entry
	pushq	%rbp
	.cfi_def_cfa_offset 16
	.cfi_offset %rbp, -16
	movq	%rsp, %rbp
	.cfi_def_cfa_register %rbp
	movq	%rdi, -8(%rbp)
	cmpq	$0, -8(%rbp)
	setne	%al
	andb	$1, %al
	popq	%rbp
	.cfi_def_cfa %rsp, 8
	retq
.Lfunc_end95:
	.size	_ZNSt14_Function_base13_Base_managerIPFvN4sycl3_V114exception_listEEE21_M_not_empty_functionIS4_EEbPT_, .Lfunc_end95-_ZNSt14_Function_base13_Base_managerIPFvN4sycl3_V114exception_listEEE21_M_not_empty_functionIS4_EEbPT_
	.cfi_endproc
                                        # -- End function
	.section	.text._ZNSt14_Function_base13_Base_managerIPFvN4sycl3_V114exception_listEEE15_M_init_functorIRS4_EEvRSt9_Any_dataOT_,"axG",@progbits,_ZNSt14_Function_base13_Base_managerIPFvN4sycl3_V114exception_listEEE15_M_init_functorIRS4_EEvRSt9_Any_dataOT_,comdat
	.weak	_ZNSt14_Function_base13_Base_managerIPFvN4sycl3_V114exception_listEEE15_M_init_functorIRS4_EEvRSt9_Any_dataOT_ # -- Begin function _ZNSt14_Function_base13_Base_managerIPFvN4sycl3_V114exception_listEEE15_M_init_functorIRS4_EEvRSt9_Any_dataOT_
	.p2align	4
	.type	_ZNSt14_Function_base13_Base_managerIPFvN4sycl3_V114exception_listEEE15_M_init_functorIRS4_EEvRSt9_Any_dataOT_,@function
_ZNSt14_Function_base13_Base_managerIPFvN4sycl3_V114exception_listEEE15_M_init_functorIRS4_EEvRSt9_Any_dataOT_: # @_ZNSt14_Function_base13_Base_managerIPFvN4sycl3_V114exception_listEEE15_M_init_functorIRS4_EEvRSt9_Any_dataOT_
.Lfunc_begin19:
	.cfi_startproc
	.cfi_personality 3, __gxx_personality_v0
	.cfi_lsda 3, .Lexception19
# %bb.0:                                # %entry
	pushq	%rbp
	.cfi_def_cfa_offset 16
	.cfi_offset %rbp, -16
	movq	%rsp, %rbp
	.cfi_def_cfa_register %rbp
	subq	$32, %rsp
	movq	%rdi, -8(%rbp)
	movq	%rsi, -16(%rbp)
	movq	-8(%rbp), %rdi
	movq	-16(%rbp), %rsi
.Ltmp181:
	callq	_ZNSt14_Function_base13_Base_managerIPFvN4sycl3_V114exception_listEEE9_M_createIRS4_EEvRSt9_Any_dataOT_St17integral_constantIbLb1EE
.Ltmp182:
	jmp	.LBB96_1
.LBB96_1:                               # %invoke.cont
	addq	$32, %rsp
	popq	%rbp
	.cfi_def_cfa %rsp, 8
	retq
.LBB96_2:                               # %terminate.lpad
	.cfi_def_cfa %rbp, 16
.Ltmp183:
	movq	%rax, %rdi
                                        # kill: def $eax killed $edx killed $rdx
	callq	__clang_call_terminate
.Lfunc_end96:
	.size	_ZNSt14_Function_base13_Base_managerIPFvN4sycl3_V114exception_listEEE15_M_init_functorIRS4_EEvRSt9_Any_dataOT_, .Lfunc_end96-_ZNSt14_Function_base13_Base_managerIPFvN4sycl3_V114exception_listEEE15_M_init_functorIRS4_EEvRSt9_Any_dataOT_
	.cfi_endproc
	.section	.gcc_except_table._ZNSt14_Function_base13_Base_managerIPFvN4sycl3_V114exception_listEEE15_M_init_functorIRS4_EEvRSt9_Any_dataOT_,"aG",@progbits,_ZNSt14_Function_base13_Base_managerIPFvN4sycl3_V114exception_listEEE15_M_init_functorIRS4_EEvRSt9_Any_dataOT_,comdat
	.p2align	2, 0x0
GCC_except_table96:
.Lexception19:
	.byte	255                             # @LPStart Encoding = omit
	.byte	3                               # @TType Encoding = udata4
	.uleb128 .Lttbase4-.Lttbaseref4
.Lttbaseref4:
	.byte	1                               # Call site Encoding = uleb128
	.uleb128 .Lcst_end19-.Lcst_begin19
.Lcst_begin19:
	.uleb128 .Ltmp181-.Lfunc_begin19        # >> Call Site 1 <<
	.uleb128 .Ltmp182-.Ltmp181              #   Call between .Ltmp181 and .Ltmp182
	.uleb128 .Ltmp183-.Lfunc_begin19        #     jumps to .Ltmp183
	.byte	1                               #   On action: 1
.Lcst_end19:
	.byte	1                               # >> Action Record 1 <<
                                        #   Catch TypeInfo 1
	.byte	0                               #   No further actions
	.p2align	2, 0x0
                                        # >> Catch TypeInfos <<
	.long	0                               # TypeInfo 1
.Lttbase4:
	.p2align	2, 0x0
                                        # -- End function
	.section	.text._ZNSt17_Function_handlerIFvN4sycl3_V114exception_listEEPS3_E9_M_invokeERKSt9_Any_dataOS2_,"axG",@progbits,_ZNSt17_Function_handlerIFvN4sycl3_V114exception_listEEPS3_E9_M_invokeERKSt9_Any_dataOS2_,comdat
	.weak	_ZNSt17_Function_handlerIFvN4sycl3_V114exception_listEEPS3_E9_M_invokeERKSt9_Any_dataOS2_ # -- Begin function _ZNSt17_Function_handlerIFvN4sycl3_V114exception_listEEPS3_E9_M_invokeERKSt9_Any_dataOS2_
	.p2align	4
	.type	_ZNSt17_Function_handlerIFvN4sycl3_V114exception_listEEPS3_E9_M_invokeERKSt9_Any_dataOS2_,@function
_ZNSt17_Function_handlerIFvN4sycl3_V114exception_listEEPS3_E9_M_invokeERKSt9_Any_dataOS2_: # @_ZNSt17_Function_handlerIFvN4sycl3_V114exception_listEEPS3_E9_M_invokeERKSt9_Any_dataOS2_
	.cfi_startproc
# %bb.0:                                # %entry
	pushq	%rbp
	.cfi_def_cfa_offset 16
	.cfi_offset %rbp, -16
	movq	%rsp, %rbp
	.cfi_def_cfa_register %rbp
	subq	$16, %rsp
	movq	%rdi, -8(%rbp)
	movq	%rsi, -16(%rbp)
	movq	-8(%rbp), %rdi
	callq	_ZNSt14_Function_base13_Base_managerIPFvN4sycl3_V114exception_listEEE14_M_get_pointerERKSt9_Any_data
	movq	%rax, %rdi
	movq	-16(%rbp), %rsi
	callq	_ZSt10__invoke_rIvRPFvN4sycl3_V114exception_listEEJS2_EENSt9enable_ifIX16is_invocable_r_vIT_T0_DpT1_EES7_E4typeEOS8_DpOS9_
	addq	$16, %rsp
	popq	%rbp
	.cfi_def_cfa %rsp, 8
	retq
.Lfunc_end97:
	.size	_ZNSt17_Function_handlerIFvN4sycl3_V114exception_listEEPS3_E9_M_invokeERKSt9_Any_dataOS2_, .Lfunc_end97-_ZNSt17_Function_handlerIFvN4sycl3_V114exception_listEEPS3_E9_M_invokeERKSt9_Any_dataOS2_
	.cfi_endproc
                                        # -- End function
	.section	.text._ZNSt17_Function_handlerIFvN4sycl3_V114exception_listEEPS3_E10_M_managerERSt9_Any_dataRKS6_St18_Manager_operation,"axG",@progbits,_ZNSt17_Function_handlerIFvN4sycl3_V114exception_listEEPS3_E10_M_managerERSt9_Any_dataRKS6_St18_Manager_operation,comdat
	.weak	_ZNSt17_Function_handlerIFvN4sycl3_V114exception_listEEPS3_E10_M_managerERSt9_Any_dataRKS6_St18_Manager_operation # -- Begin function _ZNSt17_Function_handlerIFvN4sycl3_V114exception_listEEPS3_E10_M_managerERSt9_Any_dataRKS6_St18_Manager_operation
	.p2align	4
	.type	_ZNSt17_Function_handlerIFvN4sycl3_V114exception_listEEPS3_E10_M_managerERSt9_Any_dataRKS6_St18_Manager_operation,@function
_ZNSt17_Function_handlerIFvN4sycl3_V114exception_listEEPS3_E10_M_managerERSt9_Any_dataRKS6_St18_Manager_operation: # @_ZNSt17_Function_handlerIFvN4sycl3_V114exception_listEEPS3_E10_M_managerERSt9_Any_dataRKS6_St18_Manager_operation
	.cfi_startproc
# %bb.0:                                # %entry
	pushq	%rbp
	.cfi_def_cfa_offset 16
	.cfi_offset %rbp, -16
	movq	%rsp, %rbp
	.cfi_def_cfa_register %rbp
	subq	$32, %rsp
	movq	%rdi, -8(%rbp)
	movq	%rsi, -16(%rbp)
	movl	%edx, -20(%rbp)
	movl	-20(%rbp), %eax
	movl	%eax, -24(%rbp)                 # 4-byte Spill
	testl	%eax, %eax
	je	.LBB98_1
	jmp	.LBB98_5
.LBB98_5:                               # %entry
	movl	-24(%rbp), %eax                 # 4-byte Reload
	subl	$1, %eax
	je	.LBB98_2
	jmp	.LBB98_3
.LBB98_1:                               # %sw.bb
	movq	-8(%rbp), %rdi
	callq	_ZNSt9_Any_data9_M_accessIPKSt9type_infoEERT_v
	movabsq	$_ZTIPFvN4sycl3_V114exception_listEE, %rcx
	movq	%rcx, (%rax)
	jmp	.LBB98_4
.LBB98_2:                               # %sw.bb1
	movq	-16(%rbp), %rdi
	callq	_ZNSt14_Function_base13_Base_managerIPFvN4sycl3_V114exception_listEEE14_M_get_pointerERKSt9_Any_data
	movq	%rax, -32(%rbp)                 # 8-byte Spill
	movq	-8(%rbp), %rdi
	callq	_ZNSt9_Any_data9_M_accessIPPFvN4sycl3_V114exception_listEEEERT_v
	movq	-32(%rbp), %rcx                 # 8-byte Reload
	movq	%rcx, (%rax)
	jmp	.LBB98_4
.LBB98_3:                               # %sw.default
	movq	-8(%rbp), %rdi
	movq	-16(%rbp), %rsi
	movl	-20(%rbp), %edx
	callq	_ZNSt14_Function_base13_Base_managerIPFvN4sycl3_V114exception_listEEE10_M_managerERSt9_Any_dataRKS7_St18_Manager_operation
.LBB98_4:                               # %sw.epilog
	xorl	%eax, %eax
                                        # kill: def $al killed $al killed $eax
	andb	$1, %al
	addq	$32, %rsp
	popq	%rbp
	.cfi_def_cfa %rsp, 8
	retq
.Lfunc_end98:
	.size	_ZNSt17_Function_handlerIFvN4sycl3_V114exception_listEEPS3_E10_M_managerERSt9_Any_dataRKS6_St18_Manager_operation, .Lfunc_end98-_ZNSt17_Function_handlerIFvN4sycl3_V114exception_listEEPS3_E10_M_managerERSt9_Any_dataRKS6_St18_Manager_operation
	.cfi_endproc
                                        # -- End function
	.section	.text._ZNSt14_Function_base13_Base_managerIPFvN4sycl3_V114exception_listEEE9_M_createIRS4_EEvRSt9_Any_dataOT_St17integral_constantIbLb1EE,"axG",@progbits,_ZNSt14_Function_base13_Base_managerIPFvN4sycl3_V114exception_listEEE9_M_createIRS4_EEvRSt9_Any_dataOT_St17integral_constantIbLb1EE,comdat
	.weak	_ZNSt14_Function_base13_Base_managerIPFvN4sycl3_V114exception_listEEE9_M_createIRS4_EEvRSt9_Any_dataOT_St17integral_constantIbLb1EE # -- Begin function _ZNSt14_Function_base13_Base_managerIPFvN4sycl3_V114exception_listEEE9_M_createIRS4_EEvRSt9_Any_dataOT_St17integral_constantIbLb1EE
	.p2align	4
	.type	_ZNSt14_Function_base13_Base_managerIPFvN4sycl3_V114exception_listEEE9_M_createIRS4_EEvRSt9_Any_dataOT_St17integral_constantIbLb1EE,@function
_ZNSt14_Function_base13_Base_managerIPFvN4sycl3_V114exception_listEEE9_M_createIRS4_EEvRSt9_Any_dataOT_St17integral_constantIbLb1EE: # @_ZNSt14_Function_base13_Base_managerIPFvN4sycl3_V114exception_listEEE9_M_createIRS4_EEvRSt9_Any_dataOT_St17integral_constantIbLb1EE
	.cfi_startproc
# %bb.0:                                # %entry
	pushq	%rbp
	.cfi_def_cfa_offset 16
	.cfi_offset %rbp, -16
	movq	%rsp, %rbp
	.cfi_def_cfa_register %rbp
	subq	$32, %rsp
	movq	%rdi, -16(%rbp)
	movq	%rsi, -24(%rbp)
	movq	-16(%rbp), %rdi
	callq	_ZNSt9_Any_data9_M_accessEv
	movq	-24(%rbp), %rcx
	movq	%rcx, (%rax)
	addq	$32, %rsp
	popq	%rbp
	.cfi_def_cfa %rsp, 8
	retq
.Lfunc_end99:
	.size	_ZNSt14_Function_base13_Base_managerIPFvN4sycl3_V114exception_listEEE9_M_createIRS4_EEvRSt9_Any_dataOT_St17integral_constantIbLb1EE, .Lfunc_end99-_ZNSt14_Function_base13_Base_managerIPFvN4sycl3_V114exception_listEEE9_M_createIRS4_EEvRSt9_Any_dataOT_St17integral_constantIbLb1EE
	.cfi_endproc
                                        # -- End function
	.section	.text._ZNSt9_Any_data9_M_accessEv,"axG",@progbits,_ZNSt9_Any_data9_M_accessEv,comdat
	.weak	_ZNSt9_Any_data9_M_accessEv     # -- Begin function _ZNSt9_Any_data9_M_accessEv
	.p2align	4
	.type	_ZNSt9_Any_data9_M_accessEv,@function
_ZNSt9_Any_data9_M_accessEv:            # @_ZNSt9_Any_data9_M_accessEv
	.cfi_startproc
# %bb.0:                                # %entry
	pushq	%rbp
	.cfi_def_cfa_offset 16
	.cfi_offset %rbp, -16
	movq	%rsp, %rbp
	.cfi_def_cfa_register %rbp
	movq	%rdi, -8(%rbp)
	movq	-8(%rbp), %rax
	popq	%rbp
	.cfi_def_cfa %rsp, 8
	retq
.Lfunc_end100:
	.size	_ZNSt9_Any_data9_M_accessEv, .Lfunc_end100-_ZNSt9_Any_data9_M_accessEv
	.cfi_endproc
                                        # -- End function
	.section	.text._ZSt10__invoke_rIvRPFvN4sycl3_V114exception_listEEJS2_EENSt9enable_ifIX16is_invocable_r_vIT_T0_DpT1_EES7_E4typeEOS8_DpOS9_,"axG",@progbits,_ZSt10__invoke_rIvRPFvN4sycl3_V114exception_listEEJS2_EENSt9enable_ifIX16is_invocable_r_vIT_T0_DpT1_EES7_E4typeEOS8_DpOS9_,comdat
	.weak	_ZSt10__invoke_rIvRPFvN4sycl3_V114exception_listEEJS2_EENSt9enable_ifIX16is_invocable_r_vIT_T0_DpT1_EES7_E4typeEOS8_DpOS9_ # -- Begin function _ZSt10__invoke_rIvRPFvN4sycl3_V114exception_listEEJS2_EENSt9enable_ifIX16is_invocable_r_vIT_T0_DpT1_EES7_E4typeEOS8_DpOS9_
	.p2align	4
	.type	_ZSt10__invoke_rIvRPFvN4sycl3_V114exception_listEEJS2_EENSt9enable_ifIX16is_invocable_r_vIT_T0_DpT1_EES7_E4typeEOS8_DpOS9_,@function
_ZSt10__invoke_rIvRPFvN4sycl3_V114exception_listEEJS2_EENSt9enable_ifIX16is_invocable_r_vIT_T0_DpT1_EES7_E4typeEOS8_DpOS9_: # @_ZSt10__invoke_rIvRPFvN4sycl3_V114exception_listEEJS2_EENSt9enable_ifIX16is_invocable_r_vIT_T0_DpT1_EES7_E4typeEOS8_DpOS9_
	.cfi_startproc
# %bb.0:                                # %entry
	pushq	%rbp
	.cfi_def_cfa_offset 16
	.cfi_offset %rbp, -16
	movq	%rsp, %rbp
	.cfi_def_cfa_register %rbp
	subq	$32, %rsp
	movq	%rdi, -8(%rbp)
	movq	%rsi, -16(%rbp)
	movq	-8(%rbp), %rdi
	movq	-16(%rbp), %rsi
	callq	_ZSt13__invoke_implIvRPFvN4sycl3_V114exception_listEEJS2_EET_St14__invoke_otherOT0_DpOT1_
	addq	$32, %rsp
	popq	%rbp
	.cfi_def_cfa %rsp, 8
	retq
.Lfunc_end101:
	.size	_ZSt10__invoke_rIvRPFvN4sycl3_V114exception_listEEJS2_EENSt9enable_ifIX16is_invocable_r_vIT_T0_DpT1_EES7_E4typeEOS8_DpOS9_, .Lfunc_end101-_ZSt10__invoke_rIvRPFvN4sycl3_V114exception_listEEJS2_EENSt9enable_ifIX16is_invocable_r_vIT_T0_DpT1_EES7_E4typeEOS8_DpOS9_
	.cfi_endproc
                                        # -- End function
	.section	.text._ZNSt14_Function_base13_Base_managerIPFvN4sycl3_V114exception_listEEE14_M_get_pointerERKSt9_Any_data,"axG",@progbits,_ZNSt14_Function_base13_Base_managerIPFvN4sycl3_V114exception_listEEE14_M_get_pointerERKSt9_Any_data,comdat
	.weak	_ZNSt14_Function_base13_Base_managerIPFvN4sycl3_V114exception_listEEE14_M_get_pointerERKSt9_Any_data # -- Begin function _ZNSt14_Function_base13_Base_managerIPFvN4sycl3_V114exception_listEEE14_M_get_pointerERKSt9_Any_data
	.p2align	4
	.type	_ZNSt14_Function_base13_Base_managerIPFvN4sycl3_V114exception_listEEE14_M_get_pointerERKSt9_Any_data,@function
_ZNSt14_Function_base13_Base_managerIPFvN4sycl3_V114exception_listEEE14_M_get_pointerERKSt9_Any_data: # @_ZNSt14_Function_base13_Base_managerIPFvN4sycl3_V114exception_listEEE14_M_get_pointerERKSt9_Any_data
	.cfi_startproc
# %bb.0:                                # %entry
	pushq	%rbp
	.cfi_def_cfa_offset 16
	.cfi_offset %rbp, -16
	movq	%rsp, %rbp
	.cfi_def_cfa_register %rbp
	subq	$16, %rsp
	movq	%rdi, -8(%rbp)
	movq	-8(%rbp), %rdi
	callq	_ZNKSt9_Any_data9_M_accessIPFvN4sycl3_V114exception_listEEEERKT_v
	movq	%rax, -16(%rbp)
	movq	-16(%rbp), %rax
	addq	$16, %rsp
	popq	%rbp
	.cfi_def_cfa %rsp, 8
	retq
.Lfunc_end102:
	.size	_ZNSt14_Function_base13_Base_managerIPFvN4sycl3_V114exception_listEEE14_M_get_pointerERKSt9_Any_data, .Lfunc_end102-_ZNSt14_Function_base13_Base_managerIPFvN4sycl3_V114exception_listEEE14_M_get_pointerERKSt9_Any_data
	.cfi_endproc
                                        # -- End function
	.section	.text._ZSt13__invoke_implIvRPFvN4sycl3_V114exception_listEEJS2_EET_St14__invoke_otherOT0_DpOT1_,"axG",@progbits,_ZSt13__invoke_implIvRPFvN4sycl3_V114exception_listEEJS2_EET_St14__invoke_otherOT0_DpOT1_,comdat
	.weak	_ZSt13__invoke_implIvRPFvN4sycl3_V114exception_listEEJS2_EET_St14__invoke_otherOT0_DpOT1_ # -- Begin function _ZSt13__invoke_implIvRPFvN4sycl3_V114exception_listEEJS2_EET_St14__invoke_otherOT0_DpOT1_
	.p2align	4
	.type	_ZSt13__invoke_implIvRPFvN4sycl3_V114exception_listEEJS2_EET_St14__invoke_otherOT0_DpOT1_,@function
_ZSt13__invoke_implIvRPFvN4sycl3_V114exception_listEEJS2_EET_St14__invoke_otherOT0_DpOT1_: # @_ZSt13__invoke_implIvRPFvN4sycl3_V114exception_listEEJS2_EET_St14__invoke_otherOT0_DpOT1_
.Lfunc_begin20:
	.cfi_startproc
	.cfi_personality 3, __gxx_personality_v0
	.cfi_lsda 3, .Lexception20
# %bb.0:                                # %entry
	pushq	%rbp
	.cfi_def_cfa_offset 16
	.cfi_offset %rbp, -16
	movq	%rsp, %rbp
	.cfi_def_cfa_register %rbp
	subq	$80, %rsp
	movq	%rdi, -16(%rbp)
	movq	%rsi, -24(%rbp)
	movq	-16(%rbp), %rax
	movq	(%rax), %rax
	movq	%rax, -72(%rbp)                 # 8-byte Spill
	movq	-24(%rbp), %rsi
	leaq	-48(%rbp), %rdi
	movq	%rdi, -80(%rbp)                 # 8-byte Spill
	callq	_ZN4sycl3_V114exception_listC2EOS1_
	movq	-80(%rbp), %rdi                 # 8-byte Reload
	movq	-72(%rbp), %rax                 # 8-byte Reload
.Ltmp184:
	callq	*%rax
.Ltmp185:
	jmp	.LBB103_1
.LBB103_1:                              # %invoke.cont
	leaq	-48(%rbp), %rdi
	callq	_ZN4sycl3_V114exception_listD2Ev
	addq	$80, %rsp
	popq	%rbp
	.cfi_def_cfa %rsp, 8
	retq
.LBB103_2:                              # %lpad
	.cfi_def_cfa %rbp, 16
.Ltmp186:
	movq	%rax, %rcx
	movl	%edx, %eax
	movq	%rcx, -56(%rbp)
	movl	%eax, -60(%rbp)
	leaq	-48(%rbp), %rdi
	callq	_ZN4sycl3_V114exception_listD2Ev
# %bb.3:                                # %eh.resume
	movq	-56(%rbp), %rdi
	callq	_Unwind_Resume@PLT
.Lfunc_end103:
	.size	_ZSt13__invoke_implIvRPFvN4sycl3_V114exception_listEEJS2_EET_St14__invoke_otherOT0_DpOT1_, .Lfunc_end103-_ZSt13__invoke_implIvRPFvN4sycl3_V114exception_listEEJS2_EET_St14__invoke_otherOT0_DpOT1_
	.cfi_endproc
	.section	.gcc_except_table._ZSt13__invoke_implIvRPFvN4sycl3_V114exception_listEEJS2_EET_St14__invoke_otherOT0_DpOT1_,"aG",@progbits,_ZSt13__invoke_implIvRPFvN4sycl3_V114exception_listEEJS2_EET_St14__invoke_otherOT0_DpOT1_,comdat
	.p2align	2, 0x0
GCC_except_table103:
.Lexception20:
	.byte	255                             # @LPStart Encoding = omit
	.byte	255                             # @TType Encoding = omit
	.byte	1                               # Call site Encoding = uleb128
	.uleb128 .Lcst_end20-.Lcst_begin20
.Lcst_begin20:
	.uleb128 .Ltmp184-.Lfunc_begin20        # >> Call Site 1 <<
	.uleb128 .Ltmp185-.Ltmp184              #   Call between .Ltmp184 and .Ltmp185
	.uleb128 .Ltmp186-.Lfunc_begin20        #     jumps to .Ltmp186
	.byte	0                               #   On action: cleanup
	.uleb128 .Ltmp185-.Lfunc_begin20        # >> Call Site 2 <<
	.uleb128 .Lfunc_end103-.Ltmp185         #   Call between .Ltmp185 and .Lfunc_end103
	.byte	0                               #     has no landing pad
	.byte	0                               #   On action: cleanup
.Lcst_end20:
	.p2align	2, 0x0
                                        # -- End function
	.section	.text._ZN4sycl3_V114exception_listC2EOS1_,"axG",@progbits,_ZN4sycl3_V114exception_listC2EOS1_,comdat
	.weak	_ZN4sycl3_V114exception_listC2EOS1_ # -- Begin function _ZN4sycl3_V114exception_listC2EOS1_
	.p2align	4
	.type	_ZN4sycl3_V114exception_listC2EOS1_,@function
_ZN4sycl3_V114exception_listC2EOS1_:    # @_ZN4sycl3_V114exception_listC2EOS1_
	.cfi_startproc
# %bb.0:                                # %entry
	pushq	%rbp
	.cfi_def_cfa_offset 16
	.cfi_offset %rbp, -16
	movq	%rsp, %rbp
	.cfi_def_cfa_register %rbp
	subq	$16, %rsp
	movq	%rdi, -8(%rbp)
	movq	%rsi, -16(%rbp)
	movq	-8(%rbp), %rdi
	movq	-16(%rbp), %rsi
	callq	_ZNSt6vectorINSt15__exception_ptr13exception_ptrESaIS1_EEC2EOS3_
	addq	$16, %rsp
	popq	%rbp
	.cfi_def_cfa %rsp, 8
	retq
.Lfunc_end104:
	.size	_ZN4sycl3_V114exception_listC2EOS1_, .Lfunc_end104-_ZN4sycl3_V114exception_listC2EOS1_
	.cfi_endproc
                                        # -- End function
	.section	.text._ZN4sycl3_V114exception_listD2Ev,"axG",@progbits,_ZN4sycl3_V114exception_listD2Ev,comdat
	.weak	_ZN4sycl3_V114exception_listD2Ev # -- Begin function _ZN4sycl3_V114exception_listD2Ev
	.p2align	4
	.type	_ZN4sycl3_V114exception_listD2Ev,@function
_ZN4sycl3_V114exception_listD2Ev:       # @_ZN4sycl3_V114exception_listD2Ev
	.cfi_startproc
# %bb.0:                                # %entry
	pushq	%rbp
	.cfi_def_cfa_offset 16
	.cfi_offset %rbp, -16
	movq	%rsp, %rbp
	.cfi_def_cfa_register %rbp
	subq	$16, %rsp
	movq	%rdi, -8(%rbp)
	movq	-8(%rbp), %rdi
	callq	_ZNSt6vectorINSt15__exception_ptr13exception_ptrESaIS1_EED2Ev
	addq	$16, %rsp
	popq	%rbp
	.cfi_def_cfa %rsp, 8
	retq
.Lfunc_end105:
	.size	_ZN4sycl3_V114exception_listD2Ev, .Lfunc_end105-_ZN4sycl3_V114exception_listD2Ev
	.cfi_endproc
                                        # -- End function
	.section	.text._ZNSt6vectorINSt15__exception_ptr13exception_ptrESaIS1_EEC2EOS3_,"axG",@progbits,_ZNSt6vectorINSt15__exception_ptr13exception_ptrESaIS1_EEC2EOS3_,comdat
	.weak	_ZNSt6vectorINSt15__exception_ptr13exception_ptrESaIS1_EEC2EOS3_ # -- Begin function _ZNSt6vectorINSt15__exception_ptr13exception_ptrESaIS1_EEC2EOS3_
	.p2align	4
	.type	_ZNSt6vectorINSt15__exception_ptr13exception_ptrESaIS1_EEC2EOS3_,@function
